ARM GAS  C:\Users\aditi\AppData\Local\Temp\ccXyOxhM.s 			page 1


   1              		.syntax unified
   2              		.cpu cortex-m3
   3              		.fpu softvfp
   4              		.eabi_attribute 20, 1
   5              		.eabi_attribute 21, 1
   6              		.eabi_attribute 23, 3
   7              		.eabi_attribute 24, 1
   8              		.eabi_attribute 25, 1
   9              		.eabi_attribute 26, 1
  10              		.eabi_attribute 30, 1
  11              		.eabi_attribute 34, 1
  12              		.eabi_attribute 18, 4
  13              		.thumb
  14              		.syntax unified
  15              		.file	"statemachine.c"
  16              		.text
  17              	.Ltext0:
  18              		.cfi_sections	.debug_frame
  19              		.section	.text.STATE__getIndexCurrentState,"ax",%progbits
  20              		.align	2
  21              		.global	STATE__getIndexCurrentState
  22              		.thumb
  23              		.thumb_func
  24              		.type	STATE__getIndexCurrentState, %function
  25              	STATE__getIndexCurrentState:
  26              	.LFB110:
  27              		.file 1 "source\\asw\\statemachine.c"
   1:source\asw/statemachine.c **** /**
   2:source\asw/statemachine.c **** * \file <filename>
   3:source\asw/statemachine.c **** * \author <author-name>
   4:source\asw/statemachine.c **** * \date <date>
   5:source\asw/statemachine.c **** *
   6:source\asw/statemachine.c **** * \brief <Symbolic File name>
   7:source\asw/statemachine.c **** *
   8:source\asw/statemachine.c **** * \copyright Copyright ©2016
   9:source\asw/statemachine.c **** * Department of electrical engineering and information technology, Hochschule Darmstadt - Universit
  10:source\asw/statemachine.c **** * Permission to use, copy, modify, and distribute this software and its documentation for education
  11:source\asw/statemachine.c **** * (unless permitted by h_da) and official h_da projects, is hereby granted for enrolled students of
  12:source\asw/statemachine.c **** * this paragraph and the following paragraph appear in all copies, modifications, and distributions
  13:source\asw/statemachine.c **** * Contact Prof.Dr.-Ing. Peter Fromm, peter.fromm@h-da.de, Birkenweg 8 64295 Darmstadt - GERMANY for
  14:source\asw/statemachine.c **** *
  15:source\asw/statemachine.c **** * \warning This software is a PROTOTYPE version and is not designed or intended for use in producti
  16:source\asw/statemachine.c **** * The user represents and warrants that it will NOT use or redistribute the Software for such purpo
  17:source\asw/statemachine.c **** * This prototype is for research purposes only. This software is provided "AS IS," without a warran
  18:source\asw/statemachine.c **** */
  19:source\asw/statemachine.c **** 
  20:source\asw/statemachine.c **** /*****************************************************************************/
  21:source\asw/statemachine.c **** /* Include files                                                             */
  22:source\asw/statemachine.c **** /*****************************************************************************/
  23:source\asw/statemachine.c **** #include "statemachine.h"
  24:source\asw/statemachine.c **** 
  25:source\asw/statemachine.c **** /*****************************************************************************/
  26:source\asw/statemachine.c **** /* Local pre-processor symbols/macros ('#define')                            */
  27:source\asw/statemachine.c **** /*****************************************************************************/
  28:source\asw/statemachine.c **** 
  29:source\asw/statemachine.c **** /*****************************************************************************/
  30:source\asw/statemachine.c **** /* Global variable definitions (declared in header file with 'extern')       */
ARM GAS  C:\Users\aditi\AppData\Local\Temp\ccXyOxhM.s 			page 2


  31:source\asw/statemachine.c **** /*****************************************************************************/
  32:source\asw/statemachine.c **** 
  33:source\asw/statemachine.c **** /*****************************************************************************/
  34:source\asw/statemachine.c **** /* Local type definitions ('typedef')                                        */
  35:source\asw/statemachine.c **** /*****************************************************************************/
  36:source\asw/statemachine.c **** 
  37:source\asw/statemachine.c **** /*****************************************************************************/
  38:source\asw/statemachine.c **** /* Local variable definitions ('static')                                     */
  39:source\asw/statemachine.c **** /*****************************************************************************/
  40:source\asw/statemachine.c **** 
  41:source\asw/statemachine.c **** 
  42:source\asw/statemachine.c **** 
  43:source\asw/statemachine.c **** /*****************************************************************************/
  44:source\asw/statemachine.c **** /* Local function prototypes ('static')                                      */
  45:source\asw/statemachine.c **** /*****************************************************************************/
  46:source\asw/statemachine.c **** 
  47:source\asw/statemachine.c **** 
  48:source\asw/statemachine.c **** /*****************************************************************************/
  49:source\asw/statemachine.c **** /* Function implementation - global ('extern') and local ('static')          */
  50:source\asw/statemachine.c **** /*****************************************************************************/
  51:source\asw/statemachine.c **** 
  52:source\asw/statemachine.c **** #define INVALIDINDEX -1
  53:source\asw/statemachine.c **** 
  54:source\asw/statemachine.c **** /** return the index of the provided state in the given table 
  55:source\asw/statemachine.c ****  **/
  56:source\asw/statemachine.c **** sint16_t STATE__getIndexCurrentState(STATE_stateOuterTransitionTable_t const  transitionTable,
  57:source\asw/statemachine.c ****                         uint16_t transitionTableSize,
  58:source\asw/statemachine.c ****                         CLOCK_state_t state)
  59:source\asw/statemachine.c **** {
  28              		.loc 1 59 0
  29              		.cfi_startproc
  30              		@ args = 0, pretend = 0, frame = 0
  31              		@ frame_needed = 0, uses_anonymous_args = 0
  32              		@ link register save eliminated.
  33              	.LVL0:
  34 0000 30B4     		push	{r4, r5}
  35              		.cfi_def_cfa_offset 8
  36              		.cfi_offset 4, -8
  37              		.cfi_offset 5, -4
  38              	.LVL1:
  39              	.LBB2:
  60:source\asw/statemachine.c ****     
  61:source\asw/statemachine.c ****     sint16_t result = INVALIDINDEX; //error
  62:source\asw/statemachine.c ****     
  63:source\asw/statemachine.c ****     for (uint16_t i = 0; i < transitionTableSize; i++)
  40              		.loc 1 63 0
  41 0002 0023     		movs	r3, #0
  42 0004 09E0     		b	.L2
  43              	.LVL2:
  44              	.L5:
  64:source\asw/statemachine.c ****     {
  65:source\asw/statemachine.c ****         if (transitionTable[i].fromState == state)
  45              		.loc 1 65 0
  46 0006 03EB4305 		add	r5, r3, r3, lsl #1
  47 000a AC00     		lsls	r4, r5, #2
  48 000c 045D     		ldrb	r4, [r0, r4]	@ zero_extendqisi2
  49 000e 9442     		cmp	r4, r2
ARM GAS  C:\Users\aditi\AppData\Local\Temp\ccXyOxhM.s 			page 3


  50 0010 01D1     		bne	.L3
  66:source\asw/statemachine.c ****         {
  67:source\asw/statemachine.c ****             return i;
  51              		.loc 1 67 0
  52 0012 18B2     		sxth	r0, r3
  53              	.LVL3:
  54 0014 05E0     		b	.L4
  55              	.LVL4:
  56              	.L3:
  63:source\asw/statemachine.c ****     {
  57              		.loc 1 63 0 discriminator 2
  58 0016 0133     		adds	r3, r3, #1
  59              	.LVL5:
  60 0018 9BB2     		uxth	r3, r3
  61              	.LVL6:
  62              	.L2:
  63:source\asw/statemachine.c ****     {
  63              		.loc 1 63 0 is_stmt 0 discriminator 1
  64 001a 8B42     		cmp	r3, r1
  65 001c F3D3     		bcc	.L5
  66              	.LBE2:
  68:source\asw/statemachine.c ****         }
  69:source\asw/statemachine.c ****     }
  70:source\asw/statemachine.c ****     
  71:source\asw/statemachine.c ****     return INVALIDINDEX;
  67              		.loc 1 71 0 is_stmt 1
  68 001e 4FF0FF30 		mov	r0, #-1
  69              	.LVL7:
  70              	.L4:
  72:source\asw/statemachine.c **** }
  71              		.loc 1 72 0
  72 0022 30BC     		pop	{r4, r5}
  73              		.cfi_restore 5
  74              		.cfi_restore 4
  75              		.cfi_def_cfa_offset 0
  76 0024 7047     		bx	lr
  77              		.cfi_endproc
  78              	.LFE110:
  79              		.size	STATE__getIndexCurrentState, .-STATE__getIndexCurrentState
  80 0026 00BF     		.section	.text.STATE_initState,"ax",%progbits
  81              		.align	2
  82              		.global	STATE_initState
  83              		.thumb
  84              		.thumb_func
  85              		.type	STATE_initState, %function
  86              	STATE_initState:
  87              	.LFB111:
  73:source\asw/statemachine.c **** 
  74:source\asw/statemachine.c **** /**
  75:source\asw/statemachine.c ****  * This function will initialise the state machine and process any state actions of the initial sta
  76:source\asw/statemachine.c ****  * The state machine is implemented as a generic object, Several instances and configurations are s
  77:source\asw/statemachine.c ****  * \param STATE_stateActionTable_t const * const actionTable            : IN - Pointer to the actio
  78:source\asw/statemachine.c ****  * \param uint16_t actionTableSize                                      : IN - action table size 
  79:source\asw/statemachine.c ****  * \param STATE_state_t state                                           : IN/OUT - Leaving and Resu
  80:source\asw/statemachine.c ****  * \return RC_SUCCESS or error
  81:source\asw/statemachine.c ****  */
  82:source\asw/statemachine.c **** RC_t STATE_initState(   STATE_stateActionTable_t const actionTable, 
ARM GAS  C:\Users\aditi\AppData\Local\Temp\ccXyOxhM.s 			page 4


  83:source\asw/statemachine.c ****                         uint16_t actionTableSize,
  84:source\asw/statemachine.c ****                         CLOCK_state_t* state)
  85:source\asw/statemachine.c **** {
  88              		.loc 1 85 0
  89              		.cfi_startproc
  90              		@ args = 0, pretend = 0, frame = 0
  91              		@ frame_needed = 0, uses_anonymous_args = 0
  92              	.LVL8:
  86:source\asw/statemachine.c ****     
  87:source\asw/statemachine.c ****     STATE_ActionPtr_t acEntry = 0;
  88:source\asw/statemachine.c ****     
  89:source\asw/statemachine.c ****     *state = STATE_CLOCK_C_ISDISPLAYING;
  93              		.loc 1 89 0
  94 0000 0023     		movs	r3, #0
  95 0002 1370     		strb	r3, [r2]
  90:source\asw/statemachine.c ****     
  91:source\asw/statemachine.c ****     //Check if entry actios are present in the init state
  92:source\asw/statemachine.c ****     if (0 != actionTable)
  96              		.loc 1 92 0
  97 0004 60B9     		cbnz	r0, .L12
  98              	.LVL9:
  93:source\asw/statemachine.c ****     {
  94:source\asw/statemachine.c ****         for (uint16_t j = 0; j < actionTableSize; j++)
  95:source\asw/statemachine.c ****         {
  96:source\asw/statemachine.c **** 
  97:source\asw/statemachine.c ****             if (STATE_CLOCK_C_ISDISPLAYING == actionTable[j].state)
  98:source\asw/statemachine.c ****             {
  99:source\asw/statemachine.c ****                 acEntry = actionTable[j].actionEntry;
 100:source\asw/statemachine.c ****                 if (0 != acEntry) acEntry();
 101:source\asw/statemachine.c ****             }
 102:source\asw/statemachine.c ****         }
 103:source\asw/statemachine.c ****     }
 104:source\asw/statemachine.c ****     
 105:source\asw/statemachine.c **** }
  99              		.loc 1 105 0
 100 0006 7047     		bx	lr
 101              	.LVL10:
 102              	.L11:
 103              		.cfi_def_cfa_offset 16
 104              		.cfi_offset 4, -16
 105              		.cfi_offset 5, -12
 106              		.cfi_offset 6, -8
 107              		.cfi_offset 14, -4
 108              	.LBB3:
  97:source\asw/statemachine.c ****             {
 109              		.loc 1 97 0
 110 0008 04EB4402 		add	r2, r4, r4, lsl #1
 111 000c 9300     		lsls	r3, r2, #2
 112 000e EA18     		adds	r2, r5, r3
 113 0010 EB5C     		ldrb	r3, [r5, r3]	@ zero_extendqisi2
 114 0012 13B9     		cbnz	r3, .L10
  99:source\asw/statemachine.c ****                 if (0 != acEntry) acEntry();
 115              		.loc 1 99 0
 116 0014 5368     		ldr	r3, [r2, #4]
 117              	.LVL11:
 100:source\asw/statemachine.c ****             }
 118              		.loc 1 100 0
ARM GAS  C:\Users\aditi\AppData\Local\Temp\ccXyOxhM.s 			page 5


 119 0016 03B1     		cbz	r3, .L10
 100:source\asw/statemachine.c ****             }
 120              		.loc 1 100 0 is_stmt 0 discriminator 1
 121 0018 9847     		blx	r3
 122              	.LVL12:
 123              	.L10:
  94:source\asw/statemachine.c ****         {
 124              		.loc 1 94 0 is_stmt 1 discriminator 2
 125 001a 0134     		adds	r4, r4, #1
 126              	.LVL13:
 127 001c A4B2     		uxth	r4, r4
 128              	.LVL14:
 129 001e 03E0     		b	.L8
 130              	.LVL15:
 131              	.L12:
 132              		.cfi_def_cfa_offset 0
 133              		.cfi_restore 4
 134              		.cfi_restore 5
 135              		.cfi_restore 6
 136              		.cfi_restore 14
 137              	.LBE3:
  85:source\asw/statemachine.c ****     
 138              		.loc 1 85 0
 139 0020 70B5     		push	{r4, r5, r6, lr}
 140              		.cfi_def_cfa_offset 16
 141              		.cfi_offset 4, -16
 142              		.cfi_offset 5, -12
 143              		.cfi_offset 6, -8
 144              		.cfi_offset 14, -4
 145 0022 0546     		mov	r5, r0
 146 0024 0E46     		mov	r6, r1
 147 0026 0024     		movs	r4, #0
 148              	.LVL16:
 149              	.L8:
 150              	.LBB4:
  94:source\asw/statemachine.c ****         {
 151              		.loc 1 94 0 discriminator 1
 152 0028 B442     		cmp	r4, r6
 153 002a EDD3     		bcc	.L11
 154              	.LBE4:
 155              		.loc 1 105 0
 156 002c 70BD     		pop	{r4, r5, r6, pc}
 157              		.cfi_endproc
 158              	.LFE111:
 159              		.size	STATE_initState, .-STATE_initState
 160 002e 00BF     		.section	.text.STATE_processEvent,"ax",%progbits
 161              		.align	2
 162              		.global	STATE_processEvent
 163              		.thumb
 164              		.thumb_func
 165              		.type	STATE_processEvent, %function
 166              	STATE_processEvent:
 167              	.LFB112:
 106:source\asw/statemachine.c **** 
 107:source\asw/statemachine.c **** /**
 108:source\asw/statemachine.c ****  * This function will process the event with the defined state machine
 109:source\asw/statemachine.c ****  * The state machine is implemented as a generic object, Several instances and configurations are s
ARM GAS  C:\Users\aditi\AppData\Local\Temp\ccXyOxhM.s 			page 6


 110:source\asw/statemachine.c ****  * \param STATE_stateTransitionTable_t const * const transitionTable    : IN - Pointer to the trans
 111:source\asw/statemachine.c ****  * \param uint16_t transitionTableSize                                  : IN - transition table siz
 112:source\asw/statemachine.c ****  * \param STATE_stateActionTable_t const * const actionTable            : IN - Pointer to the actio
 113:source\asw/statemachine.c ****  * \param uint16_t actionTableSize                                      : IN - action table size 
 114:source\asw/statemachine.c ****  * \param STATE_event_t ev                                              : IN - Event to be processe
 115:source\asw/statemachine.c ****  * \param STATE_state_t state                                           : IN/OUT - Leaving and Resu
 116:source\asw/statemachine.c ****  * \return RC_SUCCESS or error
 117:source\asw/statemachine.c ****  */
 118:source\asw/statemachine.c **** RC_t STATE_processEvent(STATE_stateOuterTransitionTable_t const  transitionTable,
 119:source\asw/statemachine.c ****                         uint16_t transitionTableSize,
 120:source\asw/statemachine.c ****                         STATE_stateActionTable_t const actionTable, 
 121:source\asw/statemachine.c ****                         uint16_t actionTableSize,
 122:source\asw/statemachine.c ****                         STATE_event_t ev,
 123:source\asw/statemachine.c ****                         CLOCK_state_t* state)
 124:source\asw/statemachine.c **** {
 168              		.loc 1 124 0
 169              		.cfi_startproc
 170              		@ args = 8, pretend = 0, frame = 0
 171              		@ frame_needed = 0, uses_anonymous_args = 0
 172              	.LVL17:
 173 0000 2DE9F84F 		push	{r3, r4, r5, r6, r7, r8, r9, r10, fp, lr}
 174              		.cfi_def_cfa_offset 40
 175              		.cfi_offset 3, -40
 176              		.cfi_offset 4, -36
 177              		.cfi_offset 5, -32
 178              		.cfi_offset 6, -28
 179              		.cfi_offset 7, -24
 180              		.cfi_offset 8, -20
 181              		.cfi_offset 9, -16
 182              		.cfi_offset 10, -12
 183              		.cfi_offset 11, -8
 184              		.cfi_offset 14, -4
 185 0004 0446     		mov	r4, r0
 186 0006 0D46     		mov	r5, r1
 187 0008 9146     		mov	r9, r2
 188 000a 9A46     		mov	r10, r3
 189 000c 9DF82880 		ldrb	r8, [sp, #40]	@ zero_extendqisi2
 190              	.LVL18:
 125:source\asw/statemachine.c ****     STATE_GuardPtr_t guard = 0;
 126:source\asw/statemachine.c ****     STATE_ActionPtr_t acTransition = 0;
 127:source\asw/statemachine.c ****     STATE_ActionPtr_t acEntry = 0;
 128:source\asw/statemachine.c ****     STATE_ActionPtr_t acExit = 0;
 129:source\asw/statemachine.c ****     
 130:source\asw/statemachine.c ****     
 131:source\asw/statemachine.c ****     //Read the state from the watchdog object;
 132:source\asw/statemachine.c ****     CLOCK_state_t currentState = *state;
 191              		.loc 1 132 0
 192 0010 0B9B     		ldr	r3, [sp, #44]
 193              	.LVL19:
 194 0012 93F800B0 		ldrb	fp, [r3]	@ zero_extendqisi2
 195              	.LVL20:
 133:source\asw/statemachine.c ****     CLOCK_state_t toState = currentState; //Just in case
 134:source\asw/statemachine.c ****     
 135:source\asw/statemachine.c ****     UART_LOG_PutString("Current State: ");
 196              		.loc 1 135 0
 197 0016 6848     		ldr	r0, .L54
 198              	.LVL21:
ARM GAS  C:\Users\aditi\AppData\Local\Temp\ccXyOxhM.s 			page 7


 199 0018 FFF7FEFF 		bl	UART_LOG_PutString
 200              	.LVL22:
 136:source\asw/statemachine.c ****     switch(currentState)
 201              		.loc 1 136 0
 202 001c BBF1050F 		cmp	fp, #5
 203 0020 1CD8     		bhi	.L15
 204 0022 DFE80BF0 		tbb	[pc, fp]
 205              	.L17:
 206 0026 03       		.byte	(.L16-.L17)/2
 207 0027 07       		.byte	(.L18-.L17)/2
 208 0028 0B       		.byte	(.L19-.L17)/2
 209 0029 0F       		.byte	(.L20-.L17)/2
 210 002a 13       		.byte	(.L21-.L17)/2
 211 002b 17       		.byte	(.L22-.L17)/2
 212              		.p2align 1
 213              	.L16:
 137:source\asw/statemachine.c ****     {
 138:source\asw/statemachine.c ****         case STATE_CLOCK_C_ISDISPLAYING:
 139:source\asw/statemachine.c ****         UART_LOG_PutString("C_ISDISPLAYING\n");
 214              		.loc 1 139 0
 215 002c 6348     		ldr	r0, .L54+4
 216 002e FFF7FEFF 		bl	UART_LOG_PutString
 217              	.LVL23:
 140:source\asw/statemachine.c ****         break;
 218              		.loc 1 140 0
 219 0032 16E0     		b	.L23
 220              	.L18:
 141:source\asw/statemachine.c ****         case STATE_CLOCK_C_ISEDITINGHOURS:
 142:source\asw/statemachine.c ****         UART_LOG_PutString("C_ISEDITINGHOURS\n");
 221              		.loc 1 142 0
 222 0034 6248     		ldr	r0, .L54+8
 223 0036 FFF7FEFF 		bl	UART_LOG_PutString
 224              	.LVL24:
 143:source\asw/statemachine.c ****         break;
 225              		.loc 1 143 0
 226 003a 12E0     		b	.L23
 227              	.L19:
 144:source\asw/statemachine.c ****         case STATE_CLOCK_C_ISEDITINGMINUTES:
 145:source\asw/statemachine.c ****         UART_LOG_PutString("C_ISEDITINGMINUTES\n");
 228              		.loc 1 145 0
 229 003c 6148     		ldr	r0, .L54+12
 230 003e FFF7FEFF 		bl	UART_LOG_PutString
 231              	.LVL25:
 146:source\asw/statemachine.c ****         break;
 232              		.loc 1 146 0
 233 0042 0EE0     		b	.L23
 234              	.L20:
 147:source\asw/statemachine.c ****         case STATE_CLOCK_W_ISDISPLAYING:
 148:source\asw/statemachine.c ****         UART_LOG_PutString("W_ISDISPLAYING\n");
 235              		.loc 1 148 0
 236 0044 6048     		ldr	r0, .L54+16
 237 0046 FFF7FEFF 		bl	UART_LOG_PutString
 238              	.LVL26:
 149:source\asw/statemachine.c ****         break;
 239              		.loc 1 149 0
 240 004a 0AE0     		b	.L23
 241              	.L21:
ARM GAS  C:\Users\aditi\AppData\Local\Temp\ccXyOxhM.s 			page 8


 150:source\asw/statemachine.c ****         case STATE_CLOCK_W_ISEDITING:
 151:source\asw/statemachine.c ****         UART_LOG_PutString("W_ISEDITING\n");
 242              		.loc 1 151 0
 243 004c 5F48     		ldr	r0, .L54+20
 244 004e FFF7FEFF 		bl	UART_LOG_PutString
 245              	.LVL27:
 152:source\asw/statemachine.c ****         break;
 246              		.loc 1 152 0
 247 0052 06E0     		b	.L23
 248              	.L22:
 153:source\asw/statemachine.c ****         case STATE_CLOCK_W_ISAUTOINCREMENT:
 154:source\asw/statemachine.c ****         UART_LOG_PutString("W_ISAUTOINCREMENT\n");
 249              		.loc 1 154 0
 250 0054 5E48     		ldr	r0, .L54+24
 251 0056 FFF7FEFF 		bl	UART_LOG_PutString
 252              	.LVL28:
 155:source\asw/statemachine.c ****         break;
 253              		.loc 1 155 0
 254 005a 02E0     		b	.L23
 255              	.L15:
 156:source\asw/statemachine.c ****         default:
 157:source\asw/statemachine.c ****         UART_LOG_PutString("Default case\n");
 256              		.loc 1 157 0
 257 005c 5D48     		ldr	r0, .L54+28
 258 005e FFF7FEFF 		bl	UART_LOG_PutString
 259              	.LVL29:
 260              	.L23:
 158:source\asw/statemachine.c ****         break;
 159:source\asw/statemachine.c ****     }
 160:source\asw/statemachine.c ****     
 161:source\asw/statemachine.c ****     //Calculate the table index of the outer table
 162:source\asw/statemachine.c **** 
 163:source\asw/statemachine.c ****     sint16_t index = STATE__getIndexCurrentState(transitionTable, transitionTableSize, currentState
 261              		.loc 1 163 0
 262 0062 5A46     		mov	r2, fp
 263 0064 2946     		mov	r1, r5
 264 0066 2046     		mov	r0, r4
 265 0068 FFF7FEFF 		bl	STATE__getIndexCurrentState
 266              	.LVL30:
 164:source\asw/statemachine.c ****     
 165:source\asw/statemachine.c ****     //This should never happen
 166:source\asw/statemachine.c ****     if (INVALIDINDEX == index)
 267              		.loc 1 166 0
 268 006c B0F1FF3F 		cmp	r0, #-1
 269 0070 00F09580 		beq	.L47
 167:source\asw/statemachine.c ****     {
 168:source\asw/statemachine.c ****         return RC_ERROR_BAD_PARAM;
 169:source\asw/statemachine.c ****     }
 170:source\asw/statemachine.c ****     
 171:source\asw/statemachine.c ****     STATE_stateInnerTransitionTable_t const* const pInnerTable = transitionTable[index].pInnerTrans
 270              		.loc 1 171 0
 271 0074 00EB4000 		add	r0, r0, r0, lsl #1
 272              	.LVL31:
 273 0078 8300     		lsls	r3, r0, #2
 274 007a 1C44     		add	r4, r4, r3
 275              	.LVL32:
 276 007c 6568     		ldr	r5, [r4, #4]
ARM GAS  C:\Users\aditi\AppData\Local\Temp\ccXyOxhM.s 			page 9


 277              	.LVL33:
 172:source\asw/statemachine.c **** 	
 173:source\asw/statemachine.c ****     uint16_t innerTableSize = 0;
 174:source\asw/statemachine.c **** 	if (0 != pInnerTable)
 278              		.loc 1 174 0
 279 007e 0DB1     		cbz	r5, .L48
 175:source\asw/statemachine.c **** 	{
 176:source\asw/statemachine.c **** 		innerTableSize = transitionTable[index].size;
 280              		.loc 1 176 0
 281 0080 2689     		ldrh	r6, [r4, #8]
 282              	.LVL34:
 283 0082 00E0     		b	.L25
 284              	.LVL35:
 285              	.L48:
 173:source\asw/statemachine.c **** 	if (0 != pInnerTable)
 286              		.loc 1 173 0
 287 0084 0026     		movs	r6, #0
 288              	.LVL36:
 289              	.L25:
 177:source\asw/statemachine.c **** 	}
 178:source\asw/statemachine.c ****     
 179:source\asw/statemachine.c ****     if (0 == pInnerTable || 0 == innerTableSize)
 290              		.loc 1 179 0
 291 0086 002D     		cmp	r5, #0
 292 0088 00F08D80 		beq	.L49
 293              		.loc 1 179 0 is_stmt 0 discriminator 1
 294 008c 002E     		cmp	r6, #0
 295 008e 00F08E80 		beq	.L50
 296 0092 0024     		movs	r4, #0
 297 0094 7DE0     		b	.L26
 298              	.LVL37:
 299              	.L46:
 300              	.LBB5:
 180:source\asw/statemachine.c ****     {
 181:source\asw/statemachine.c ****         //No transitions in this state
 182:source\asw/statemachine.c ****         return RC_ERROR_INVALID_STATE;
 183:source\asw/statemachine.c ****     }
 184:source\asw/statemachine.c ****     
 185:source\asw/statemachine.c ****     //Iterate through the inner table and find correct transition
 186:source\asw/statemachine.c ****     for (uint16_t i = 0; i < innerTableSize; i++)
 187:source\asw/statemachine.c ****     {
 188:source\asw/statemachine.c ****         if ((*pInnerTable)[i].event == ev)
 301              		.loc 1 188 0 is_stmt 1
 302 0096 2746     		mov	r7, r4
 303 0098 04EB4402 		add	r2, r4, r4, lsl #1
 304 009c 9300     		lsls	r3, r2, #2
 305 009e EB5C     		ldrb	r3, [r5, r3]	@ zero_extendqisi2
 306 00a0 4345     		cmp	r3, r8
 307 00a2 74D1     		bne	.L27
 189:source\asw/statemachine.c ****         {
 190:source\asw/statemachine.c ****             //Transition found, let's check the guard
 191:source\asw/statemachine.c ****             guard = (*pInnerTable)[i].guard;
 308              		.loc 1 191 0
 309 00a4 04EB4402 		add	r2, r4, r4, lsl #1
 310 00a8 9300     		lsls	r3, r2, #2
 311 00aa 2B44     		add	r3, r3, r5
 312 00ac 5B68     		ldr	r3, [r3, #4]
ARM GAS  C:\Users\aditi\AppData\Local\Temp\ccXyOxhM.s 			page 10


 313              	.LVL38:
 192:source\asw/statemachine.c ****             if (0 == guard || TRUE == guard())
 314              		.loc 1 192 0
 315 00ae 13B1     		cbz	r3, .L28
 316              		.loc 1 192 0 is_stmt 0 discriminator 1
 317 00b0 9847     		blx	r3
 318              	.LVL39:
 319 00b2 0128     		cmp	r0, #1
 320 00b4 6BD1     		bne	.L27
 321              	.L28:
 193:source\asw/statemachine.c ****             {
 194:source\asw/statemachine.c ****                 //Transition is valid
 195:source\asw/statemachine.c ****                 acTransition = (*pInnerTable)[i].actionTransition;
 322              		.loc 1 195 0 is_stmt 1
 323 00b6 7A00     		lsls	r2, r7, #1
 324 00b8 D119     		adds	r1, r2, r7
 325 00ba 8B00     		lsls	r3, r1, #2
 326 00bc 1946     		mov	r1, r3
 327 00be 2B44     		add	r3, r3, r5
 328 00c0 9C68     		ldr	r4, [r3, #8]
 329              	.LVL40:
 196:source\asw/statemachine.c ****                 toState = (*pInnerTable)[i].toState;
 330              		.loc 1 196 0
 331 00c2 0D44     		add	r5, r5, r1
 332              	.LVL41:
 333 00c4 6E78     		ldrb	r6, [r5, #1]	@ zero_extendqisi2
 334              	.LVL42:
 197:source\asw/statemachine.c ****                 
 198:source\asw/statemachine.c ****                 //Now lets find exit actions. Note: their might be more than one
 199:source\asw/statemachine.c ****                 if (0 != actionTable)
 335              		.loc 1 199 0
 336 00c6 B9F1000F 		cmp	r9, #0
 337 00ca 0FD1     		bne	.L51
 338              	.LBB6:
 339 00cc 11E0     		b	.L30
 340              	.LVL43:
 341              	.L32:
 200:source\asw/statemachine.c ****                 {
 201:source\asw/statemachine.c ****                     for (uint16_t j = 0; j < actionTableSize; j++)
 202:source\asw/statemachine.c ****                     {
 203:source\asw/statemachine.c ****                         if (currentState == actionTable[j].state)
 342              		.loc 1 203 0
 343 00ce 05EB4502 		add	r2, r5, r5, lsl #1
 344 00d2 9300     		lsls	r3, r2, #2
 345 00d4 09EB0302 		add	r2, r9, r3
 346 00d8 19F80330 		ldrb	r3, [r9, r3]	@ zero_extendqisi2
 347 00dc 9B45     		cmp	fp, r3
 348 00de 02D1     		bne	.L31
 204:source\asw/statemachine.c ****                         {
 205:source\asw/statemachine.c ****                             acExit = actionTable[j].actionExit;
 349              		.loc 1 205 0
 350 00e0 9368     		ldr	r3, [r2, #8]
 351              	.LVL44:
 206:source\asw/statemachine.c ****                             if (0 != acExit) acExit();
 352              		.loc 1 206 0
 353 00e2 03B1     		cbz	r3, .L31
 354              		.loc 1 206 0 is_stmt 0 discriminator 1
ARM GAS  C:\Users\aditi\AppData\Local\Temp\ccXyOxhM.s 			page 11


 355 00e4 9847     		blx	r3
 356              	.LVL45:
 357              	.L31:
 201:source\asw/statemachine.c ****                     {
 358              		.loc 1 201 0 is_stmt 1 discriminator 2
 359 00e6 0135     		adds	r5, r5, #1
 360              	.LVL46:
 361 00e8 ADB2     		uxth	r5, r5
 362              	.LVL47:
 363 00ea 00E0     		b	.L29
 364              	.LVL48:
 365              	.L51:
 366              	.LBE6:
 367 00ec 0025     		movs	r5, #0
 368              	.LVL49:
 369              	.L29:
 370              	.LBB7:
 201:source\asw/statemachine.c ****                     {
 371              		.loc 1 201 0 is_stmt 0 discriminator 1
 372 00ee 5545     		cmp	r5, r10
 373 00f0 EDD3     		bcc	.L32
 374              	.LVL50:
 375              	.L30:
 376              	.LBE7:
 207:source\asw/statemachine.c ****                         }
 208:source\asw/statemachine.c ****                     }
 209:source\asw/statemachine.c ****                 }
 210:source\asw/statemachine.c **** 
 211:source\asw/statemachine.c ****                 //Lets call the transition action
 212:source\asw/statemachine.c ****                 if (0 != acTransition) acTransition();
 377              		.loc 1 212 0 is_stmt 1
 378 00f2 04B1     		cbz	r4, .L33
 379              		.loc 1 212 0 is_stmt 0 discriminator 1
 380 00f4 A047     		blx	r4
 381              	.LVL51:
 382              	.L33:
 213:source\asw/statemachine.c ****                 
 214:source\asw/statemachine.c ****                 //Now lets find the entry actions. Note: their might be more than one
 215:source\asw/statemachine.c ****                 if (0 != actionTable)
 383              		.loc 1 215 0 is_stmt 1
 384 00f6 B9F1000F 		cmp	r9, #0
 385 00fa 0FD1     		bne	.L52
 386              	.LBB8:
 387 00fc 11E0     		b	.L35
 388              	.LVL52:
 389              	.L37:
 216:source\asw/statemachine.c ****                 {
 217:source\asw/statemachine.c ****                     for (uint16_t j = 0; j < actionTableSize; j++)
 218:source\asw/statemachine.c ****                     {
 219:source\asw/statemachine.c **** 
 220:source\asw/statemachine.c ****                         if (toState == actionTable[j].state)
 390              		.loc 1 220 0
 391 00fe 04EB4402 		add	r2, r4, r4, lsl #1
 392 0102 9300     		lsls	r3, r2, #2
 393 0104 09EB0302 		add	r2, r9, r3
 394 0108 19F80330 		ldrb	r3, [r9, r3]	@ zero_extendqisi2
 395 010c 9E42     		cmp	r6, r3
ARM GAS  C:\Users\aditi\AppData\Local\Temp\ccXyOxhM.s 			page 12


 396 010e 02D1     		bne	.L36
 221:source\asw/statemachine.c ****                         {
 222:source\asw/statemachine.c ****                             acEntry = actionTable[j].actionEntry;
 397              		.loc 1 222 0
 398 0110 5368     		ldr	r3, [r2, #4]
 399              	.LVL53:
 223:source\asw/statemachine.c ****                             if (0 != acEntry) acEntry();
 400              		.loc 1 223 0
 401 0112 03B1     		cbz	r3, .L36
 402              		.loc 1 223 0 is_stmt 0 discriminator 1
 403 0114 9847     		blx	r3
 404              	.LVL54:
 405              	.L36:
 217:source\asw/statemachine.c ****                     {
 406              		.loc 1 217 0 is_stmt 1 discriminator 2
 407 0116 0134     		adds	r4, r4, #1
 408              	.LVL55:
 409 0118 A4B2     		uxth	r4, r4
 410              	.LVL56:
 411 011a 00E0     		b	.L34
 412              	.LVL57:
 413              	.L52:
 414              	.LBE8:
 415 011c 0024     		movs	r4, #0
 416              	.LVL58:
 417              	.L34:
 418              	.LBB9:
 217:source\asw/statemachine.c ****                     {
 419              		.loc 1 217 0 is_stmt 0 discriminator 1
 420 011e 5445     		cmp	r4, r10
 421 0120 EDD3     		bcc	.L37
 422              	.LVL59:
 423              	.L35:
 424              	.LBE9:
 224:source\asw/statemachine.c ****                         }
 225:source\asw/statemachine.c ****                     }
 226:source\asw/statemachine.c ****                 }
 227:source\asw/statemachine.c ****                 
 228:source\asw/statemachine.c ****                 *state = toState;
 425              		.loc 1 228 0 is_stmt 1
 426 0122 0B9B     		ldr	r3, [sp, #44]
 427 0124 1E70     		strb	r6, [r3]
 229:source\asw/statemachine.c ****                 UART_LOG_PutString("To State: ");
 428              		.loc 1 229 0
 429 0126 2C48     		ldr	r0, .L54+32
 430 0128 FFF7FEFF 		bl	UART_LOG_PutString
 431              	.LVL60:
 230:source\asw/statemachine.c ****                 switch(toState)
 432              		.loc 1 230 0
 433 012c 052E     		cmp	r6, #5
 434 012e 28D8     		bhi	.L38
 435 0130 DFE806F0 		tbb	[pc, r6]
 436              	.L40:
 437 0134 03       		.byte	(.L39-.L40)/2
 438 0135 09       		.byte	(.L41-.L40)/2
 439 0136 0F       		.byte	(.L42-.L40)/2
 440 0137 15       		.byte	(.L43-.L40)/2
ARM GAS  C:\Users\aditi\AppData\Local\Temp\ccXyOxhM.s 			page 13


 441 0138 1B       		.byte	(.L44-.L40)/2
 442 0139 21       		.byte	(.L45-.L40)/2
 443              		.p2align 1
 444              	.L39:
 231:source\asw/statemachine.c ****                 {
 232:source\asw/statemachine.c ****                     case STATE_CLOCK_C_ISDISPLAYING:
 233:source\asw/statemachine.c ****                     UART_LOG_PutString("C_ISDISPLAYING\n");
 445              		.loc 1 233 0
 446 013a 2048     		ldr	r0, .L54+4
 447 013c FFF7FEFF 		bl	UART_LOG_PutString
 448              	.LVL61:
 449              	.LBE5:
 234:source\asw/statemachine.c ****                     break;
 235:source\asw/statemachine.c ****                     case STATE_CLOCK_C_ISEDITINGHOURS:
 236:source\asw/statemachine.c ****                     UART_LOG_PutString("C_ISEDITINGHOURS\n");
 237:source\asw/statemachine.c ****                     break;
 238:source\asw/statemachine.c ****                     case STATE_CLOCK_C_ISEDITINGMINUTES:
 239:source\asw/statemachine.c ****                     UART_LOG_PutString("C_ISEDITINGMINUTES\n");
 240:source\asw/statemachine.c ****                     break;
 241:source\asw/statemachine.c ****                     case STATE_CLOCK_W_ISDISPLAYING:
 242:source\asw/statemachine.c ****                     UART_LOG_PutString("W_ISDISPLAYING\n");
 243:source\asw/statemachine.c ****                     break;
 244:source\asw/statemachine.c ****                     case STATE_CLOCK_W_ISEDITING:
 245:source\asw/statemachine.c ****                     UART_LOG_PutString("W_ISEDITING\n");
 246:source\asw/statemachine.c ****                     break;
 247:source\asw/statemachine.c ****                     case STATE_CLOCK_W_ISAUTOINCREMENT:
 248:source\asw/statemachine.c ****                     UART_LOG_PutString("W_ISAUTOINCREMENT\n");
 249:source\asw/statemachine.c ****                     break;
 250:source\asw/statemachine.c ****                     default:
 251:source\asw/statemachine.c ****                     UART_LOG_PutString("Default case\n");
 252:source\asw/statemachine.c ****                     break;
 253:source\asw/statemachine.c ****                 }
 254:source\asw/statemachine.c ****                 
 255:source\asw/statemachine.c ****                 
 256:source\asw/statemachine.c ****                 //Only one transition will be fired
 257:source\asw/statemachine.c ****                 break;
 258:source\asw/statemachine.c ****             }
 259:source\asw/statemachine.c ****         }
 260:source\asw/statemachine.c ****     }
 261:source\asw/statemachine.c ****     
 262:source\asw/statemachine.c **** 
 263:source\asw/statemachine.c ****     
 264:source\asw/statemachine.c ****  
 265:source\asw/statemachine.c ****     return RC_SUCCESS;
 450              		.loc 1 265 0
 451 0140 0020     		movs	r0, #0
 452              	.LBB10:
 234:source\asw/statemachine.c ****                     break;
 453              		.loc 1 234 0
 454 0142 BDE8F88F 		pop	{r3, r4, r5, r6, r7, r8, r9, r10, fp, pc}
 455              	.LVL62:
 456              	.L41:
 236:source\asw/statemachine.c ****                     break;
 457              		.loc 1 236 0
 458 0146 1E48     		ldr	r0, .L54+8
 459 0148 FFF7FEFF 		bl	UART_LOG_PutString
 460              	.LVL63:
ARM GAS  C:\Users\aditi\AppData\Local\Temp\ccXyOxhM.s 			page 14


 461              	.LBE10:
 462              		.loc 1 265 0
 463 014c 0020     		movs	r0, #0
 464              	.LBB11:
 237:source\asw/statemachine.c ****                     case STATE_CLOCK_C_ISEDITINGMINUTES:
 465              		.loc 1 237 0
 466 014e BDE8F88F 		pop	{r3, r4, r5, r6, r7, r8, r9, r10, fp, pc}
 467              	.LVL64:
 468              	.L42:
 239:source\asw/statemachine.c ****                     break;
 469              		.loc 1 239 0
 470 0152 1C48     		ldr	r0, .L54+12
 471 0154 FFF7FEFF 		bl	UART_LOG_PutString
 472              	.LVL65:
 473              	.LBE11:
 474              		.loc 1 265 0
 475 0158 0020     		movs	r0, #0
 476              	.LBB12:
 240:source\asw/statemachine.c ****                     case STATE_CLOCK_W_ISDISPLAYING:
 477              		.loc 1 240 0
 478 015a BDE8F88F 		pop	{r3, r4, r5, r6, r7, r8, r9, r10, fp, pc}
 479              	.LVL66:
 480              	.L43:
 242:source\asw/statemachine.c ****                     break;
 481              		.loc 1 242 0
 482 015e 1A48     		ldr	r0, .L54+16
 483 0160 FFF7FEFF 		bl	UART_LOG_PutString
 484              	.LVL67:
 485              	.LBE12:
 486              		.loc 1 265 0
 487 0164 0020     		movs	r0, #0
 488              	.LBB13:
 243:source\asw/statemachine.c ****                     case STATE_CLOCK_W_ISEDITING:
 489              		.loc 1 243 0
 490 0166 BDE8F88F 		pop	{r3, r4, r5, r6, r7, r8, r9, r10, fp, pc}
 491              	.LVL68:
 492              	.L44:
 245:source\asw/statemachine.c ****                     break;
 493              		.loc 1 245 0
 494 016a 1848     		ldr	r0, .L54+20
 495 016c FFF7FEFF 		bl	UART_LOG_PutString
 496              	.LVL69:
 497              	.LBE13:
 498              		.loc 1 265 0
 499 0170 0020     		movs	r0, #0
 500              	.LBB14:
 246:source\asw/statemachine.c ****                     case STATE_CLOCK_W_ISAUTOINCREMENT:
 501              		.loc 1 246 0
 502 0172 BDE8F88F 		pop	{r3, r4, r5, r6, r7, r8, r9, r10, fp, pc}
 503              	.LVL70:
 504              	.L45:
 248:source\asw/statemachine.c ****                     break;
 505              		.loc 1 248 0
 506 0176 1648     		ldr	r0, .L54+24
 507 0178 FFF7FEFF 		bl	UART_LOG_PutString
 508              	.LVL71:
 509              	.LBE14:
ARM GAS  C:\Users\aditi\AppData\Local\Temp\ccXyOxhM.s 			page 15


 510              		.loc 1 265 0
 511 017c 0020     		movs	r0, #0
 512              	.LBB15:
 249:source\asw/statemachine.c ****                     default:
 513              		.loc 1 249 0
 514 017e BDE8F88F 		pop	{r3, r4, r5, r6, r7, r8, r9, r10, fp, pc}
 515              	.LVL72:
 516              	.L38:
 251:source\asw/statemachine.c ****                     break;
 517              		.loc 1 251 0
 518 0182 1448     		ldr	r0, .L54+28
 519 0184 FFF7FEFF 		bl	UART_LOG_PutString
 520              	.LVL73:
 521              	.LBE15:
 522              		.loc 1 265 0
 523 0188 0020     		movs	r0, #0
 524              	.LBB16:
 252:source\asw/statemachine.c ****                 }
 525              		.loc 1 252 0
 526 018a BDE8F88F 		pop	{r3, r4, r5, r6, r7, r8, r9, r10, fp, pc}
 527              	.LVL74:
 528              	.L27:
 186:source\asw/statemachine.c ****     {
 529              		.loc 1 186 0 discriminator 2
 530 018e 0134     		adds	r4, r4, #1
 531              	.LVL75:
 532 0190 A4B2     		uxth	r4, r4
 533              	.LVL76:
 534              	.L26:
 186:source\asw/statemachine.c ****     {
 535              		.loc 1 186 0 is_stmt 0 discriminator 1
 536 0192 A642     		cmp	r6, r4
 537 0194 3FF67FAF 		bhi	.L46
 538              	.LBE16:
 539              		.loc 1 265 0 is_stmt 1
 540 0198 0020     		movs	r0, #0
 541              	.LBB17:
 542 019a BDE8F88F 		pop	{r3, r4, r5, r6, r7, r8, r9, r10, fp, pc}
 543              	.LVL77:
 544              	.L47:
 545              	.LBE17:
 168:source\asw/statemachine.c ****     }
 546              		.loc 1 168 0
 547 019e 6FF01300 		mvn	r0, #19
 548              	.LVL78:
 549 01a2 BDE8F88F 		pop	{r3, r4, r5, r6, r7, r8, r9, r10, fp, pc}
 550              	.LVL79:
 551              	.L49:
 182:source\asw/statemachine.c ****     }
 552              		.loc 1 182 0
 553 01a6 6FF01600 		mvn	r0, #22
 554 01aa BDE8F88F 		pop	{r3, r4, r5, r6, r7, r8, r9, r10, fp, pc}
 555              	.LVL80:
 556              	.L50:
 557 01ae 6FF01600 		mvn	r0, #22
 266:source\asw/statemachine.c **** }
 558              		.loc 1 266 0
ARM GAS  C:\Users\aditi\AppData\Local\Temp\ccXyOxhM.s 			page 16


 559 01b2 BDE8F88F 		pop	{r3, r4, r5, r6, r7, r8, r9, r10, fp, pc}
 560              	.LVL81:
 561              	.L55:
 562 01b6 00BF     		.align	2
 563              	.L54:
 564 01b8 00000000 		.word	.LC0
 565 01bc 10000000 		.word	.LC1
 566 01c0 20000000 		.word	.LC2
 567 01c4 34000000 		.word	.LC3
 568 01c8 48000000 		.word	.LC4
 569 01cc 58000000 		.word	.LC5
 570 01d0 68000000 		.word	.LC6
 571 01d4 7C000000 		.word	.LC7
 572 01d8 8C000000 		.word	.LC8
 573              		.cfi_endproc
 574              	.LFE112:
 575              		.size	STATE_processEvent, .-STATE_processEvent
 576              		.section	.rodata.str1.4,"aMS",%progbits,1
 577              		.align	2
 578              	.LC0:
 579 0000 43757272 		.ascii	"Current State: \000"
 579      656E7420 
 579      53746174 
 579      653A2000 
 580              	.LC1:
 581 0010 435F4953 		.ascii	"C_ISDISPLAYING\012\000"
 581      44495350 
 581      4C415949 
 581      4E470A00 
 582              	.LC2:
 583 0020 435F4953 		.ascii	"C_ISEDITINGHOURS\012\000"
 583      45444954 
 583      494E4748 
 583      4F555253 
 583      0A00
 584 0032 0000     		.space	2
 585              	.LC3:
 586 0034 435F4953 		.ascii	"C_ISEDITINGMINUTES\012\000"
 586      45444954 
 586      494E474D 
 586      494E5554 
 586      45530A00 
 587              	.LC4:
 588 0048 575F4953 		.ascii	"W_ISDISPLAYING\012\000"
 588      44495350 
 588      4C415949 
 588      4E470A00 
 589              	.LC5:
 590 0058 575F4953 		.ascii	"W_ISEDITING\012\000"
 590      45444954 
 590      494E470A 
 590      00
 591 0065 000000   		.space	3
 592              	.LC6:
 593 0068 575F4953 		.ascii	"W_ISAUTOINCREMENT\012\000"
 593      4155544F 
 593      494E4352 
ARM GAS  C:\Users\aditi\AppData\Local\Temp\ccXyOxhM.s 			page 17


 593      454D454E 
 593      540A00
 594 007b 00       		.space	1
 595              	.LC7:
 596 007c 44656661 		.ascii	"Default case\012\000"
 596      756C7420 
 596      63617365 
 596      0A00
 597 008a 0000     		.space	2
 598              	.LC8:
 599 008c 546F2053 		.ascii	"To State: \000"
 599      74617465 
 599      3A2000
 600              		.text
 601              	.Letext0:
 602              		.file 2 ".\\source\\bsw/global.h"
 603              		.file 3 "c:\\program files (x86)\\cypress\\psoc creator\\4.4\\psoc creator\\import\\gnu\\arm\\5.4.
 604              		.file 4 "c:\\program files (x86)\\cypress\\psoc creator\\4.4\\psoc creator\\import\\gnu\\arm\\5.4.
 605              		.file 5 "Generated_Source\\PSoC5/ErikaOS_common_ee_types.inc"
 606              		.file 6 "Generated_Source\\PSoC5/ErikaOS_cortex_mx_ee_cpu.inc"
 607              		.file 7 ".\\source\\rte/sc_event_type.h"
 608              		.file 8 "source\\asw\\swc_clock.h"
 609              		.file 9 "source\\asw\\statemachine.h"
 610              		.file 10 "Generated_Source\\PSoC5/ErikaOS_ee_oo_intfunc.inc"
 611              		.file 11 "Generated_Source\\PSoC5/ErikaOS_cortex_mx_ee_context.inc"
 612              		.file 12 "Generated_Source\\PSoC5/ErikaOS_common_ee_primitives.inc"
 613              		.file 13 "Generated_Source\\PSoC5/core_cm3.h"
 614              		.file 14 "Generated_Source\\PSoC5/UART_LOG.h"