ARM GAS  C:\Users\aditi\AppData\Local\Temp\ccxJli9U.s 			page 1


   1              		.syntax unified
   2              		.cpu cortex-m3
   3              		.fpu softvfp
   4              		.eabi_attribute 20, 1
   5              		.eabi_attribute 21, 1
   6              		.eabi_attribute 23, 3
   7              		.eabi_attribute 24, 1
   8              		.eabi_attribute 25, 1
   9              		.eabi_attribute 26, 1
  10              		.eabi_attribute 30, 1
  11              		.eabi_attribute 34, 1
  12              		.eabi_attribute 18, 4
  13              		.thumb
  14              		.syntax unified
  15              		.file	"swc_clock.c"
  16              		.text
  17              	.Ltext0:
  18              		.cfi_sections	.debug_frame
  19              		.section	.text.CLOCK__increment1Minute,"ax",%progbits
  20              		.align	2
  21              		.thumb
  22              		.thumb_func
  23              		.type	CLOCK__increment1Minute, %function
  24              	CLOCK__increment1Minute:
  25              	.LFB147:
  26              		.file 1 "source\\asw\\swc_clock.c"
   1:source\asw/swc_clock.c **** 
   2:source\asw/swc_clock.c **** 
   3:source\asw/swc_clock.c **** /*
   4:source\asw/swc_clock.c ****  * Filename: swc_clock.c
   5:source\asw/swc_clock.c ****  *
   6:source\asw/swc_clock.c ****  * Author: Autogenerated by H-DA RTE Generator, (c) Prof. Fromm
   7:source\asw/swc_clock.c ****  */
   8:source\asw/swc_clock.c **** 
   9:source\asw/swc_clock.c **** #include "project.h"
  10:source\asw/swc_clock.c **** #include "global.h"
  11:source\asw/swc_clock.c **** #include "rte.h"
  12:source\asw/swc_clock.c **** #include "rte_types.h"
  13:source\asw/swc_clock.c **** #include "swc_clock.h"
  14:source\asw/swc_clock.c **** 
  15:source\asw/swc_clock.c **** /* USER CODE START SWC_CLOCK_INCLUDE */
  16:source\asw/swc_clock.c **** #include "sc_event_type.h"
  17:source\asw/swc_clock.c **** #include "sc_clock_type.h"
  18:source\asw/swc_clock.c **** #include "statemachine.h"
  19:source\asw/swc_clock.c **** #include "tft.h"
  20:source\asw/swc_clock.c **** /* USER CODE END SWC_CLOCK_INCLUDE */
  21:source\asw/swc_clock.c **** 
  22:source\asw/swc_clock.c **** 
  23:source\asw/swc_clock.c **** #include "sp_common.h"
  24:source\asw/swc_clock.c **** 
  25:source\asw/swc_clock.c **** /* USER CODE START SWC_CLOCK_USERDEFINITIONS */
  26:source\asw/swc_clock.c **** static uint8_t interruptFlag = 0;
  27:source\asw/swc_clock.c **** 
  28:source\asw/swc_clock.c **** #define HOURFORMAT_12_MAX          12
  29:source\asw/swc_clock.c **** #define HOURFORMAT_24_MAX          24
  30:source\asw/swc_clock.c **** 
  31:source\asw/swc_clock.c **** #define MINUTES_MAX                60
ARM GAS  C:\Users\aditi\AppData\Local\Temp\ccxJli9U.s 			page 2


  32:source\asw/swc_clock.c **** /* USER CODE END SWC_CLOCK_USERDEFINITIONS */
  33:source\asw/swc_clock.c **** 
  34:source\asw/swc_clock.c **** /** --------------------------------------------- Actions -----------------------------------------
  35:source\asw/swc_clock.c **** 
  36:source\asw/swc_clock.c **** /**
  37:source\asw/swc_clock.c ****  * Will dispatch KEYLEFT to Hours widget
  38:source\asw/swc_clock.c ****  */
  39:source\asw/swc_clock.c **** static void CLOCK__dispatch_KL_Hours();
  40:source\asw/swc_clock.c **** 
  41:source\asw/swc_clock.c **** /**
  42:source\asw/swc_clock.c ****  * Will increment the clock after one minute
  43:source\asw/swc_clock.c ****  */
  44:source\asw/swc_clock.c **** static void CLOCK__increment1Minute();
  45:source\asw/swc_clock.c **** 
  46:source\asw/swc_clock.c **** /**
  47:source\asw/swc_clock.c ****  * Will dispatch KEYLEFT to both Hours and Minutes widget
  48:source\asw/swc_clock.c ****  */
  49:source\asw/swc_clock.c **** static void CLOCK__dispatch_KL_HoursMin();
  50:source\asw/swc_clock.c **** 
  51:source\asw/swc_clock.c **** /**
  52:source\asw/swc_clock.c ****  * Will dispatch KEYRIGHT to Hours widget
  53:source\asw/swc_clock.c ****  */
  54:source\asw/swc_clock.c **** static void CLOCK__dispatch_KR_Hours();
  55:source\asw/swc_clock.c **** 
  56:source\asw/swc_clock.c **** /**
  57:source\asw/swc_clock.c ****  * Will dispatch KEYRIGHTLONGPRESS to Hours widget
  58:source\asw/swc_clock.c ****  */
  59:source\asw/swc_clock.c **** static void CLOCK__dispatch_KRLP_Hours();
  60:source\asw/swc_clock.c **** 
  61:source\asw/swc_clock.c **** /**
  62:source\asw/swc_clock.c ****  * Will dispatch 250MS event to Hours widget
  63:source\asw/swc_clock.c ****  */
  64:source\asw/swc_clock.c **** static void CLOCK__dispatch_250MS_Hours();
  65:source\asw/swc_clock.c **** 
  66:source\asw/swc_clock.c **** /**
  67:source\asw/swc_clock.c ****  * Will dispatch KEYLEFT to Minutes widget
  68:source\asw/swc_clock.c ****  */
  69:source\asw/swc_clock.c **** static void CLOCK__dispatch_KL_Min();
  70:source\asw/swc_clock.c **** 
  71:source\asw/swc_clock.c **** /**
  72:source\asw/swc_clock.c ****  * Will dispatch KEYRIGHT to Minutes widget
  73:source\asw/swc_clock.c ****  */
  74:source\asw/swc_clock.c **** static void CLOCK__dispatch_KR_Min();
  75:source\asw/swc_clock.c **** 
  76:source\asw/swc_clock.c **** /**
  77:source\asw/swc_clock.c ****  * Will dispatch KEYRIGHTLONGPRESS to Minutes widget
  78:source\asw/swc_clock.c ****  */
  79:source\asw/swc_clock.c **** static void CLOCK__dispatch_KRLP_Min();
  80:source\asw/swc_clock.c **** 
  81:source\asw/swc_clock.c **** /**
  82:source\asw/swc_clock.c ****  * Will dispatch 250MS event to Minutes widget
  83:source\asw/swc_clock.c ****  */
  84:source\asw/swc_clock.c **** static void CLOCK__dispatch_250MS_Min();
  85:source\asw/swc_clock.c **** 
  86:source\asw/swc_clock.c **** /**
  87:source\asw/swc_clock.c ****  * Sets the required display configuration for Edit mode of the clock
  88:source\asw/swc_clock.c ****  */
ARM GAS  C:\Users\aditi\AppData\Local\Temp\ccxJli9U.s 			page 3


  89:source\asw/swc_clock.c **** static void CLOCK__setEditFonts();
  90:source\asw/swc_clock.c **** 
  91:source\asw/swc_clock.c **** /**
  92:source\asw/swc_clock.c ****  * Increments the widget time in edit mode
  93:source\asw/swc_clock.c ****  */
  94:source\asw/swc_clock.c **** static void CLOCK__incrementWidget();
  95:source\asw/swc_clock.c **** 
  96:source\asw/swc_clock.c **** /**
  97:source\asw/swc_clock.c ****  * Sets the required display configuration for Display mode of the clock
  98:source\asw/swc_clock.c ****  */
  99:source\asw/swc_clock.c **** static void CLOCK__setDisplayFonts();
 100:source\asw/swc_clock.c **** 
 101:source\asw/swc_clock.c **** 
 102:source\asw/swc_clock.c **** /**
 103:source\asw/swc_clock.c ****  * General Dispatcher, saving the states
 104:source\asw/swc_clock.c ****  */
 105:source\asw/swc_clock.c **** static void CLOCK__dispatch_wrapper(STATE_event_t ev, CLOCK_active_widget_t widget);
 106:source\asw/swc_clock.c **** 
 107:source\asw/swc_clock.c **** /** -------------------------------------- Container Transitions ----------------------------------
 108:source\asw/swc_clock.c **** 
 109:source\asw/swc_clock.c **** /** ==== IS_DISPLAYING ==== **/
 110:source\asw/swc_clock.c **** static const STATE_stateInnerTransitionTable_t STATE_CLOCK_C_IS_DISPLAYING_Transitions = {
 111:source\asw/swc_clock.c **** /*      Event                        ToState                        Guard              Action */
 112:source\asw/swc_clock.c ****     { EVENT(EV_KEYLEFT),    STATE(STATE_CLOCK_C_ISEDITINGHOURS),       0,         CLOCK__dispatch_K
 113:source\asw/swc_clock.c ****     { EVENT(EV_1MIN),       STATE(STATE_CLOCK_C_ISDISPLAYING),         0,         CLOCK__increment1
 114:source\asw/swc_clock.c **** };
 115:source\asw/swc_clock.c **** 
 116:source\asw/swc_clock.c **** /** ==== IS_EDITINGHOURS ==== **/
 117:source\asw/swc_clock.c **** static const STATE_stateInnerTransitionTable_t STATE_CLOCK_C_IS_EDITINGHOURS_Transitions = {
 118:source\asw/swc_clock.c **** /*      Event                               ToState                            Guard              A
 119:source\asw/swc_clock.c ****     { EVENT(EV_KEYLEFT),            STATE(STATE_CLOCK_C_ISEDITINGMINUTES),       0,          CLOCK_
 120:source\asw/swc_clock.c ****     { EVENT(EV_KEYRIGHT),           STATE(STATE_CLOCK_C_ISEDITINGHOURS),         0,          CLOCK_
 121:source\asw/swc_clock.c ****     { EVENT(EV_KEYRIGHTLONGPRESS),  STATE(STATE_CLOCK_C_ISEDITINGHOURS),         0,          CLOCK_
 122:source\asw/swc_clock.c ****     { EVENT(EV_250MS),              STATE(STATE_CLOCK_C_ISEDITINGHOURS),         0,          CLOCK_
 123:source\asw/swc_clock.c **** };
 124:source\asw/swc_clock.c **** 
 125:source\asw/swc_clock.c **** /** ==== IS_EDITINGMINUTES ==== **/
 126:source\asw/swc_clock.c **** static const STATE_stateInnerTransitionTable_t STATE_CLOCK_C_IS_EDITINGMINUTES_Transitions = {
 127:source\asw/swc_clock.c **** /*      Event                               ToState                            Guard              A
 128:source\asw/swc_clock.c ****     { EVENT(EV_KEYLEFT),            STATE(STATE_CLOCK_C_ISDISPLAYING),           0,          CLOCK_
 129:source\asw/swc_clock.c ****     { EVENT(EV_KEYRIGHT),           STATE(STATE_CLOCK_C_ISEDITINGMINUTES),       0,          CLOCK_
 130:source\asw/swc_clock.c ****     { EVENT(EV_KEYRIGHTLONGPRESS),  STATE(STATE_CLOCK_C_ISEDITINGMINUTES),       0,          CLOCK_
 131:source\asw/swc_clock.c ****     { EVENT(EV_250MS),              STATE(STATE_CLOCK_C_ISEDITINGMINUTES),       0,          CLOCK_
 132:source\asw/swc_clock.c **** };    
 133:source\asw/swc_clock.c **** 
 134:source\asw/swc_clock.c **** const STATE_stateOuterTransitionTable_t CLOCK_Container_Transitions = {
 135:source\asw/swc_clock.c **** /*           fromState                          Pointer to table                                   
 136:source\asw/swc_clock.c ****     { STATE(STATE_CLOCK_C_ISDISPLAYING),       &STATE_CLOCK_C_IS_DISPLAYING_Transitions,           
 137:source\asw/swc_clock.c ****     { STATE(STATE_CLOCK_C_ISEDITINGHOURS),     &STATE_CLOCK_C_IS_EDITINGHOURS_Transitions,         
 138:source\asw/swc_clock.c ****     { STATE(STATE_CLOCK_C_ISEDITINGMINUTES),   &STATE_CLOCK_C_IS_EDITINGMINUTES_Transitions,       
 139:source\asw/swc_clock.c **** };
 140:source\asw/swc_clock.c **** 
 141:source\asw/swc_clock.c **** const uint16_t CLOCK_Container_Transitions_Size = sizeof(CLOCK_Container_Transitions)/sizeof(STATE_
 142:source\asw/swc_clock.c **** 
 143:source\asw/swc_clock.c **** /** -------------------------------------- Widget Transitions -------------------------------------
 144:source\asw/swc_clock.c **** 
 145:source\asw/swc_clock.c **** /** ====== IS_DISPLAYING ========= **/
ARM GAS  C:\Users\aditi\AppData\Local\Temp\ccxJli9U.s 			page 4


 146:source\asw/swc_clock.c **** const STATE_stateInnerTransitionTable_t STATE_CLOCK_W_IS_DISPLAYING_Transitions = {
 147:source\asw/swc_clock.c **** /*       Event                        ToState                     Guard           Action */
 148:source\asw/swc_clock.c ****     { EVENT(EV_KEYLEFT),    STATE(STATE_CLOCK_W_ISEDITING),        0,      CLOCK__setEditFonts},
 149:source\asw/swc_clock.c **** };
 150:source\asw/swc_clock.c **** 
 151:source\asw/swc_clock.c **** /** ===== IS_EDITING ====== **/
 152:source\asw/swc_clock.c **** const STATE_stateInnerTransitionTable_t STATE_CLOCK_W_IS_EDITING_Transitions = {
 153:source\asw/swc_clock.c **** /*          Event                        ToState                     Guard           Action */
 154:source\asw/swc_clock.c ****     { EVENT(EV_KEYRIGHT),           STATE(STATE_CLOCK_W_ISEDITING),         0,      CLOCK__incremen
 155:source\asw/swc_clock.c ****     { EVENT(EV_KEYRIGHTLONGPRESS),  STATE(STATE_CLOCK_W_ISAUTOINCREMENT),   0,      0},
 156:source\asw/swc_clock.c ****     { EVENT(EV_KEYLEFT),            STATE(STATE_CLOCK_W_ISDISPLAYING),      0,      CLOCK__setDispl
 157:source\asw/swc_clock.c **** };
 158:source\asw/swc_clock.c **** 
 159:source\asw/swc_clock.c **** /** ===== IS_AUTOINCREMENT ====== **/
 160:source\asw/swc_clock.c **** const STATE_stateInnerTransitionTable_t STATE_CLOCK_W_IS_AUTOINCREMENT_Transitions = {
 161:source\asw/swc_clock.c **** /*          Event                        ToState                     Guard           Action */
 162:source\asw/swc_clock.c ****     { EVENT(EV_KEYRIGHT),           STATE(STATE_CLOCK_W_ISEDITING),         0,      CLOCK__incremen
 163:source\asw/swc_clock.c ****     { EVENT(EV_250MS),              STATE(STATE_CLOCK_W_ISAUTOINCREMENT),   0,      CLOCK__incremen
 164:source\asw/swc_clock.c **** };
 165:source\asw/swc_clock.c **** 
 166:source\asw/swc_clock.c **** const STATE_stateOuterTransitionTable_t CLOCK_Widget_Transitions = {
 167:source\asw/swc_clock.c **** /*           fromState                          Pointer to table                                Siz
 168:source\asw/swc_clock.c ****     { STATE(STATE_CLOCK_W_ISDISPLAYING),       &STATE_CLOCK_W_IS_DISPLAYING_Transitions,        siz
 169:source\asw/swc_clock.c ****     { STATE(STATE_CLOCK_W_ISEDITING),          &STATE_CLOCK_W_IS_EDITING_Transitions,           siz
 170:source\asw/swc_clock.c ****     { STATE(STATE_CLOCK_W_ISAUTOINCREMENT),    &STATE_CLOCK_W_IS_AUTOINCREMENT_Transitions,     siz
 171:source\asw/swc_clock.c **** };
 172:source\asw/swc_clock.c **** 
 173:source\asw/swc_clock.c **** const uint16_t CLOCK_Widget_Transitions_Size = sizeof(CLOCK_Widget_Transitions)/sizeof(STATE_stateO
 174:source\asw/swc_clock.c **** 
 175:source\asw/swc_clock.c **** 
 176:source\asw/swc_clock.c **** /*
 177:source\asw/swc_clock.c **** * component: swc_clock
 178:source\asw/swc_clock.c **** * cycletime: 50
 179:source\asw/swc_clock.c **** * description: Runnable to process incoming events
 180:source\asw/swc_clock.c **** * events: 
 181:source\asw/swc_clock.c **** * name: CLOCK_input_run
 182:source\asw/swc_clock.c **** * shortname: input
 183:source\asw/swc_clock.c **** * signalIN: 
 184:source\asw/swc_clock.c **** * signalOUT: so_event
 185:source\asw/swc_clock.c **** * task: tsk_cyclic
 186:source\asw/swc_clock.c **** */
 187:source\asw/swc_clock.c **** void CLOCK_input_run(RTE_event ev){
 188:source\asw/swc_clock.c **** 	
 189:source\asw/swc_clock.c **** 	/* USER CODE START CLOCK_input_run */
 190:source\asw/swc_clock.c ****     static uint16_t runnableCount = 0;
 191:source\asw/swc_clock.c ****     
 192:source\asw/swc_clock.c ****     SC_EVENT_data_t eventSignal;
 193:source\asw/swc_clock.c ****     
 194:source\asw/swc_clock.c ****     // Increment the counter every time the runnable is scheduled (i.e., 50ms)
 195:source\asw/swc_clock.c ****     runnableCount += 1;
 196:source\asw/swc_clock.c ****     /** The current input runnable is being called every 50ms.
 197:source\asw/swc_clock.c ****       * In order to set an event every 250ms, a local static
 198:source\asw/swc_clock.c ****       * variable is used to count up to 5
 199:source\asw/swc_clock.c ****       */
 200:source\asw/swc_clock.c ****     if(runnableCount % 5 == 0)
 201:source\asw/swc_clock.c ****     {
 202:source\asw/swc_clock.c ****         eventSignal.m_ev = EV_250MS;
ARM GAS  C:\Users\aditi\AppData\Local\Temp\ccxJli9U.s 			page 5


 203:source\asw/swc_clock.c ****         //UART_LOG_PutString("Setting 250MS event\n");
 204:source\asw/swc_clock.c ****         RTE_SC_EVENT_set (&SO_EVENT_signal, eventSignal);
 205:source\asw/swc_clock.c ****     }
 206:source\asw/swc_clock.c ****     
 207:source\asw/swc_clock.c ****     /** To set EV_1MIN for every minute, the counter is incremented every 50ms.
 208:source\asw/swc_clock.c ****       * 1200ms x 50ms = 60000ms = 60sec = 1min
 209:source\asw/swc_clock.c ****       * The counter value is reset to zero after a minute to prevent overflow of the variable
 210:source\asw/swc_clock.c ****       */
 211:source\asw/swc_clock.c ****     if(runnableCount % 1200 == 0)
 212:source\asw/swc_clock.c ****     {
 213:source\asw/swc_clock.c ****         runnableCount = 0;
 214:source\asw/swc_clock.c ****         eventSignal.m_ev = EV_1MIN;
 215:source\asw/swc_clock.c ****         UART_LOG_PutString("Setting 1 minute event\n");
 216:source\asw/swc_clock.c ****         RTE_SC_EVENT_set (&SO_EVENT_signal, eventSignal);
 217:source\asw/swc_clock.c ****     }     
 218:source\asw/swc_clock.c ****     
 219:source\asw/swc_clock.c ****     //Check the long press of the button and set the event
 220:source\asw/swc_clock.c ****     if((1 == interruptFlag) && (1 == Pin_ButtonRight_Read()))
 221:source\asw/swc_clock.c ****     {
 222:source\asw/swc_clock.c ****         static uint8_t countVar = 0;
 223:source\asw/swc_clock.c ****         countVar += 1;
 224:source\asw/swc_clock.c ****         //Runnable called every 50ms, 50 x 20 = 1000ms = 1s
 225:source\asw/swc_clock.c ****         if(countVar % 20 == 0)
 226:source\asw/swc_clock.c ****         {
 227:source\asw/swc_clock.c ****             eventSignal.m_ev = EV_KEYRIGHTLONGPRESS;
 228:source\asw/swc_clock.c ****             interruptFlag = 0;
 229:source\asw/swc_clock.c ****             RTE_SC_EVENT_set (&SO_EVENT_signal, eventSignal);
 230:source\asw/swc_clock.c ****         }
 231:source\asw/swc_clock.c ****     }
 232:source\asw/swc_clock.c ****     
 233:source\asw/swc_clock.c ****     // Method 2 to check for long press of a button
 234:source\asw/swc_clock.c **** //    if(interruptFlag == 4)
 235:source\asw/swc_clock.c **** //    {
 236:source\asw/swc_clock.c **** //        eventSignal.m_ev = EV_KEYRIGHTLONGPRESS;
 237:source\asw/swc_clock.c **** //        interruptFlag = 0;
 238:source\asw/swc_clock.c **** //        RTE_SC_EVENT_set (&SO_EVENT_signal, eventSignal);
 239:source\asw/swc_clock.c **** //    }
 240:source\asw/swc_clock.c **** 
 241:source\asw/swc_clock.c ****     /* USER CODE END CLOCK_input_run */
 242:source\asw/swc_clock.c **** }
 243:source\asw/swc_clock.c **** 
 244:source\asw/swc_clock.c **** /*
 245:source\asw/swc_clock.c **** * component: swc_clock
 246:source\asw/swc_clock.c **** * cycletime: 0
 247:source\asw/swc_clock.c **** * description: Control runnable that runs the State Machine
 248:source\asw/swc_clock.c **** * events: ev_event_onData
 249:source\asw/swc_clock.c **** * name: CLOCK_control_run
 250:source\asw/swc_clock.c **** * shortname: control
 251:source\asw/swc_clock.c **** * signalIN: so_event
 252:source\asw/swc_clock.c **** * signalOUT: so_clock
 253:source\asw/swc_clock.c **** * task: tsk_event
 254:source\asw/swc_clock.c **** */
 255:source\asw/swc_clock.c **** void CLOCK_control_run(RTE_event ev){
 256:source\asw/swc_clock.c **** 	
 257:source\asw/swc_clock.c **** 	/* USER CODE START CLOCK_control_run */
 258:source\asw/swc_clock.c ****     UART_LOG_PutString("In control runnable\n");
 259:source\asw/swc_clock.c ****     
ARM GAS  C:\Users\aditi\AppData\Local\Temp\ccxJli9U.s 			page 6


 260:source\asw/swc_clock.c ****     // Get the triggered event from the event component
 261:source\asw/swc_clock.c ****     SC_EVENT_data_t eventSignal_t = RTE_SC_EVENT_get(&SO_EVENT_signal);
 262:source\asw/swc_clock.c ****     
 263:source\asw/swc_clock.c ****     //Get initial conditions required for the state machine
 264:source\asw/swc_clock.c ****     SC_CLOCK_data_t clockData     = RTE_SC_CLOCK_get(&SO_CLOCK_signal);
 265:source\asw/swc_clock.c ****     
 266:source\asw/swc_clock.c ****     //Call the state machine
 267:source\asw/swc_clock.c ****     RC_t result = STATE_processEvent(CLOCK_Container_Transitions, CLOCK_Container_Transitions_Size,
 268:source\asw/swc_clock.c ****                                     eventSignal_t.m_ev, &clockData.m_containerState);
 269:source\asw/swc_clock.c ****     
 270:source\asw/swc_clock.c ****     UART_LOG_PutString("Completed State Machine processing\n");
 271:source\asw/swc_clock.c ****     
 272:source\asw/swc_clock.c ****     /** The values of SO_CLOCK_signal set by other functions was being 
 273:source\asw/swc_clock.c ****       * overwritten when RTE_SC_CLOCK_set() API was called. This was causing
 274:source\asw/swc_clock.c ****       * state machine to update incorrectly and the values of hour and minute
 275:source\asw/swc_clock.c ****       * widgets were not being retained.
 276:source\asw/swc_clock.c ****       * !! Dirty bug fix to avoid the issue !!
 277:source\asw/swc_clock.c ****       */
 278:source\asw/swc_clock.c ****     SO_CLOCK_signal.value.m_containerState = clockData.m_containerState;
 279:source\asw/swc_clock.c ****     //RTE_SC_CLOCK_set(&SO_CLOCK_signal, clockData);
 280:source\asw/swc_clock.c **** 
 281:source\asw/swc_clock.c ****     /* USER CODE END CLOCK_control_run */
 282:source\asw/swc_clock.c **** }
 283:source\asw/swc_clock.c **** 
 284:source\asw/swc_clock.c **** /*
 285:source\asw/swc_clock.c **** * component: swc_clock
 286:source\asw/swc_clock.c **** * cycletime: 250
 287:source\asw/swc_clock.c **** * description: Runnable for display driver  
 288:source\asw/swc_clock.c **** * events: 
 289:source\asw/swc_clock.c **** * name: CLOCK_display_run
 290:source\asw/swc_clock.c **** * shortname: display
 291:source\asw/swc_clock.c **** * signalIN: so_clock
 292:source\asw/swc_clock.c **** * signalOUT: so_display
 293:source\asw/swc_clock.c **** * task: tsk_cyclic
 294:source\asw/swc_clock.c **** */
 295:source\asw/swc_clock.c **** void CLOCK_display_run(RTE_event ev){
 296:source\asw/swc_clock.c **** 	
 297:source\asw/swc_clock.c **** 	/* USER CODE START CLOCK_display_run */
 298:source\asw/swc_clock.c ****     
 299:source\asw/swc_clock.c ****     //Get the clock signal data from clock component into a local variable
 300:source\asw/swc_clock.c ****     SC_CLOCK_data_t clock = RTE_SC_CLOCK_get(&SO_CLOCK_signal);
 301:source\asw/swc_clock.c ****     
 302:source\asw/swc_clock.c ****     //Local variable to set the parameters of display component
 303:source\asw/swc_clock.c ****     SC_DISPLAY_data_t dispTFT;
 304:source\asw/swc_clock.c **** 
 305:source\asw/swc_clock.c ****     //Extract the units and tens position from the clock value for minutes and hours
 306:source\asw/swc_clock.c ****     dispTFT.minutes.unitValue = (clock.m_minutes.m_value % 10);
 307:source\asw/swc_clock.c ****     dispTFT.minutes.tensValue = (clock.m_minutes.m_value / 10);
 308:source\asw/swc_clock.c ****     
 309:source\asw/swc_clock.c ****     dispTFT.hours.unitValue = (clock.m_hours.m_value % 10);
 310:source\asw/swc_clock.c ****     dispTFT.hours.tensValue = (clock.m_hours.m_value / 10);
 311:source\asw/swc_clock.c ****     
 312:source\asw/swc_clock.c ****     //Set the values of display component and push them to the TFT driver
 313:source\asw/swc_clock.c ****     RTE_SC_DISPLAY_set(&SO_DISPLAY_signal,dispTFT);
 314:source\asw/swc_clock.c ****     RTE_SC_DISPLAY_pushPort(&SO_DISPLAY_signal);
 315:source\asw/swc_clock.c **** 
 316:source\asw/swc_clock.c ****     //UART_LOG_PutString("In display runnable\n");
ARM GAS  C:\Users\aditi\AppData\Local\Temp\ccxJli9U.s 			page 7


 317:source\asw/swc_clock.c ****     /* USER CODE END CLOCK_display_run */
 318:source\asw/swc_clock.c **** }
 319:source\asw/swc_clock.c **** 
 320:source\asw/swc_clock.c **** /* USER CODE START SWC_CLOCK_FUNCTIONS */
 321:source\asw/swc_clock.c **** 
 322:source\asw/swc_clock.c **** static void CLOCK__dispatch_wrapper(STATE_event_t ev, CLOCK_active_widget_t widget)
 323:source\asw/swc_clock.c **** {
 324:source\asw/swc_clock.c ****     //Read the state object (container)
 325:source\asw/swc_clock.c ****     SC_CLOCK_data_t clock = RTE_SC_CLOCK_get (&SO_CLOCK_signal);
 326:source\asw/swc_clock.c ****     
 327:source\asw/swc_clock.c ****     //Set the active widget to the hour widget
 328:source\asw/swc_clock.c ****     clock.m_activeWidget = widget;
 329:source\asw/swc_clock.c ****     
 330:source\asw/swc_clock.c ****     //Write the changed widget back to the clock object
 331:source\asw/swc_clock.c ****     RTE_SC_CLOCK_set (&SO_CLOCK_signal, clock);
 332:source\asw/swc_clock.c ****     
 333:source\asw/swc_clock.c ****     //And fire it to the container state machine
 334:source\asw/swc_clock.c ****     //The widget state machine will be called by the container actions
 335:source\asw/swc_clock.c ****     //We need a local copy of the widget state as the widget object is also changed by the widget a
 336:source\asw/swc_clock.c ****     if (CLOCK_HOURSWIDGET == widget)
 337:source\asw/swc_clock.c ****     {
 338:source\asw/swc_clock.c ****         UART_LOG_PutString("In dispatch function hours widget\n");
 339:source\asw/swc_clock.c ****         CLOCK_state_t localState = clock.m_hours.m_widgetState;
 340:source\asw/swc_clock.c ****         STATE_processEvent (CLOCK_Widget_Transitions, CLOCK_Widget_Transitions_Size, 0, 0, ev, &loc
 341:source\asw/swc_clock.c ****         
 342:source\asw/swc_clock.c ****         //Re-read the state object in order to get the changes by the child
 343:source\asw/swc_clock.c ****         clock = RTE_SC_CLOCK_get(&SO_CLOCK_signal);
 344:source\asw/swc_clock.c ****         clock.m_hours.m_widgetState = localState;
 345:source\asw/swc_clock.c ****                 
 346:source\asw/swc_clock.c ****         //Write the changed state back to the clock object
 347:source\asw/swc_clock.c ****         RTE_SC_CLOCK_set(&SO_CLOCK_signal, clock);
 348:source\asw/swc_clock.c ****     }
 349:source\asw/swc_clock.c ****     else if (CLOCK_MINUTESWIDGET == widget)
 350:source\asw/swc_clock.c ****     {
 351:source\asw/swc_clock.c ****         UART_LOG_PutString("In dispatch function minutes widget\n");
 352:source\asw/swc_clock.c ****         CLOCK_state_t localState = clock.m_minutes.m_widgetState;
 353:source\asw/swc_clock.c ****         STATE_processEvent (CLOCK_Widget_Transitions, CLOCK_Widget_Transitions_Size, 0, 0, ev, &loc
 354:source\asw/swc_clock.c ****         
 355:source\asw/swc_clock.c ****         //Re-read the state object in order to get the changes by the child
 356:source\asw/swc_clock.c ****         clock = RTE_SC_CLOCK_get(&SO_CLOCK_signal);
 357:source\asw/swc_clock.c ****         clock.m_minutes.m_widgetState = localState;
 358:source\asw/swc_clock.c ****         
 359:source\asw/swc_clock.c ****         //Write the changed state back to the clock object
 360:source\asw/swc_clock.c ****         RTE_SC_CLOCK_set(&SO_CLOCK_signal, clock);
 361:source\asw/swc_clock.c ****     }
 362:source\asw/swc_clock.c **** }
 363:source\asw/swc_clock.c **** 
 364:source\asw/swc_clock.c **** static void CLOCK__dispatch_KL_Hours()
 365:source\asw/swc_clock.c **** {
 366:source\asw/swc_clock.c ****     UART_LOG_PutString("In CLOCK__dispatch_KL_Hours function\n");
 367:source\asw/swc_clock.c ****     CLOCK__dispatch_wrapper(EV_KEYLEFT, CLOCK_HOURSWIDGET);
 368:source\asw/swc_clock.c **** }
 369:source\asw/swc_clock.c **** 
 370:source\asw/swc_clock.c **** static void CLOCK__dispatch_KL_Min()
 371:source\asw/swc_clock.c **** {
 372:source\asw/swc_clock.c ****     UART_LOG_PutString("In CLOCK__dispatch_KL_Min function\n");
 373:source\asw/swc_clock.c ****     CLOCK__dispatch_wrapper(EV_KEYLEFT, CLOCK_MINUTESWIDGET);
ARM GAS  C:\Users\aditi\AppData\Local\Temp\ccxJli9U.s 			page 8


 374:source\asw/swc_clock.c **** }
 375:source\asw/swc_clock.c **** 
 376:source\asw/swc_clock.c **** static void CLOCK__increment1Minute()
 377:source\asw/swc_clock.c **** {
  27              		.loc 1 377 0
  28              		.cfi_startproc
  29              		@ args = 0, pretend = 0, frame = 72
  30              		@ frame_needed = 0, uses_anonymous_args = 0
  31 0000 F0B5     		push	{r4, r5, r6, r7, lr}
  32              		.cfi_def_cfa_offset 20
  33              		.cfi_offset 4, -20
  34              		.cfi_offset 5, -16
  35              		.cfi_offset 6, -12
  36              		.cfi_offset 7, -8
  37              		.cfi_offset 14, -4
  38 0002 93B0     		sub	sp, sp, #76
  39              		.cfi_def_cfa_offset 96
 378:source\asw/swc_clock.c ****     UART_LOG_PutString("In increment 1 minute function\n");
  40              		.loc 1 378 0
  41 0004 2A48     		ldr	r0, .L10
  42 0006 FFF7FEFF 		bl	UART_LOG_PutString
  43              	.LVL0:
  44              	.LBB79:
  45              	.LBB80:
  46              		.file 2 ".\\source\\rte/sc_clock.h"
   1:.\source\rte/sc_clock.h **** 
   2:.\source\rte/sc_clock.h **** 
   3:.\source\rte/sc_clock.h **** /**
   4:.\source\rte/sc_clock.h **** *  file    SC_CLOCK_signal.h
   5:.\source\rte/sc_clock.h **** *
   6:.\source\rte/sc_clock.h **** *  brief   signal base class for signal sc_clock
   7:.\source\rte/sc_clock.h **** *
   8:.\source\rte/sc_clock.h **** *  author  Autogenerated, Peter Fromm       <peter.fromm@h-da.de>
   9:.\source\rte/sc_clock.h **** *
  10:.\source\rte/sc_clock.h **** *
  11:.\source\rte/sc_clock.h **** */
  12:.\source\rte/sc_clock.h **** 
  13:.\source\rte/sc_clock.h **** /*
  14:.\source\rte/sc_clock.h **** * description: Clock data representation datatype
  15:.\source\rte/sc_clock.h **** * name: sc_clock
  16:.\source\rte/sc_clock.h **** * shortname: clock
  17:.\source\rte/sc_clock.h **** */
  18:.\source\rte/sc_clock.h **** 
  19:.\source\rte/sc_clock.h **** #ifndef SC_CLOCK_SIGNAL_H_INCLUDED
  20:.\source\rte/sc_clock.h **** #define SC_CLOCK_SIGNAL_H_INCLUDED
  21:.\source\rte/sc_clock.h **** 
  22:.\source\rte/sc_clock.h **** /*================================================[ public includes  ]=============================
  23:.\source\rte/sc_clock.h **** #include "global.h"
  24:.\source\rte/sc_clock.h **** #include "project.h"
  25:.\source\rte/sc_clock.h **** #include "rte.h"
  26:.\source\rte/sc_clock.h **** #include "rte_types.h"
  27:.\source\rte/sc_clock.h **** 
  28:.\source\rte/sc_clock.h **** #include "sc_clock_type.h"
  29:.\source\rte/sc_clock.h **** 
  30:.\source\rte/sc_clock.h **** 
  31:.\source\rte/sc_clock.h **** /**************************************************************************************************
  32:.\source\rte/sc_clock.h **** /* The driver API block																						*/
ARM GAS  C:\Users\aditi\AppData\Local\Temp\ccxJli9U.s 			page 9


  33:.\source\rte/sc_clock.h **** /**************************************************************************************************
  34:.\source\rte/sc_clock.h ****                                                                                                    
  35:.\source\rte/sc_clock.h **** /**
  36:.\source\rte/sc_clock.h ****  *  Definition of function types for driver interfaces.
  37:.\source\rte/sc_clock.h ****  *  I-Port
  38:.\source\rte/sc_clock.h ****  */
  39:.\source\rte/sc_clock.h **** typedef RC_t (*SC_CLOCK_driverIn_t)(SC_CLOCK_data_t * const);
  40:.\source\rte/sc_clock.h **** 
  41:.\source\rte/sc_clock.h **** /**
  42:.\source\rte/sc_clock.h ****  *  Definition of function types for driver interfaces.
  43:.\source\rte/sc_clock.h ****  *  O-Port
  44:.\source\rte/sc_clock.h ****  */
  45:.\source\rte/sc_clock.h **** typedef RC_t (*SC_CLOCK_driverOut_t)( const SC_CLOCK_data_t * const);
  46:.\source\rte/sc_clock.h **** 
  47:.\source\rte/sc_clock.h **** 
  48:.\source\rte/sc_clock.h **** /**************************************************************************************************
  49:.\source\rte/sc_clock.h **** /* The signal configuration API block																				*/
  50:.\source\rte/sc_clock.h **** /**************************************************************************************************
  51:.\source\rte/sc_clock.h **** 
  52:.\source\rte/sc_clock.h **** /**
  53:.\source\rte/sc_clock.h ****  * Instances of the struct SC_CLOCK_cfg_t represent the signal object configuration.
  54:.\source\rte/sc_clock.h ****  */
  55:.\source\rte/sc_clock.h **** struct SC_CLOCK_cfg_s
  56:.\source\rte/sc_clock.h **** {
  57:.\source\rte/sc_clock.h ****     /**
  58:.\source\rte/sc_clock.h ****      * Function pointer to the input driver
  59:.\source\rte/sc_clock.h ****      */
  60:.\source\rte/sc_clock.h ****     SC_CLOCK_driverIn_t const inDriver;
  61:.\source\rte/sc_clock.h **** 
  62:.\source\rte/sc_clock.h ****     /**
  63:.\source\rte/sc_clock.h ****      * Function pointer to the output driver table
  64:.\source\rte/sc_clock.h ****      */
  65:.\source\rte/sc_clock.h ****    SC_CLOCK_driverOut_t const outDriver;
  66:.\source\rte/sc_clock.h ****    
  67:.\source\rte/sc_clock.h ****     /**
  68:.\source\rte/sc_clock.h ****      * Event onUpdate
  69:.\source\rte/sc_clock.h ****      */
  70:.\source\rte/sc_clock.h ****     EventMaskType const evOnUpdate;
  71:.\source\rte/sc_clock.h ****     
  72:.\source\rte/sc_clock.h ****     
  73:.\source\rte/sc_clock.h ****     /**
  74:.\source\rte/sc_clock.h ****      * Event onError
  75:.\source\rte/sc_clock.h ****      */
  76:.\source\rte/sc_clock.h ****     EventMaskType const evOnError;
  77:.\source\rte/sc_clock.h ****     
  78:.\source\rte/sc_clock.h ****     /**
  79:.\source\rte/sc_clock.h ****      * Task Count onUpdate
  80:.\source\rte/sc_clock.h ****      */
  81:.\source\rte/sc_clock.h ****     size_t const onUpdateTaskCount;
  82:.\source\rte/sc_clock.h **** 
  83:.\source\rte/sc_clock.h ****     /**
  84:.\source\rte/sc_clock.h ****      * Task List onUpdate
  85:.\source\rte/sc_clock.h ****      */
  86:.\source\rte/sc_clock.h ****     TaskTypeArray* const onUpdateTasks;
  87:.\source\rte/sc_clock.h ****     
  88:.\source\rte/sc_clock.h ****     /**
  89:.\source\rte/sc_clock.h ****      * Task Count onError
ARM GAS  C:\Users\aditi\AppData\Local\Temp\ccxJli9U.s 			page 10


  90:.\source\rte/sc_clock.h ****      */
  91:.\source\rte/sc_clock.h ****     size_t const onErrorTaskCount;
  92:.\source\rte/sc_clock.h **** 
  93:.\source\rte/sc_clock.h ****     /**
  94:.\source\rte/sc_clock.h ****      * Task List onError
  95:.\source\rte/sc_clock.h ****      */
  96:.\source\rte/sc_clock.h ****     TaskTypeArray* const onErrorTasks;
  97:.\source\rte/sc_clock.h **** 	
  98:.\source\rte/sc_clock.h **** 	
  99:.\source\rte/sc_clock.h **** 	/**
 100:.\source\rte/sc_clock.h **** 	 * Ressourse is active? We need an additional boolean as a ressource value 0 is valid.
 101:.\source\rte/sc_clock.h **** 	 */
 102:.\source\rte/sc_clock.h **** 	 boolean_t const resourceActive;
 103:.\source\rte/sc_clock.h **** 	 
 104:.\source\rte/sc_clock.h **** 	/**
 105:.\source\rte/sc_clock.h **** 	 * Ressourse 
 106:.\source\rte/sc_clock.h **** 	 */
 107:.\source\rte/sc_clock.h **** 	 ResourceType const resource;
 108:.\source\rte/sc_clock.h **** 
 109:.\source\rte/sc_clock.h **** };                                                                                                 
 110:.\source\rte/sc_clock.h **** typedef const struct SC_CLOCK_cfg_s SC_CLOCK_cfg_t;
 111:.\source\rte/sc_clock.h ****                               
 112:.\source\rte/sc_clock.h **** /**************************************************************************************************
 113:.\source\rte/sc_clock.h **** /* The data interface block																							*/
 114:.\source\rte/sc_clock.h **** /**************************************************************************************************
 115:.\source\rte/sc_clock.h **** 
 116:.\source\rte/sc_clock.h ****                                                                                                    
 117:.\source\rte/sc_clock.h **** 							  
 118:.\source\rte/sc_clock.h **** /**
 119:.\source\rte/sc_clock.h ****  * Instances of the struct SC_CLOCK_t represent the signal objects.
 120:.\source\rte/sc_clock.h ****  * A signal object contains the current application value 'value' as well as relevant meta data.
 121:.\source\rte/sc_clock.h ****  */
 122:.\source\rte/sc_clock.h **** struct SC_CLOCK_s
 123:.\source\rte/sc_clock.h **** {                                                                                                  
 124:.\source\rte/sc_clock.h **** 
 125:.\source\rte/sc_clock.h **** 	/**
 126:.\source\rte/sc_clock.h **** 	 * Data buffer for the application value
 127:.\source\rte/sc_clock.h **** 	 */
 128:.\source\rte/sc_clock.h ****     SC_CLOCK_data_t value;
 129:.\source\rte/sc_clock.h **** 
 130:.\source\rte/sc_clock.h ****     /**
 131:.\source\rte/sc_clock.h ****      * Current signal status
 132:.\source\rte/sc_clock.h ****      */
 133:.\source\rte/sc_clock.h ****     RTE_signalStatus_t status;
 134:.\source\rte/sc_clock.h **** 
 135:.\source\rte/sc_clock.h ****     /**
 136:.\source\rte/sc_clock.h ****      * Current age of the signal (in calling cycles)
 137:.\source\rte/sc_clock.h ****      */
 138:.\source\rte/sc_clock.h ****     uint32_t age;
 139:.\source\rte/sc_clock.h **** 
 140:.\source\rte/sc_clock.h ****     /**
 141:.\source\rte/sc_clock.h ****      * Pointer to the signal configuration
 142:.\source\rte/sc_clock.h ****      */
 143:.\source\rte/sc_clock.h **** 	const SC_CLOCK_cfg_t * const    pSigCfg;
 144:.\source\rte/sc_clock.h **** 
 145:.\source\rte/sc_clock.h **** };                                                                                                 
 146:.\source\rte/sc_clock.h **** typedef struct SC_CLOCK_s SC_CLOCK_t;
ARM GAS  C:\Users\aditi\AppData\Local\Temp\ccxJli9U.s 			page 11


 147:.\source\rte/sc_clock.h **** 
 148:.\source\rte/sc_clock.h **** /**************************************************************************************************
 149:.\source\rte/sc_clock.h **** /* Signal initialisation   																							*/
 150:.\source\rte/sc_clock.h **** /**************************************************************************************************
 151:.\source\rte/sc_clock.h **** 
 152:.\source\rte/sc_clock.h **** /**
 153:.\source\rte/sc_clock.h ****  * Initializes a signal instance with a passed init value.
 154:.\source\rte/sc_clock.h ****  * Depending on the configured conversion or scaling function the raw_value will be calculated.
 155:.\source\rte/sc_clock.h ****  * Signal status will change from RTE_SIGNALSTATUS_STARTUP to RTE_SIGNALSTATUS_INITIALIZED.
 156:.\source\rte/sc_clock.h ****  *
 157:.\source\rte/sc_clock.h ****  * @param  SC_CLOCK_t * const signal: Pointer to the signal object which will be initialised
 158:.\source\rte/sc_clock.h ****  * @param const sc_clock_data_t * const value: Pointer to initial value of the application data
 159:.\source\rte/sc_clock.h ****  * @return RC_t: standard return code, currently only RC_SUCCESS
 160:.\source\rte/sc_clock.h ****  *
 161:.\source\rte/sc_clock.h ****  **/
 162:.\source\rte/sc_clock.h **** inline RC_t RTE_SC_CLOCK_init( SC_CLOCK_t * const signal, const SC_CLOCK_data_t * const value )
 163:.\source\rte/sc_clock.h **** {                                                                                                  
 164:.\source\rte/sc_clock.h **** 
 165:.\source\rte/sc_clock.h ****    RC_t ret = RC_SUCCESS;
 166:.\source\rte/sc_clock.h **** 
 167:.\source\rte/sc_clock.h ****    //Set value and raw value
 168:.\source\rte/sc_clock.h ****    signal->value  = *value;
 169:.\source\rte/sc_clock.h ****    signal->age    = 0;
 170:.\source\rte/sc_clock.h ****    signal->status = RTE_SIGNALSTATUS_INITIALIZED;
 171:.\source\rte/sc_clock.h **** 
 172:.\source\rte/sc_clock.h ****    return ret;
 173:.\source\rte/sc_clock.h **** }
 174:.\source\rte/sc_clock.h **** 
 175:.\source\rte/sc_clock.h **** /**************************************************************************************************
 176:.\source\rte/sc_clock.h **** /* Status and timeout control																						*/
 177:.\source\rte/sc_clock.h **** /**************************************************************************************************
 178:.\source\rte/sc_clock.h **** 
 179:.\source\rte/sc_clock.h **** /**
 180:.\source\rte/sc_clock.h ****  *  Returns the current signal status of the passed signal instance.
 181:.\source\rte/sc_clock.h ****  *
 182:.\source\rte/sc_clock.h ****  * @param  SC_CLOCK_t * const signal: Pointer to the signal object
 183:.\source\rte/sc_clock.h ****  * @return  sig_status_t: The current signal status
 184:.\source\rte/sc_clock.h ****  *
 185:.\source\rte/sc_clock.h ****  **/
 186:.\source\rte/sc_clock.h **** inline RTE_signalStatus_t RTE_SC_CLOCK_getStatus( const SC_CLOCK_t * const signal )
 187:.\source\rte/sc_clock.h **** {
 188:.\source\rte/sc_clock.h ****    return signal->status;
 189:.\source\rte/sc_clock.h **** }
 190:.\source\rte/sc_clock.h **** 
 191:.\source\rte/sc_clock.h **** 
 192:.\source\rte/sc_clock.h **** /**
 193:.\source\rte/sc_clock.h ****  *  Sets a new signal status of the passed signal instance by passing the new status.
 194:.\source\rte/sc_clock.h ****  *
 195:.\source\rte/sc_clock.h ****  * @param  SC_CLOCK_t * const signal: Pointer to the signal object
 196:.\source\rte/sc_clock.h ****  * @param  const sig_status_t status: New signal status
 197:.\source\rte/sc_clock.h ****  * @return RC_t: standard return code, currently only RC_SUCCESS
 198:.\source\rte/sc_clock.h ****  *
 199:.\source\rte/sc_clock.h ****  */
 200:.\source\rte/sc_clock.h **** inline RC_t RTE_SC_CLOCK_setStatus( SC_CLOCK_t * const signal, const RTE_signalStatus_t status )
 201:.\source\rte/sc_clock.h **** {
 202:.\source\rte/sc_clock.h ****    signal->status = status;
 203:.\source\rte/sc_clock.h ****    size_t taskNum=0;
ARM GAS  C:\Users\aditi\AppData\Local\Temp\ccxJli9U.s 			page 12


 204:.\source\rte/sc_clock.h ****    
 205:.\source\rte/sc_clock.h ****    //Fire error events in case of invalid state
 206:.\source\rte/sc_clock.h ****    if (signal->status == RTE_SIGNALSTATUS_INVALID)
 207:.\source\rte/sc_clock.h ****    {
 208:.\source\rte/sc_clock.h **** 	    //Pointer to the Taskarray, containing the tasks receiving the onUpdate events
 209:.\source\rte/sc_clock.h **** 		TaskTypeArray* pTaskArray = signal->pSigCfg->onErrorTasks;
 210:.\source\rte/sc_clock.h **** 
 211:.\source\rte/sc_clock.h **** 		if (NULL!=signal->pSigCfg->evOnError && NULL != pTaskArray){
 212:.\source\rte/sc_clock.h **** 			for( taskNum=0 ; taskNum < signal->pSigCfg->onErrorTaskCount ;taskNum++){
 213:.\source\rte/sc_clock.h **** 				TaskType task = (*pTaskArray)[taskNum];
 214:.\source\rte/sc_clock.h **** 				SetEvent( task, signal->pSigCfg->evOnError);
 215:.\source\rte/sc_clock.h **** 			}
 216:.\source\rte/sc_clock.h **** 		}
 217:.\source\rte/sc_clock.h ****    }
 218:.\source\rte/sc_clock.h ****    
 219:.\source\rte/sc_clock.h ****    return RC_SUCCESS;
 220:.\source\rte/sc_clock.h **** }
 221:.\source\rte/sc_clock.h **** 
 222:.\source\rte/sc_clock.h **** 
 223:.\source\rte/sc_clock.h **** /**
 224:.\source\rte/sc_clock.h ****  * Returns the count of refreshing trials (refresh, set or set_raw) that failed.
 225:.\source\rte/sc_clock.h ****  * Prerquisite: The signal is refreshed cyclically
 226:.\source\rte/sc_clock.h ****  *
 227:.\source\rte/sc_clock.h ****  * @param  SC_CLOCK_t * const signal: Pointer to the signal object
 228:.\source\rte/sc_clock.h ****  * @return uint32_t: Number of cycles since the signal has been updated for the last time
 229:.\source\rte/sc_clock.h ****  */
 230:.\source\rte/sc_clock.h **** inline uint32_t RTE_SC_CLOCK_getAge( const SC_CLOCK_t * const signal )
 231:.\source\rte/sc_clock.h **** {
 232:.\source\rte/sc_clock.h ****    return signal->age;
 233:.\source\rte/sc_clock.h **** }
 234:.\source\rte/sc_clock.h **** 
 235:.\source\rte/sc_clock.h **** /**
 236:.\source\rte/sc_clock.h ****  * Should be called by application or driver if no new value can be provided.
 237:.\source\rte/sc_clock.h ****  * @param  SC_CLOCK_t * const signal: Pointer to the signal object
 238:.\source\rte/sc_clock.h ****  * @param uint32_t increment: incrementvalue, typically in [ms]
 239:.\source\rte/sc_clock.h ****  * @return void
 240:.\source\rte/sc_clock.h ****  */
 241:.\source\rte/sc_clock.h **** inline void RTE_SC_CLOCK_incAge(  SC_CLOCK_t * const signal , uint32_t increment)
 242:.\source\rte/sc_clock.h **** {
 243:.\source\rte/sc_clock.h **** 	   //Hack....
 244:.\source\rte/sc_clock.h **** 	   if ( 0xFFFF0000 > (signal->age + increment) )
 245:.\source\rte/sc_clock.h **** 	   {
 246:.\source\rte/sc_clock.h **** 	      signal->age += increment;
 247:.\source\rte/sc_clock.h **** 	   }
 248:.\source\rte/sc_clock.h **** }
 249:.\source\rte/sc_clock.h **** 
 250:.\source\rte/sc_clock.h **** 
 251:.\source\rte/sc_clock.h **** /**************************************************************************************************
 252:.\source\rte/sc_clock.h **** /* Application Data read/write Interface																			*/
 253:.\source\rte/sc_clock.h **** /**************************************************************************************************
 254:.\source\rte/sc_clock.h **** 
 255:.\source\rte/sc_clock.h **** /**
 256:.\source\rte/sc_clock.h ****  * Returns the current application value of the passed signal instance.
 257:.\source\rte/sc_clock.h ****  *
 258:.\source\rte/sc_clock.h ****  * @param  SC_CLOCK_t * const signal: Pointer to the signal object
 259:.\source\rte/sc_clock.h ****  * @return sc_clock_data_t: current value of the application data buffer
 260:.\source\rte/sc_clock.h ****  *
ARM GAS  C:\Users\aditi\AppData\Local\Temp\ccxJli9U.s 			page 13


 261:.\source\rte/sc_clock.h ****  **/
 262:.\source\rte/sc_clock.h **** inline SC_CLOCK_data_t RTE_SC_CLOCK_get( const SC_CLOCK_t * const signal )
 263:.\source\rte/sc_clock.h **** {               
 264:.\source\rte/sc_clock.h ****    //Todo: Critical region cannot be protected using return values																						
 265:.\source\rte/sc_clock.h ****    return signal->value;                                                                           
  47              		.loc 2 265 0
  48 000a 09AC     		add	r4, sp, #36
  49 000c 294D     		ldr	r5, .L10+4
  50 000e 0FCD     		ldmia	r5!, {r0, r1, r2, r3}
  51 0010 0FC4     		stmia	r4!, {r0, r1, r2, r3}
  52 0012 0FCD     		ldmia	r5!, {r0, r1, r2, r3}
  53 0014 0FC4     		stmia	r4!, {r0, r1, r2, r3}
  54 0016 2B68     		ldr	r3, [r5]
  55 0018 2360     		str	r3, [r4]
  56              	.LVL1:
  57              	.LBE80:
  58              	.LBE79:
 379:source\asw/swc_clock.c ****     
 380:source\asw/swc_clock.c ****     //Get a local copy of the clock component
 381:source\asw/swc_clock.c ****     SC_CLOCK_data_t clock = RTE_SC_CLOCK_get(&SO_CLOCK_signal);
 382:source\asw/swc_clock.c ****     
 383:source\asw/swc_clock.c ****     //Check if the increment is less than the maximum value and then increment
 384:source\asw/swc_clock.c ****     if (clock.m_minutes.m_value < MINUTES_MAX)
  59              		.loc 1 384 0
  60 001a 9DF84430 		ldrb	r3, [sp, #68]	@ zero_extendqisi2
  61 001e 3B2B     		cmp	r3, #59
  62 0020 03D8     		bhi	.L2
 385:source\asw/swc_clock.c ****     {
 386:source\asw/swc_clock.c ****         clock.m_minutes.m_value += 1;
  63              		.loc 1 386 0
  64 0022 0133     		adds	r3, r3, #1
  65 0024 8DF84430 		strb	r3, [sp, #68]
  66 0028 15E0     		b	.L3
  67              	.L2:
 387:source\asw/swc_clock.c ****     }
 388:source\asw/swc_clock.c ****     //Set minutes to zero and increment hours when minute reaches maximum value
 389:source\asw/swc_clock.c ****     else if(clock.m_minutes.m_value == MINUTES_MAX)
  68              		.loc 1 389 0
  69 002a 3C2B     		cmp	r3, #60
  70 002c 08D1     		bne	.L4
 390:source\asw/swc_clock.c ****     {
 391:source\asw/swc_clock.c ****         clock.m_minutes.m_value = 0;
  71              		.loc 1 391 0
  72 002e 0023     		movs	r3, #0
  73 0030 8DF84430 		strb	r3, [sp, #68]
 392:source\asw/swc_clock.c ****         clock.m_hours.m_value += 1;
  74              		.loc 1 392 0
  75 0034 9DF83830 		ldrb	r3, [sp, #56]	@ zero_extendqisi2
  76 0038 0133     		adds	r3, r3, #1
  77 003a 8DF83830 		strb	r3, [sp, #56]
  78 003e 0AE0     		b	.L3
  79              	.L4:
 393:source\asw/swc_clock.c ****     }
 394:source\asw/swc_clock.c ****     //When both reach the maximum value, reset the clock to zero
 395:source\asw/swc_clock.c ****     else if((clock.m_minutes.m_value == MINUTES_MAX) && (clock.m_hours.m_value == HOURFORMAT_24_MAX
  80              		.loc 1 395 0
  81 0040 3C2B     		cmp	r3, #60
ARM GAS  C:\Users\aditi\AppData\Local\Temp\ccxJli9U.s 			page 14


  82 0042 08D1     		bne	.L3
  83              		.loc 1 395 0 is_stmt 0 discriminator 1
  84 0044 9DF83830 		ldrb	r3, [sp, #56]	@ zero_extendqisi2
  85 0048 182B     		cmp	r3, #24
  86 004a 04D1     		bne	.L3
 396:source\asw/swc_clock.c ****     {
 397:source\asw/swc_clock.c ****         clock.m_minutes.m_value = 0;
  87              		.loc 1 397 0 is_stmt 1
  88 004c 0023     		movs	r3, #0
  89 004e 8DF84430 		strb	r3, [sp, #68]
 398:source\asw/swc_clock.c ****         clock.m_hours.m_value = 0;
  90              		.loc 1 398 0
  91 0052 8DF83830 		strb	r3, [sp, #56]
  92              	.L3:
  93              	.LVL2:
  94 0056 6C46     		mov	r4, sp
  95 0058 09AD     		add	r5, sp, #36
  96 005a 0FCD     		ldmia	r5!, {r0, r1, r2, r3}
  97 005c 0FC4     		stmia	r4!, {r0, r1, r2, r3}
  98 005e 0FCD     		ldmia	r5!, {r0, r1, r2, r3}
  99 0060 0FC4     		stmia	r4!, {r0, r1, r2, r3}
 100 0062 D5F800E0 		ldr	lr, [r5]
 101 0066 C4F800E0 		str	lr, [r4]
 102              	.LVL3:
 103              	.LBB81:
 104              	.LBB82:
 266:.\source\rte/sc_clock.h **** }                                                                                                  
 267:.\source\rte/sc_clock.h ****                                                                                                    
 268:.\source\rte/sc_clock.h **** /**
 269:.\source\rte/sc_clock.h ****  * Returns the current application value of the passed signal instance threadsafe.
 270:.\source\rte/sc_clock.h ****  *
 271:.\source\rte/sc_clock.h ****  * @param  SC_CLOCK_t * const signal: Pointer to the signal object
 272:.\source\rte/sc_clock.h ****  * @param  SC_CLOCK_data_t* data: Pointer to the return data Pointer to the signal object
 273:.\source\rte/sc_clock.h ****  * @return RC_SUCCESS
 274:.\source\rte/sc_clock.h ****  *
 275:.\source\rte/sc_clock.h ****  **/
 276:.\source\rte/sc_clock.h **** inline RC_t RTE_SC_CLOCK_getThreadSafe( const SC_CLOCK_t * const signal, SC_CLOCK_data_t * const da
 277:.\source\rte/sc_clock.h **** {    
 278:.\source\rte/sc_clock.h ****    if (TRUE == signal->pSigCfg->resourceActive) GetResource(signal->pSigCfg->resource);
 279:.\source\rte/sc_clock.h ****    *data = signal->value;
 280:.\source\rte/sc_clock.h ****    if (TRUE == signal->pSigCfg->resourceActive) ReleaseResource(signal->pSigCfg->resource);        
 281:.\source\rte/sc_clock.h **** 
 282:.\source\rte/sc_clock.h ****    return RC_SUCCESS;                                                                   
 283:.\source\rte/sc_clock.h ****    
 284:.\source\rte/sc_clock.h **** }                                                                                                  
 285:.\source\rte/sc_clock.h ****                                                                                                    
 286:.\source\rte/sc_clock.h **** /**
 287:.\source\rte/sc_clock.h ****  * Sets a new application value to the passed signal instance by passing the new value.
 288:.\source\rte/sc_clock.h ****  * The corresponding driver raw value will be calculated immediately by using the default conversio
 289:.\source\rte/sc_clock.h ****  * signal specific scaling function.
 290:.\source\rte/sc_clock.h ****  * The signal age will be set to 0 and the new status will be 'RTE_SIGNALSTATUS_VALID'.
 291:.\source\rte/sc_clock.h ****  *
 292:.\source\rte/sc_clock.h ****  * @param  SC_CLOCK_t * const signal: Pointer to the signal object
 293:.\source\rte/sc_clock.h ****  * @param  sc_clock_data_t const value: value for the application data buffer
 294:.\source\rte/sc_clock.h ****  * @return RC_t: standard return code, currently only RC_SUCCESS
 295:.\source\rte/sc_clock.h ****  *
 296:.\source\rte/sc_clock.h ****  **/
ARM GAS  C:\Users\aditi\AppData\Local\Temp\ccxJli9U.s 			page 15


 297:.\source\rte/sc_clock.h **** inline RC_t RTE_SC_CLOCK_set(SC_CLOCK_t * const signal, const SC_CLOCK_data_t value  )
 298:.\source\rte/sc_clock.h **** {
 299:.\source\rte/sc_clock.h **** 
 300:.\source\rte/sc_clock.h ****    RC_t ret = RC_SUCCESS;
 301:.\source\rte/sc_clock.h ****    size_t taskNum=0;
 302:.\source\rte/sc_clock.h **** 
 303:.\source\rte/sc_clock.h **** 
 304:.\source\rte/sc_clock.h ****    if (TRUE == signal->pSigCfg->resourceActive) GetResource(signal->pSigCfg->resource);
 105              		.loc 2 304 0
 106 006a 124E     		ldr	r6, .L10+4
 107 006c F76A     		ldr	r7, [r6, #44]
 305:.\source\rte/sc_clock.h ****    signal->value  = value;
 108              		.loc 2 305 0
 109 006e 3446     		mov	r4, r6
 110 0070 6D46     		mov	r5, sp
 111 0072 0FCD     		ldmia	r5!, {r0, r1, r2, r3}
 112 0074 0FC4     		stmia	r4!, {r0, r1, r2, r3}
 113 0076 0FCD     		ldmia	r5!, {r0, r1, r2, r3}
 114 0078 0FC4     		stmia	r4!, {r0, r1, r2, r3}
 115 007a C4F800E0 		str	lr, [r4]
 306:.\source\rte/sc_clock.h ****    signal->age    = 0;
 116              		.loc 2 306 0
 117 007e 0023     		movs	r3, #0
 118 0080 B362     		str	r3, [r6, #40]
 307:.\source\rte/sc_clock.h ****    signal->status = RTE_SIGNALSTATUS_VALID;
 119              		.loc 2 307 0
 120 0082 0223     		movs	r3, #2
 121 0084 86F82430 		strb	r3, [r6, #36]
 308:.\source\rte/sc_clock.h ****    if (TRUE == signal->pSigCfg->resourceActive) ReleaseResource(signal->pSigCfg->resource);
 309:.\source\rte/sc_clock.h **** 
 310:.\source\rte/sc_clock.h ****    //Pointer to the Taskarray, containing the tasks receiving the onUpdate events
 311:.\source\rte/sc_clock.h ****    TaskTypeArray* pTaskArray = signal->pSigCfg->onUpdateTasks;
 122              		.loc 2 311 0
 123 0088 7D69     		ldr	r5, [r7, #20]
 124              	.LVL4:
 312:.\source\rte/sc_clock.h **** 
 313:.\source\rte/sc_clock.h ****    if (NULL!=signal->pSigCfg->evOnUpdate && NULL != pTaskArray){
 125              		.loc 2 313 0
 126 008a BB68     		ldr	r3, [r7, #8]
 127 008c 73B1     		cbz	r3, .L1
 128 008e 3DB9     		cbnz	r5, .L8
 129 0090 0CE0     		b	.L1
 130              	.LVL5:
 131              	.L7:
 132              	.LBB83:
 314:.\source\rte/sc_clock.h ****       for( taskNum=0 ; taskNum < signal->pSigCfg->onUpdateTaskCount ;taskNum++){
 315:.\source\rte/sc_clock.h **** 		  
 316:.\source\rte/sc_clock.h ****           TaskType task = (*pTaskArray)[taskNum];
 317:.\source\rte/sc_clock.h **** 	      SetEvent( task, signal->pSigCfg->evOnUpdate);
 133              		.loc 2 317 0
 134 0092 9968     		ldr	r1, [r3, #8]
 135 0094 55F82400 		ldr	r0, [r5, r4, lsl #2]
 136 0098 FFF7FEFF 		bl	EE_oo_SetEvent
 137              	.LVL6:
 138              	.LBE83:
 314:.\source\rte/sc_clock.h ****       for( taskNum=0 ; taskNum < signal->pSigCfg->onUpdateTaskCount ;taskNum++){
 139              		.loc 2 314 0
ARM GAS  C:\Users\aditi\AppData\Local\Temp\ccxJli9U.s 			page 16


 140 009c 0134     		adds	r4, r4, #1
 141              	.LVL7:
 142 009e 00E0     		b	.L6
 143              	.LVL8:
 144              	.L8:
 313:.\source\rte/sc_clock.h ****       for( taskNum=0 ; taskNum < signal->pSigCfg->onUpdateTaskCount ;taskNum++){
 145              		.loc 2 313 0
 146 00a0 0024     		movs	r4, #0
 147              	.LVL9:
 148              	.L6:
 314:.\source\rte/sc_clock.h ****       for( taskNum=0 ; taskNum < signal->pSigCfg->onUpdateTaskCount ;taskNum++){
 149              		.loc 2 314 0
 150 00a2 044B     		ldr	r3, .L10+4
 151 00a4 DB6A     		ldr	r3, [r3, #44]
 152 00a6 1A69     		ldr	r2, [r3, #16]
 153 00a8 9442     		cmp	r4, r2
 154 00aa F2D3     		bcc	.L7
 155              	.LVL10:
 156              	.L1:
 157              	.LBE82:
 158              	.LBE81:
 399:source\asw/swc_clock.c ****     }
 400:source\asw/swc_clock.c ****     else {/*do nothing*/}
 401:source\asw/swc_clock.c **** 
 402:source\asw/swc_clock.c ****     //Update the clock signal into signal object
 403:source\asw/swc_clock.c ****     RTE_SC_CLOCK_set(&SO_CLOCK_signal, clock);
 404:source\asw/swc_clock.c ****     
 405:source\asw/swc_clock.c **** }
 159              		.loc 1 405 0
 160 00ac 13B0     		add	sp, sp, #76
 161              		.cfi_def_cfa_offset 20
 162              		@ sp needed
 163 00ae F0BD     		pop	{r4, r5, r6, r7, pc}
 164              	.LVL11:
 165              	.L11:
 166              		.align	2
 167              	.L10:
 168 00b0 00000000 		.word	.LC0
 169 00b4 00000000 		.word	SO_CLOCK_signal
 170              		.cfi_endproc
 171              	.LFE147:
 172              		.size	CLOCK__increment1Minute, .-CLOCK__increment1Minute
 173              		.section	.text.CLOCK__dispatch_wrapper,"ax",%progbits
 174              		.align	2
 175              		.thumb
 176              		.thumb_func
 177              		.type	CLOCK__dispatch_wrapper, %function
 178              	CLOCK__dispatch_wrapper:
 179              	.LFB144:
 323:source\asw/swc_clock.c ****     //Read the state object (container)
 180              		.loc 1 323 0
 181              		.cfi_startproc
 182              		@ args = 0, pretend = 0, frame = 216
 183              		@ frame_needed = 0, uses_anonymous_args = 0
 184              	.LVL12:
 185 0000 2DE9F043 		push	{r4, r5, r6, r7, r8, r9, lr}
 186              		.cfi_def_cfa_offset 28
ARM GAS  C:\Users\aditi\AppData\Local\Temp\ccxJli9U.s 			page 17


 187              		.cfi_offset 4, -28
 188              		.cfi_offset 5, -24
 189              		.cfi_offset 6, -20
 190              		.cfi_offset 7, -16
 191              		.cfi_offset 8, -12
 192              		.cfi_offset 9, -8
 193              		.cfi_offset 14, -4
 194 0004 B9B0     		sub	sp, sp, #228
 195              		.cfi_def_cfa_offset 256
 196 0006 0746     		mov	r7, r0
 197 0008 0E46     		mov	r6, r1
 198              	.LVL13:
 199              	.LBB84:
 200              	.LBB85:
 265:.\source\rte/sc_clock.h **** }                                                                                                  
 201              		.loc 2 265 0
 202 000a DFF8D881 		ldr	r8, .L28
 203 000e 0DF1BC0E 		add	lr, sp, #188
 204 0012 4446     		mov	r4, r8
 205 0014 0FCC     		ldmia	r4!, {r0, r1, r2, r3}
 206              	.LVL14:
 207 0016 AEE80F00 		stmia	lr!, {r0, r1, r2, r3}
 208 001a 0FCC     		ldmia	r4!, {r0, r1, r2, r3}
 209 001c AEE80F00 		stmia	lr!, {r0, r1, r2, r3}
 210 0020 2568     		ldr	r5, [r4]
 211 0022 CEF80050 		str	r5, [lr]
 212              	.LVL15:
 213              	.LBE85:
 214              	.LBE84:
 328:source\asw/swc_clock.c ****     
 215              		.loc 1 328 0
 216 0026 8DF8C460 		strb	r6, [sp, #196]
 217              	.LVL16:
 218 002a 0DF1080E 		add	lr, sp, #8
 219 002e 0DF1BC0C 		add	ip, sp, #188
 220 0032 BCE80F00 		ldmia	ip!, {r0, r1, r2, r3}
 221 0036 AEE80F00 		stmia	lr!, {r0, r1, r2, r3}
 222 003a BCE80F00 		ldmia	ip!, {r0, r1, r2, r3}
 223 003e AEE80F00 		stmia	lr!, {r0, r1, r2, r3}
 224 0042 CEF80050 		str	r5, [lr]
 225              	.LVL17:
 226              	.LBB86:
 227              	.LBB87:
 304:.\source\rte/sc_clock.h ****    signal->value  = value;
 228              		.loc 2 304 0
 229 0046 D8F82C90 		ldr	r9, [r8, #44]
 305:.\source\rte/sc_clock.h ****    signal->age    = 0;
 230              		.loc 2 305 0
 231 004a C646     		mov	lr, r8
 232 004c 0DF1080C 		add	ip, sp, #8
 233 0050 BCE80F00 		ldmia	ip!, {r0, r1, r2, r3}
 234 0054 AEE80F00 		stmia	lr!, {r0, r1, r2, r3}
 235 0058 BCE80F00 		ldmia	ip!, {r0, r1, r2, r3}
 236 005c AEE80F00 		stmia	lr!, {r0, r1, r2, r3}
 306:.\source\rte/sc_clock.h ****    signal->status = RTE_SIGNALSTATUS_VALID;
 237              		.loc 2 306 0
 238 0060 0023     		movs	r3, #0
ARM GAS  C:\Users\aditi\AppData\Local\Temp\ccxJli9U.s 			page 18


 239 0062 C8F82830 		str	r3, [r8, #40]
 307:.\source\rte/sc_clock.h ****    if (TRUE == signal->pSigCfg->resourceActive) ReleaseResource(signal->pSigCfg->resource);
 240              		.loc 2 307 0
 241 0066 0223     		movs	r3, #2
 242 0068 88F82430 		strb	r3, [r8, #36]
 311:.\source\rte/sc_clock.h **** 
 243              		.loc 2 311 0
 244 006c D9F81450 		ldr	r5, [r9, #20]
 245              	.LVL18:
 313:.\source\rte/sc_clock.h ****       for( taskNum=0 ; taskNum < signal->pSigCfg->onUpdateTaskCount ;taskNum++){
 246              		.loc 2 313 0
 247 0070 D9F80830 		ldr	r3, [r9, #8]
 248 0074 73B1     		cbz	r3, .L13
 249 0076 3DB9     		cbnz	r5, .L24
 250 0078 0CE0     		b	.L13
 251              	.LVL19:
 252              	.L15:
 253              	.LBB88:
 254              		.loc 2 317 0
 255 007a 9968     		ldr	r1, [r3, #8]
 256 007c 55F82400 		ldr	r0, [r5, r4, lsl #2]
 257 0080 FFF7FEFF 		bl	EE_oo_SetEvent
 258              	.LVL20:
 259              	.LBE88:
 314:.\source\rte/sc_clock.h **** 		  
 260              		.loc 2 314 0
 261 0084 0134     		adds	r4, r4, #1
 262              	.LVL21:
 263 0086 00E0     		b	.L14
 264              	.LVL22:
 265              	.L24:
 313:.\source\rte/sc_clock.h ****       for( taskNum=0 ; taskNum < signal->pSigCfg->onUpdateTaskCount ;taskNum++){
 266              		.loc 2 313 0
 267 0088 0024     		movs	r4, #0
 268              	.LVL23:
 269              	.L14:
 314:.\source\rte/sc_clock.h **** 		  
 270              		.loc 2 314 0
 271 008a 564B     		ldr	r3, .L28
 272 008c DB6A     		ldr	r3, [r3, #44]
 273 008e 1A69     		ldr	r2, [r3, #16]
 274 0090 9442     		cmp	r4, r2
 275 0092 F2D3     		bcc	.L15
 276              	.LVL24:
 277              	.L13:
 278              	.LBE87:
 279              	.LBE86:
 336:source\asw/swc_clock.c ****     {
 280              		.loc 1 336 0
 281 0094 002E     		cmp	r6, #0
 282 0096 50D1     		bne	.L16
 283              	.LBB89:
 338:source\asw/swc_clock.c ****         CLOCK_state_t localState = clock.m_hours.m_widgetState;
 284              		.loc 1 338 0
 285 0098 5348     		ldr	r0, .L28+4
 286 009a FFF7FEFF 		bl	UART_LOG_PutString
 287              	.LVL25:
ARM GAS  C:\Users\aditi\AppData\Local\Temp\ccxJli9U.s 			page 19


 339:source\asw/swc_clock.c ****         STATE_processEvent (CLOCK_Widget_Transitions, CLOCK_Widget_Transitions_Size, 0, 0, ev, &loc
 288              		.loc 1 339 0
 289 009e 9DF8C820 		ldrb	r2, [sp, #200]	@ zero_extendqisi2
 290 00a2 38AB     		add	r3, sp, #224
 291 00a4 03F8482D 		strb	r2, [r3, #-72]!
 340:source\asw/swc_clock.c ****         
 292              		.loc 1 340 0
 293 00a8 0193     		str	r3, [sp, #4]
 294 00aa 0097     		str	r7, [sp]
 295 00ac 0023     		movs	r3, #0
 296 00ae 1A46     		mov	r2, r3
 297 00b0 0321     		movs	r1, #3
 298 00b2 4E48     		ldr	r0, .L28+8
 299 00b4 FFF7FEFF 		bl	STATE_processEvent
 300              	.LVL26:
 301              	.LBB90:
 302              	.LBB91:
 265:.\source\rte/sc_clock.h **** }                                                                                                  
 303              		.loc 2 265 0
 304 00b8 DFF828E1 		ldr	lr, .L28
 305 00bc 14AD     		add	r5, sp, #80
 306 00be 7446     		mov	r4, lr
 307 00c0 0FCC     		ldmia	r4!, {r0, r1, r2, r3}
 308 00c2 0FC5     		stmia	r5!, {r0, r1, r2, r3}
 309 00c4 0FCC     		ldmia	r4!, {r0, r1, r2, r3}
 310 00c6 0FC5     		stmia	r5!, {r0, r1, r2, r3}
 311 00c8 2668     		ldr	r6, [r4]
 312 00ca 2E60     		str	r6, [r5]
 313              	.LVL27:
 314              	.LBE91:
 315              	.LBE90:
 343:source\asw/swc_clock.c ****         clock.m_hours.m_widgetState = localState;
 316              		.loc 1 343 0
 317 00cc 2FAD     		add	r5, sp, #188
 318 00ce 14AF     		add	r7, sp, #80
 319 00d0 0FCF     		ldmia	r7!, {r0, r1, r2, r3}
 320 00d2 0FC5     		stmia	r5!, {r0, r1, r2, r3}
 321 00d4 0FCF     		ldmia	r7!, {r0, r1, r2, r3}
 322 00d6 0FC5     		stmia	r5!, {r0, r1, r2, r3}
 323 00d8 3746     		mov	r7, r6
 324 00da 2E60     		str	r6, [r5]
 344:source\asw/swc_clock.c ****                 
 325              		.loc 1 344 0
 326 00dc 9DF89830 		ldrb	r3, [sp, #152]	@ zero_extendqisi2
 327 00e0 8DF8C830 		strb	r3, [sp, #200]
 328              	.LVL28:
 329 00e4 0BAD     		add	r5, sp, #44
 330 00e6 2FAE     		add	r6, sp, #188
 331 00e8 0FCE     		ldmia	r6!, {r0, r1, r2, r3}
 332 00ea 0FC5     		stmia	r5!, {r0, r1, r2, r3}
 333 00ec 0FCE     		ldmia	r6!, {r0, r1, r2, r3}
 334 00ee 0FC5     		stmia	r5!, {r0, r1, r2, r3}
 335 00f0 2F60     		str	r7, [r5]
 336              	.LVL29:
 337              	.LBB92:
 338              	.LBB93:
 304:.\source\rte/sc_clock.h ****    signal->value  = value;
ARM GAS  C:\Users\aditi\AppData\Local\Temp\ccxJli9U.s 			page 20


 339              		.loc 2 304 0
 340 00f2 DEF82CC0 		ldr	ip, [lr, #44]
 305:.\source\rte/sc_clock.h ****    signal->age    = 0;
 341              		.loc 2 305 0
 342 00f6 7546     		mov	r5, lr
 343 00f8 0BAE     		add	r6, sp, #44
 344 00fa 0FCE     		ldmia	r6!, {r0, r1, r2, r3}
 345 00fc 0FC5     		stmia	r5!, {r0, r1, r2, r3}
 346 00fe 0FCE     		ldmia	r6!, {r0, r1, r2, r3}
 347 0100 0FC5     		stmia	r5!, {r0, r1, r2, r3}
 306:.\source\rte/sc_clock.h ****    signal->status = RTE_SIGNALSTATUS_VALID;
 348              		.loc 2 306 0
 349 0102 0023     		movs	r3, #0
 350 0104 CEF82830 		str	r3, [lr, #40]
 307:.\source\rte/sc_clock.h ****    if (TRUE == signal->pSigCfg->resourceActive) ReleaseResource(signal->pSigCfg->resource);
 351              		.loc 2 307 0
 352 0108 0223     		movs	r3, #2
 353 010a 8EF82430 		strb	r3, [lr, #36]
 311:.\source\rte/sc_clock.h **** 
 354              		.loc 2 311 0
 355 010e DCF81450 		ldr	r5, [ip, #20]
 356              	.LVL30:
 313:.\source\rte/sc_clock.h ****       for( taskNum=0 ; taskNum < signal->pSigCfg->onUpdateTaskCount ;taskNum++){
 357              		.loc 2 313 0
 358 0112 DCF80830 		ldr	r3, [ip, #8]
 359 0116 002B     		cmp	r3, #0
 360 0118 60D0     		beq	.L12
 361 011a 3DB9     		cbnz	r5, .L25
 362 011c 5EE0     		b	.L12
 363              	.LVL31:
 364              	.L19:
 365              	.LBB94:
 366              		.loc 2 317 0
 367 011e 9968     		ldr	r1, [r3, #8]
 368 0120 55F82400 		ldr	r0, [r5, r4, lsl #2]
 369 0124 FFF7FEFF 		bl	EE_oo_SetEvent
 370              	.LVL32:
 371              	.LBE94:
 314:.\source\rte/sc_clock.h **** 		  
 372              		.loc 2 314 0
 373 0128 0134     		adds	r4, r4, #1
 374              	.LVL33:
 375 012a 00E0     		b	.L18
 376              	.LVL34:
 377              	.L25:
 313:.\source\rte/sc_clock.h ****       for( taskNum=0 ; taskNum < signal->pSigCfg->onUpdateTaskCount ;taskNum++){
 378              		.loc 2 313 0
 379 012c 0024     		movs	r4, #0
 380              	.LVL35:
 381              	.L18:
 314:.\source\rte/sc_clock.h **** 		  
 382              		.loc 2 314 0
 383 012e 2D4B     		ldr	r3, .L28
 384 0130 DB6A     		ldr	r3, [r3, #44]
 385 0132 1A69     		ldr	r2, [r3, #16]
 386 0134 9442     		cmp	r4, r2
 387 0136 F2D3     		bcc	.L19
ARM GAS  C:\Users\aditi\AppData\Local\Temp\ccxJli9U.s 			page 21


 388 0138 50E0     		b	.L12
 389              	.LVL36:
 390              	.L16:
 391              	.LBE93:
 392              	.LBE92:
 393              	.LBE89:
 349:source\asw/swc_clock.c ****     {
 394              		.loc 1 349 0
 395 013a 012E     		cmp	r6, #1
 396 013c 4ED1     		bne	.L12
 397              	.LBB95:
 351:source\asw/swc_clock.c ****         CLOCK_state_t localState = clock.m_minutes.m_widgetState;
 398              		.loc 1 351 0 discriminator 2
 399 013e 2C48     		ldr	r0, .L28+12
 400 0140 FFF7FEFF 		bl	UART_LOG_PutString
 401              	.LVL37:
 352:source\asw/swc_clock.c ****         STATE_processEvent (CLOCK_Widget_Transitions, CLOCK_Widget_Transitions_Size, 0, 0, ev, &loc
 402              		.loc 1 352 0 discriminator 2
 403 0144 9DF8D420 		ldrb	r2, [sp, #212]	@ zero_extendqisi2
 404 0148 38AB     		add	r3, sp, #224
 405 014a 03F8902D 		strb	r2, [r3, #-144]!
 353:source\asw/swc_clock.c ****         
 406              		.loc 1 353 0 discriminator 2
 407 014e 0193     		str	r3, [sp, #4]
 408 0150 0097     		str	r7, [sp]
 409 0152 0023     		movs	r3, #0
 410 0154 1A46     		mov	r2, r3
 411 0156 0321     		movs	r1, #3
 412 0158 2448     		ldr	r0, .L28+8
 413 015a FFF7FEFF 		bl	STATE_processEvent
 414              	.LVL38:
 415              	.LBB96:
 416              	.LBB97:
 265:.\source\rte/sc_clock.h **** }                                                                                                  
 417              		.loc 2 265 0 discriminator 2
 418 015e DFF884E0 		ldr	lr, .L28
 419 0162 26AD     		add	r5, sp, #152
 420 0164 7446     		mov	r4, lr
 421 0166 0FCC     		ldmia	r4!, {r0, r1, r2, r3}
 422 0168 0FC5     		stmia	r5!, {r0, r1, r2, r3}
 423 016a 0FCC     		ldmia	r4!, {r0, r1, r2, r3}
 424 016c 0FC5     		stmia	r5!, {r0, r1, r2, r3}
 425 016e 2668     		ldr	r6, [r4]
 426 0170 2E60     		str	r6, [r5]
 427              	.LVL39:
 428              	.LBE97:
 429              	.LBE96:
 356:source\asw/swc_clock.c ****         clock.m_minutes.m_widgetState = localState;
 430              		.loc 1 356 0 discriminator 2
 431 0172 2FAD     		add	r5, sp, #188
 432 0174 26AF     		add	r7, sp, #152
 433 0176 0FCF     		ldmia	r7!, {r0, r1, r2, r3}
 434 0178 0FC5     		stmia	r5!, {r0, r1, r2, r3}
 435 017a 0FCF     		ldmia	r7!, {r0, r1, r2, r3}
 436 017c 0FC5     		stmia	r5!, {r0, r1, r2, r3}
 437 017e 3746     		mov	r7, r6
 438 0180 2E60     		str	r6, [r5]
ARM GAS  C:\Users\aditi\AppData\Local\Temp\ccxJli9U.s 			page 22


 357:source\asw/swc_clock.c ****         
 439              		.loc 1 357 0 discriminator 2
 440 0182 9DF85030 		ldrb	r3, [sp, #80]	@ zero_extendqisi2
 441 0186 8DF8D430 		strb	r3, [sp, #212]
 442              	.LVL40:
 443 018a 1DAD     		add	r5, sp, #116
 444 018c 2FAE     		add	r6, sp, #188
 445 018e 0FCE     		ldmia	r6!, {r0, r1, r2, r3}
 446 0190 0FC5     		stmia	r5!, {r0, r1, r2, r3}
 447 0192 0FCE     		ldmia	r6!, {r0, r1, r2, r3}
 448 0194 0FC5     		stmia	r5!, {r0, r1, r2, r3}
 449 0196 2F60     		str	r7, [r5]
 450              	.LVL41:
 451              	.LBB98:
 452              	.LBB99:
 304:.\source\rte/sc_clock.h ****    signal->value  = value;
 453              		.loc 2 304 0 discriminator 2
 454 0198 DEF82CC0 		ldr	ip, [lr, #44]
 305:.\source\rte/sc_clock.h ****    signal->age    = 0;
 455              		.loc 2 305 0 discriminator 2
 456 019c 7546     		mov	r5, lr
 457 019e 1DAE     		add	r6, sp, #116
 458 01a0 0FCE     		ldmia	r6!, {r0, r1, r2, r3}
 459 01a2 0FC5     		stmia	r5!, {r0, r1, r2, r3}
 460 01a4 0FCE     		ldmia	r6!, {r0, r1, r2, r3}
 461 01a6 0FC5     		stmia	r5!, {r0, r1, r2, r3}
 306:.\source\rte/sc_clock.h ****    signal->status = RTE_SIGNALSTATUS_VALID;
 462              		.loc 2 306 0 discriminator 2
 463 01a8 0023     		movs	r3, #0
 464 01aa CEF82830 		str	r3, [lr, #40]
 307:.\source\rte/sc_clock.h ****    if (TRUE == signal->pSigCfg->resourceActive) ReleaseResource(signal->pSigCfg->resource);
 465              		.loc 2 307 0 discriminator 2
 466 01ae 0223     		movs	r3, #2
 467 01b0 8EF82430 		strb	r3, [lr, #36]
 311:.\source\rte/sc_clock.h **** 
 468              		.loc 2 311 0 discriminator 2
 469 01b4 DCF81450 		ldr	r5, [ip, #20]
 470              	.LVL42:
 313:.\source\rte/sc_clock.h ****       for( taskNum=0 ; taskNum < signal->pSigCfg->onUpdateTaskCount ;taskNum++){
 471              		.loc 2 313 0 discriminator 2
 472 01b8 DCF80830 		ldr	r3, [ip, #8]
 473 01bc 73B1     		cbz	r3, .L12
 313:.\source\rte/sc_clock.h ****       for( taskNum=0 ; taskNum < signal->pSigCfg->onUpdateTaskCount ;taskNum++){
 474              		.loc 2 313 0 is_stmt 0
 475 01be 3DB9     		cbnz	r5, .L26
 476 01c0 0CE0     		b	.L12
 477              	.LVL43:
 478              	.L23:
 479              	.LBB100:
 480              		.loc 2 317 0 is_stmt 1
 481 01c2 9968     		ldr	r1, [r3, #8]
 482 01c4 55F82400 		ldr	r0, [r5, r4, lsl #2]
 483 01c8 FFF7FEFF 		bl	EE_oo_SetEvent
 484              	.LVL44:
 485              	.LBE100:
 314:.\source\rte/sc_clock.h **** 		  
 486              		.loc 2 314 0
ARM GAS  C:\Users\aditi\AppData\Local\Temp\ccxJli9U.s 			page 23


 487 01cc 0134     		adds	r4, r4, #1
 488              	.LVL45:
 489 01ce 00E0     		b	.L22
 490              	.LVL46:
 491              	.L26:
 313:.\source\rte/sc_clock.h ****       for( taskNum=0 ; taskNum < signal->pSigCfg->onUpdateTaskCount ;taskNum++){
 492              		.loc 2 313 0
 493 01d0 0024     		movs	r4, #0
 494              	.LVL47:
 495              	.L22:
 314:.\source\rte/sc_clock.h **** 		  
 496              		.loc 2 314 0
 497 01d2 044B     		ldr	r3, .L28
 498 01d4 DB6A     		ldr	r3, [r3, #44]
 499 01d6 1A69     		ldr	r2, [r3, #16]
 500 01d8 9442     		cmp	r4, r2
 501 01da F2D3     		bcc	.L23
 502              	.LVL48:
 503              	.L12:
 504              	.LBE99:
 505              	.LBE98:
 506              	.LBE95:
 362:source\asw/swc_clock.c **** 
 507              		.loc 1 362 0
 508 01dc 39B0     		add	sp, sp, #228
 509              		.cfi_def_cfa_offset 28
 510              		@ sp needed
 511 01de BDE8F083 		pop	{r4, r5, r6, r7, r8, r9, pc}
 512              	.L29:
 513 01e2 00BF     		.align	2
 514              	.L28:
 515 01e4 00000000 		.word	SO_CLOCK_signal
 516 01e8 20000000 		.word	.LC1
 517 01ec 00000000 		.word	.LANCHOR0
 518 01f0 44000000 		.word	.LC2
 519              		.cfi_endproc
 520              	.LFE144:
 521              		.size	CLOCK__dispatch_wrapper, .-CLOCK__dispatch_wrapper
 522              		.section	.text.CLOCK__dispatch_250MS_Min,"ax",%progbits
 523              		.align	2
 524              		.thumb
 525              		.thumb_func
 526              		.type	CLOCK__dispatch_250MS_Min, %function
 527              	CLOCK__dispatch_250MS_Min:
 528              	.LFB154:
 406:source\asw/swc_clock.c **** 
 407:source\asw/swc_clock.c **** static void CLOCK__dispatch_KL_HoursMin()
 408:source\asw/swc_clock.c **** {
 409:source\asw/swc_clock.c ****     UART_LOG_PutString("In CLOCK__dispatch_KL_HoursMin function\n");
 410:source\asw/swc_clock.c ****     CLOCK__dispatch_wrapper(EV_KEYLEFT, CLOCK_HOURSWIDGET);
 411:source\asw/swc_clock.c ****     CLOCK__dispatch_wrapper(EV_KEYLEFT, CLOCK_MINUTESWIDGET);
 412:source\asw/swc_clock.c **** }
 413:source\asw/swc_clock.c **** 
 414:source\asw/swc_clock.c **** static void CLOCK__dispatch_KR_Hours()
 415:source\asw/swc_clock.c **** {
 416:source\asw/swc_clock.c ****     UART_LOG_PutString("In CLOCK__dispatch_KR_Hours function\n");
 417:source\asw/swc_clock.c ****     CLOCK__dispatch_wrapper(EV_KEYRIGHT, CLOCK_HOURSWIDGET);
ARM GAS  C:\Users\aditi\AppData\Local\Temp\ccxJli9U.s 			page 24


 418:source\asw/swc_clock.c **** 
 419:source\asw/swc_clock.c **** }
 420:source\asw/swc_clock.c **** 
 421:source\asw/swc_clock.c **** static void CLOCK__dispatch_KRLP_Hours()
 422:source\asw/swc_clock.c **** {
 423:source\asw/swc_clock.c ****     UART_LOG_PutString("In CLOCK__dispatch_KRLP_Hours function\n");
 424:source\asw/swc_clock.c ****     CLOCK__dispatch_wrapper(EV_KEYRIGHTLONGPRESS, CLOCK_HOURSWIDGET);
 425:source\asw/swc_clock.c **** }
 426:source\asw/swc_clock.c **** 
 427:source\asw/swc_clock.c **** static void CLOCK__dispatch_250MS_Hours()
 428:source\asw/swc_clock.c **** {
 429:source\asw/swc_clock.c ****     UART_LOG_PutString("In CLOCK__dispatch_250MS_Hours function\n");
 430:source\asw/swc_clock.c ****     CLOCK__dispatch_wrapper(EV_250MS, CLOCK_HOURSWIDGET);
 431:source\asw/swc_clock.c **** }
 432:source\asw/swc_clock.c **** 
 433:source\asw/swc_clock.c **** static void CLOCK__dispatch_KR_Min()
 434:source\asw/swc_clock.c **** {
 435:source\asw/swc_clock.c ****     UART_LOG_PutString("In CLOCK__dispatch_KR_Min function\n");
 436:source\asw/swc_clock.c ****     CLOCK__dispatch_wrapper(EV_KEYRIGHT, CLOCK_MINUTESWIDGET);
 437:source\asw/swc_clock.c **** }
 438:source\asw/swc_clock.c **** 
 439:source\asw/swc_clock.c **** static void CLOCK__dispatch_KRLP_Min()
 440:source\asw/swc_clock.c **** {
 441:source\asw/swc_clock.c ****     UART_LOG_PutString("In CLOCK__dispatch_KRLP_Min function\n"); 
 442:source\asw/swc_clock.c ****     CLOCK__dispatch_wrapper(EV_KEYRIGHTLONGPRESS, CLOCK_MINUTESWIDGET);
 443:source\asw/swc_clock.c **** }
 444:source\asw/swc_clock.c **** 
 445:source\asw/swc_clock.c **** static void CLOCK__dispatch_250MS_Min()
 446:source\asw/swc_clock.c **** {
 529              		.loc 1 446 0
 530              		.cfi_startproc
 531              		@ args = 0, pretend = 0, frame = 0
 532              		@ frame_needed = 0, uses_anonymous_args = 0
 533 0000 08B5     		push	{r3, lr}
 534              		.cfi_def_cfa_offset 8
 535              		.cfi_offset 3, -8
 536              		.cfi_offset 14, -4
 447:source\asw/swc_clock.c ****     UART_LOG_PutString("In CLOCK__dispatch_250MS_Min function\n");
 537              		.loc 1 447 0
 538 0002 0448     		ldr	r0, .L32
 539 0004 FFF7FEFF 		bl	UART_LOG_PutString
 540              	.LVL49:
 448:source\asw/swc_clock.c ****     CLOCK__dispatch_wrapper(EV_250MS, CLOCK_MINUTESWIDGET);
 541              		.loc 1 448 0
 542 0008 0121     		movs	r1, #1
 543 000a 0520     		movs	r0, #5
 544 000c FFF7FEFF 		bl	CLOCK__dispatch_wrapper
 545              	.LVL50:
 546 0010 08BD     		pop	{r3, pc}
 547              	.L33:
 548 0012 00BF     		.align	2
 549              	.L32:
 550 0014 6C000000 		.word	.LC3
 551              		.cfi_endproc
 552              	.LFE154:
 553              		.size	CLOCK__dispatch_250MS_Min, .-CLOCK__dispatch_250MS_Min
 554              		.section	.text.CLOCK__dispatch_KRLP_Min,"ax",%progbits
ARM GAS  C:\Users\aditi\AppData\Local\Temp\ccxJli9U.s 			page 25


 555              		.align	2
 556              		.thumb
 557              		.thumb_func
 558              		.type	CLOCK__dispatch_KRLP_Min, %function
 559              	CLOCK__dispatch_KRLP_Min:
 560              	.LFB153:
 440:source\asw/swc_clock.c ****     UART_LOG_PutString("In CLOCK__dispatch_KRLP_Min function\n"); 
 561              		.loc 1 440 0
 562              		.cfi_startproc
 563              		@ args = 0, pretend = 0, frame = 0
 564              		@ frame_needed = 0, uses_anonymous_args = 0
 565 0000 08B5     		push	{r3, lr}
 566              		.cfi_def_cfa_offset 8
 567              		.cfi_offset 3, -8
 568              		.cfi_offset 14, -4
 441:source\asw/swc_clock.c ****     CLOCK__dispatch_wrapper(EV_KEYRIGHTLONGPRESS, CLOCK_MINUTESWIDGET);
 569              		.loc 1 441 0
 570 0002 0448     		ldr	r0, .L36
 571 0004 FFF7FEFF 		bl	UART_LOG_PutString
 572              	.LVL51:
 442:source\asw/swc_clock.c **** }
 573              		.loc 1 442 0
 574 0008 0121     		movs	r1, #1
 575 000a 0320     		movs	r0, #3
 576 000c FFF7FEFF 		bl	CLOCK__dispatch_wrapper
 577              	.LVL52:
 578 0010 08BD     		pop	{r3, pc}
 579              	.L37:
 580 0012 00BF     		.align	2
 581              	.L36:
 582 0014 94000000 		.word	.LC4
 583              		.cfi_endproc
 584              	.LFE153:
 585              		.size	CLOCK__dispatch_KRLP_Min, .-CLOCK__dispatch_KRLP_Min
 586              		.section	.text.CLOCK__dispatch_KR_Min,"ax",%progbits
 587              		.align	2
 588              		.thumb
 589              		.thumb_func
 590              		.type	CLOCK__dispatch_KR_Min, %function
 591              	CLOCK__dispatch_KR_Min:
 592              	.LFB152:
 434:source\asw/swc_clock.c ****     UART_LOG_PutString("In CLOCK__dispatch_KR_Min function\n");
 593              		.loc 1 434 0
 594              		.cfi_startproc
 595              		@ args = 0, pretend = 0, frame = 0
 596              		@ frame_needed = 0, uses_anonymous_args = 0
 597 0000 08B5     		push	{r3, lr}
 598              		.cfi_def_cfa_offset 8
 599              		.cfi_offset 3, -8
 600              		.cfi_offset 14, -4
 435:source\asw/swc_clock.c ****     CLOCK__dispatch_wrapper(EV_KEYRIGHT, CLOCK_MINUTESWIDGET);
 601              		.loc 1 435 0
 602 0002 0448     		ldr	r0, .L40
 603 0004 FFF7FEFF 		bl	UART_LOG_PutString
 604              	.LVL53:
 436:source\asw/swc_clock.c **** }
 605              		.loc 1 436 0
ARM GAS  C:\Users\aditi\AppData\Local\Temp\ccxJli9U.s 			page 26


 606 0008 0121     		movs	r1, #1
 607 000a 0220     		movs	r0, #2
 608 000c FFF7FEFF 		bl	CLOCK__dispatch_wrapper
 609              	.LVL54:
 610 0010 08BD     		pop	{r3, pc}
 611              	.L41:
 612 0012 00BF     		.align	2
 613              	.L40:
 614 0014 BC000000 		.word	.LC5
 615              		.cfi_endproc
 616              	.LFE152:
 617              		.size	CLOCK__dispatch_KR_Min, .-CLOCK__dispatch_KR_Min
 618              		.section	.text.CLOCK__dispatch_KL_Min,"ax",%progbits
 619              		.align	2
 620              		.thumb
 621              		.thumb_func
 622              		.type	CLOCK__dispatch_KL_Min, %function
 623              	CLOCK__dispatch_KL_Min:
 624              	.LFB146:
 371:source\asw/swc_clock.c ****     UART_LOG_PutString("In CLOCK__dispatch_KL_Min function\n");
 625              		.loc 1 371 0
 626              		.cfi_startproc
 627              		@ args = 0, pretend = 0, frame = 0
 628              		@ frame_needed = 0, uses_anonymous_args = 0
 629 0000 08B5     		push	{r3, lr}
 630              		.cfi_def_cfa_offset 8
 631              		.cfi_offset 3, -8
 632              		.cfi_offset 14, -4
 372:source\asw/swc_clock.c ****     CLOCK__dispatch_wrapper(EV_KEYLEFT, CLOCK_MINUTESWIDGET);
 633              		.loc 1 372 0
 634 0002 0448     		ldr	r0, .L44
 635 0004 FFF7FEFF 		bl	UART_LOG_PutString
 636              	.LVL55:
 373:source\asw/swc_clock.c **** }
 637              		.loc 1 373 0
 638 0008 0121     		movs	r1, #1
 639 000a 0846     		mov	r0, r1
 640 000c FFF7FEFF 		bl	CLOCK__dispatch_wrapper
 641              	.LVL56:
 642 0010 08BD     		pop	{r3, pc}
 643              	.L45:
 644 0012 00BF     		.align	2
 645              	.L44:
 646 0014 E0000000 		.word	.LC6
 647              		.cfi_endproc
 648              	.LFE146:
 649              		.size	CLOCK__dispatch_KL_Min, .-CLOCK__dispatch_KL_Min
 650              		.section	.text.CLOCK__dispatch_250MS_Hours,"ax",%progbits
 651              		.align	2
 652              		.thumb
 653              		.thumb_func
 654              		.type	CLOCK__dispatch_250MS_Hours, %function
 655              	CLOCK__dispatch_250MS_Hours:
 656              	.LFB151:
 428:source\asw/swc_clock.c ****     UART_LOG_PutString("In CLOCK__dispatch_250MS_Hours function\n");
 657              		.loc 1 428 0
 658              		.cfi_startproc
ARM GAS  C:\Users\aditi\AppData\Local\Temp\ccxJli9U.s 			page 27


 659              		@ args = 0, pretend = 0, frame = 0
 660              		@ frame_needed = 0, uses_anonymous_args = 0
 661 0000 08B5     		push	{r3, lr}
 662              		.cfi_def_cfa_offset 8
 663              		.cfi_offset 3, -8
 664              		.cfi_offset 14, -4
 429:source\asw/swc_clock.c ****     CLOCK__dispatch_wrapper(EV_250MS, CLOCK_HOURSWIDGET);
 665              		.loc 1 429 0
 666 0002 0448     		ldr	r0, .L48
 667 0004 FFF7FEFF 		bl	UART_LOG_PutString
 668              	.LVL57:
 430:source\asw/swc_clock.c **** }
 669              		.loc 1 430 0
 670 0008 0021     		movs	r1, #0
 671 000a 0520     		movs	r0, #5
 672 000c FFF7FEFF 		bl	CLOCK__dispatch_wrapper
 673              	.LVL58:
 674 0010 08BD     		pop	{r3, pc}
 675              	.L49:
 676 0012 00BF     		.align	2
 677              	.L48:
 678 0014 04010000 		.word	.LC7
 679              		.cfi_endproc
 680              	.LFE151:
 681              		.size	CLOCK__dispatch_250MS_Hours, .-CLOCK__dispatch_250MS_Hours
 682              		.section	.text.CLOCK__dispatch_KRLP_Hours,"ax",%progbits
 683              		.align	2
 684              		.thumb
 685              		.thumb_func
 686              		.type	CLOCK__dispatch_KRLP_Hours, %function
 687              	CLOCK__dispatch_KRLP_Hours:
 688              	.LFB150:
 422:source\asw/swc_clock.c ****     UART_LOG_PutString("In CLOCK__dispatch_KRLP_Hours function\n");
 689              		.loc 1 422 0
 690              		.cfi_startproc
 691              		@ args = 0, pretend = 0, frame = 0
 692              		@ frame_needed = 0, uses_anonymous_args = 0
 693 0000 08B5     		push	{r3, lr}
 694              		.cfi_def_cfa_offset 8
 695              		.cfi_offset 3, -8
 696              		.cfi_offset 14, -4
 423:source\asw/swc_clock.c ****     CLOCK__dispatch_wrapper(EV_KEYRIGHTLONGPRESS, CLOCK_HOURSWIDGET);
 697              		.loc 1 423 0
 698 0002 0448     		ldr	r0, .L52
 699 0004 FFF7FEFF 		bl	UART_LOG_PutString
 700              	.LVL59:
 424:source\asw/swc_clock.c **** }
 701              		.loc 1 424 0
 702 0008 0021     		movs	r1, #0
 703 000a 0320     		movs	r0, #3
 704 000c FFF7FEFF 		bl	CLOCK__dispatch_wrapper
 705              	.LVL60:
 706 0010 08BD     		pop	{r3, pc}
 707              	.L53:
 708 0012 00BF     		.align	2
 709              	.L52:
 710 0014 30010000 		.word	.LC8
ARM GAS  C:\Users\aditi\AppData\Local\Temp\ccxJli9U.s 			page 28


 711              		.cfi_endproc
 712              	.LFE150:
 713              		.size	CLOCK__dispatch_KRLP_Hours, .-CLOCK__dispatch_KRLP_Hours
 714              		.section	.text.CLOCK__dispatch_KR_Hours,"ax",%progbits
 715              		.align	2
 716              		.thumb
 717              		.thumb_func
 718              		.type	CLOCK__dispatch_KR_Hours, %function
 719              	CLOCK__dispatch_KR_Hours:
 720              	.LFB149:
 415:source\asw/swc_clock.c ****     UART_LOG_PutString("In CLOCK__dispatch_KR_Hours function\n");
 721              		.loc 1 415 0
 722              		.cfi_startproc
 723              		@ args = 0, pretend = 0, frame = 0
 724              		@ frame_needed = 0, uses_anonymous_args = 0
 725 0000 08B5     		push	{r3, lr}
 726              		.cfi_def_cfa_offset 8
 727              		.cfi_offset 3, -8
 728              		.cfi_offset 14, -4
 416:source\asw/swc_clock.c ****     CLOCK__dispatch_wrapper(EV_KEYRIGHT, CLOCK_HOURSWIDGET);
 729              		.loc 1 416 0
 730 0002 0448     		ldr	r0, .L56
 731 0004 FFF7FEFF 		bl	UART_LOG_PutString
 732              	.LVL61:
 417:source\asw/swc_clock.c **** 
 733              		.loc 1 417 0
 734 0008 0021     		movs	r1, #0
 735 000a 0220     		movs	r0, #2
 736 000c FFF7FEFF 		bl	CLOCK__dispatch_wrapper
 737              	.LVL62:
 738 0010 08BD     		pop	{r3, pc}
 739              	.L57:
 740 0012 00BF     		.align	2
 741              	.L56:
 742 0014 58010000 		.word	.LC9
 743              		.cfi_endproc
 744              	.LFE149:
 745              		.size	CLOCK__dispatch_KR_Hours, .-CLOCK__dispatch_KR_Hours
 746              		.section	.text.CLOCK__dispatch_KL_HoursMin,"ax",%progbits
 747              		.align	2
 748              		.thumb
 749              		.thumb_func
 750              		.type	CLOCK__dispatch_KL_HoursMin, %function
 751              	CLOCK__dispatch_KL_HoursMin:
 752              	.LFB148:
 408:source\asw/swc_clock.c ****     UART_LOG_PutString("In CLOCK__dispatch_KL_HoursMin function\n");
 753              		.loc 1 408 0
 754              		.cfi_startproc
 755              		@ args = 0, pretend = 0, frame = 0
 756              		@ frame_needed = 0, uses_anonymous_args = 0
 757 0000 08B5     		push	{r3, lr}
 758              		.cfi_def_cfa_offset 8
 759              		.cfi_offset 3, -8
 760              		.cfi_offset 14, -4
 409:source\asw/swc_clock.c ****     CLOCK__dispatch_wrapper(EV_KEYLEFT, CLOCK_HOURSWIDGET);
 761              		.loc 1 409 0
 762 0002 0648     		ldr	r0, .L60
ARM GAS  C:\Users\aditi\AppData\Local\Temp\ccxJli9U.s 			page 29


 763 0004 FFF7FEFF 		bl	UART_LOG_PutString
 764              	.LVL63:
 410:source\asw/swc_clock.c ****     CLOCK__dispatch_wrapper(EV_KEYLEFT, CLOCK_MINUTESWIDGET);
 765              		.loc 1 410 0
 766 0008 0021     		movs	r1, #0
 767 000a 0120     		movs	r0, #1
 768 000c FFF7FEFF 		bl	CLOCK__dispatch_wrapper
 769              	.LVL64:
 411:source\asw/swc_clock.c **** }
 770              		.loc 1 411 0
 771 0010 0121     		movs	r1, #1
 772 0012 0846     		mov	r0, r1
 773 0014 FFF7FEFF 		bl	CLOCK__dispatch_wrapper
 774              	.LVL65:
 775 0018 08BD     		pop	{r3, pc}
 776              	.L61:
 777 001a 00BF     		.align	2
 778              	.L60:
 779 001c 80010000 		.word	.LC10
 780              		.cfi_endproc
 781              	.LFE148:
 782              		.size	CLOCK__dispatch_KL_HoursMin, .-CLOCK__dispatch_KL_HoursMin
 783              		.section	.text.CLOCK__dispatch_KL_Hours,"ax",%progbits
 784              		.align	2
 785              		.thumb
 786              		.thumb_func
 787              		.type	CLOCK__dispatch_KL_Hours, %function
 788              	CLOCK__dispatch_KL_Hours:
 789              	.LFB145:
 365:source\asw/swc_clock.c ****     UART_LOG_PutString("In CLOCK__dispatch_KL_Hours function\n");
 790              		.loc 1 365 0
 791              		.cfi_startproc
 792              		@ args = 0, pretend = 0, frame = 0
 793              		@ frame_needed = 0, uses_anonymous_args = 0
 794 0000 08B5     		push	{r3, lr}
 795              		.cfi_def_cfa_offset 8
 796              		.cfi_offset 3, -8
 797              		.cfi_offset 14, -4
 366:source\asw/swc_clock.c ****     CLOCK__dispatch_wrapper(EV_KEYLEFT, CLOCK_HOURSWIDGET);
 798              		.loc 1 366 0
 799 0002 0448     		ldr	r0, .L64
 800 0004 FFF7FEFF 		bl	UART_LOG_PutString
 801              	.LVL66:
 367:source\asw/swc_clock.c **** }
 802              		.loc 1 367 0
 803 0008 0021     		movs	r1, #0
 804 000a 0120     		movs	r0, #1
 805 000c FFF7FEFF 		bl	CLOCK__dispatch_wrapper
 806              	.LVL67:
 807 0010 08BD     		pop	{r3, pc}
 808              	.L65:
 809 0012 00BF     		.align	2
 810              	.L64:
 811 0014 AC010000 		.word	.LC11
 812              		.cfi_endproc
 813              	.LFE145:
 814              		.size	CLOCK__dispatch_KL_Hours, .-CLOCK__dispatch_KL_Hours
ARM GAS  C:\Users\aditi\AppData\Local\Temp\ccxJli9U.s 			page 30


 815              		.section	.text.CLOCK__setEditFonts,"ax",%progbits
 816              		.align	2
 817              		.thumb
 818              		.thumb_func
 819              		.type	CLOCK__setEditFonts, %function
 820              	CLOCK__setEditFonts:
 821              	.LFB155:
 449:source\asw/swc_clock.c **** }
 450:source\asw/swc_clock.c **** 
 451:source\asw/swc_clock.c **** static void CLOCK__setEditFonts()
 452:source\asw/swc_clock.c **** {
 822              		.loc 1 452 0
 823              		.cfi_startproc
 824              		@ args = 0, pretend = 0, frame = 40
 825              		@ frame_needed = 0, uses_anonymous_args = 0
 826 0000 30B5     		push	{r4, r5, lr}
 827              		.cfi_def_cfa_offset 12
 828              		.cfi_offset 4, -12
 829              		.cfi_offset 5, -8
 830              		.cfi_offset 14, -4
 831 0002 8DB0     		sub	sp, sp, #52
 832              		.cfi_def_cfa_offset 64
 453:source\asw/swc_clock.c ****     UART_LOG_PutString("In CLOCK__setEditFonts function\n");
 833              		.loc 1 453 0
 834 0004 2248     		ldr	r0, .L70
 835 0006 FFF7FEFF 		bl	UART_LOG_PutString
 836              	.LVL68:
 837              	.LBB101:
 838              	.LBB102:
 265:.\source\rte/sc_clock.h **** }                                                                                                  
 839              		.loc 2 265 0
 840 000a 03AC     		add	r4, sp, #12
 841 000c 214D     		ldr	r5, .L70+4
 842 000e 0FCD     		ldmia	r5!, {r0, r1, r2, r3}
 843 0010 0FC4     		stmia	r4!, {r0, r1, r2, r3}
 844 0012 0FCD     		ldmia	r5!, {r0, r1, r2, r3}
 845 0014 0FC4     		stmia	r4!, {r0, r1, r2, r3}
 846 0016 2B68     		ldr	r3, [r5]
 847 0018 2360     		str	r3, [r4]
 848              	.LVL69:
 849              	.LBE102:
 850              	.LBE101:
 454:source\asw/swc_clock.c ****     
 455:source\asw/swc_clock.c ****     //Get a local copy of the clock signal
 456:source\asw/swc_clock.c ****     SC_CLOCK_data_t clock = RTE_SC_CLOCK_get(&SO_CLOCK_signal);
 457:source\asw/swc_clock.c ****     
 458:source\asw/swc_clock.c ****     //Check for the active widget and set it to edit mode, reset the other widget to display mode
 459:source\asw/swc_clock.c ****     if(CLOCK_HOURSWIDGET == clock.m_activeWidget)
 851              		.loc 1 459 0
 852 001a 9DF81430 		ldrb	r3, [sp, #20]	@ zero_extendqisi2
 853 001e CBB9     		cbnz	r3, .L67
 460:source\asw/swc_clock.c ****     {
 461:source\asw/swc_clock.c ****         //Setting the hour widget to edit mode
 462:source\asw/swc_clock.c ****         TFT_setCursor(TFT_HOUR_X_COORDINATE, TFT_WIDGET_Y_COORDINATE);
 854              		.loc 1 462 0
 855 0020 4921     		movs	r1, #73
 856 0022 1820     		movs	r0, #24
ARM GAS  C:\Users\aditi\AppData\Local\Temp\ccxJli9U.s 			page 31


 857 0024 FFF7FEFF 		bl	TFT_setCursor
 858              	.LVL70:
 463:source\asw/swc_clock.c ****         TFT_fillRect(TFT_HOUR_X_COORDINATE, TFT_WIDGET_Y_COORDINATE, TFT_EDITMODE_WIDTH, TFT_EDITMO
 859              		.loc 1 463 0
 860 0028 4FF6FF73 		movw	r3, #65535
 861 002c 0093     		str	r3, [sp]
 862 002e 1B23     		movs	r3, #27
 863 0030 2422     		movs	r2, #36
 864 0032 4921     		movs	r1, #73
 865 0034 1820     		movs	r0, #24
 866 0036 FFF7FEFF 		bl	TFT_fillRect
 867              	.LVL71:
 464:source\asw/swc_clock.c ****         
 465:source\asw/swc_clock.c ****         //Resetting the minute widget to display mode
 466:source\asw/swc_clock.c ****         TFT_setCursor(TFT_MINUTE_X_COORDINATE, TFT_WIDGET_Y_COORDINATE);
 868              		.loc 1 466 0
 869 003a 4921     		movs	r1, #73
 870 003c 4420     		movs	r0, #68
 871 003e FFF7FEFF 		bl	TFT_setCursor
 872              	.LVL72:
 467:source\asw/swc_clock.c ****         TFT_fillRect(TFT_MINUTE_X_COORDINATE, TFT_WIDGET_Y_COORDINATE, 36, 27, BLACK);
 873              		.loc 1 467 0
 874 0042 0023     		movs	r3, #0
 875 0044 0093     		str	r3, [sp]
 876 0046 1B23     		movs	r3, #27
 877 0048 2422     		movs	r2, #36
 878 004a 4921     		movs	r1, #73
 879 004c 4420     		movs	r0, #68
 880 004e FFF7FEFF 		bl	TFT_fillRect
 881              	.LVL73:
 882 0052 1AE0     		b	.L66
 883              	.L67:
 468:source\asw/swc_clock.c ****     }
 469:source\asw/swc_clock.c ****     else if(CLOCK_MINUTESWIDGET == clock.m_activeWidget)
 884              		.loc 1 469 0
 885 0054 012B     		cmp	r3, #1
 886 0056 18D1     		bne	.L66
 470:source\asw/swc_clock.c ****     {
 471:source\asw/swc_clock.c ****         //Resetting the hour widget to display mode
 472:source\asw/swc_clock.c ****         TFT_setCursor(TFT_HOUR_X_COORDINATE, TFT_WIDGET_Y_COORDINATE);
 887              		.loc 1 472 0
 888 0058 4921     		movs	r1, #73
 889 005a 1820     		movs	r0, #24
 890 005c FFF7FEFF 		bl	TFT_setCursor
 891              	.LVL74:
 473:source\asw/swc_clock.c ****         TFT_fillRect(TFT_HOUR_X_COORDINATE, TFT_WIDGET_Y_COORDINATE, TFT_EDITMODE_WIDTH, TFT_EDITMO
 892              		.loc 1 473 0
 893 0060 0023     		movs	r3, #0
 894 0062 0093     		str	r3, [sp]
 895 0064 1B23     		movs	r3, #27
 896 0066 2422     		movs	r2, #36
 897 0068 4921     		movs	r1, #73
 898 006a 1820     		movs	r0, #24
 899 006c FFF7FEFF 		bl	TFT_fillRect
 900              	.LVL75:
 474:source\asw/swc_clock.c ****         
 475:source\asw/swc_clock.c ****         //Setting the minute widget to edit mode
ARM GAS  C:\Users\aditi\AppData\Local\Temp\ccxJli9U.s 			page 32


 476:source\asw/swc_clock.c ****         TFT_setCursor(TFT_MINUTE_X_COORDINATE, TFT_WIDGET_Y_COORDINATE);
 901              		.loc 1 476 0
 902 0070 4921     		movs	r1, #73
 903 0072 4420     		movs	r0, #68
 904 0074 FFF7FEFF 		bl	TFT_setCursor
 905              	.LVL76:
 477:source\asw/swc_clock.c ****         TFT_fillRect(TFT_MINUTE_X_COORDINATE, TFT_WIDGET_Y_COORDINATE, TFT_EDITMODE_WIDTH, TFT_EDIT
 906              		.loc 1 477 0
 907 0078 4FF6FF73 		movw	r3, #65535
 908 007c 0093     		str	r3, [sp]
 909 007e 1B23     		movs	r3, #27
 910 0080 2422     		movs	r2, #36
 911 0082 4921     		movs	r1, #73
 912 0084 4420     		movs	r0, #68
 913 0086 FFF7FEFF 		bl	TFT_fillRect
 914              	.LVL77:
 915              	.L66:
 478:source\asw/swc_clock.c ****     }
 479:source\asw/swc_clock.c ****     else {/*do nothing*/}
 480:source\asw/swc_clock.c **** }
 916              		.loc 1 480 0
 917 008a 0DB0     		add	sp, sp, #52
 918              		.cfi_def_cfa_offset 12
 919              		@ sp needed
 920 008c 30BD     		pop	{r4, r5, pc}
 921              	.L71:
 922 008e 00BF     		.align	2
 923              	.L70:
 924 0090 D4010000 		.word	.LC12
 925 0094 00000000 		.word	SO_CLOCK_signal
 926              		.cfi_endproc
 927              	.LFE155:
 928              		.size	CLOCK__setEditFonts, .-CLOCK__setEditFonts
 929              		.section	.text.CLOCK__setDisplayFonts,"ax",%progbits
 930              		.align	2
 931              		.thumb
 932              		.thumb_func
 933              		.type	CLOCK__setDisplayFonts, %function
 934              	CLOCK__setDisplayFonts:
 935              	.LFB157:
 481:source\asw/swc_clock.c **** 
 482:source\asw/swc_clock.c **** static void CLOCK__incrementWidget()
 483:source\asw/swc_clock.c **** {
 484:source\asw/swc_clock.c ****     UART_LOG_PutString("In CLOCK__incrementWidget function\n"); 
 485:source\asw/swc_clock.c ****     
 486:source\asw/swc_clock.c ****     //Get local copy of clock signal
 487:source\asw/swc_clock.c ****     SC_CLOCK_data_t clockData = RTE_SC_CLOCK_get(&SO_CLOCK_signal);
 488:source\asw/swc_clock.c ****     
 489:source\asw/swc_clock.c ****     //Check the active widget
 490:source\asw/swc_clock.c ****     if(CLOCK_HOURSWIDGET == clockData.m_activeWidget)
 491:source\asw/swc_clock.c ****     {
 492:source\asw/swc_clock.c ****         //Increment by 1 when hour value less than max, else reset to zero
 493:source\asw/swc_clock.c ****         if (clockData.m_hours.m_value < HOURFORMAT_24_MAX)
 494:source\asw/swc_clock.c ****         {
 495:source\asw/swc_clock.c ****             clockData.m_hours.m_value += 1;
 496:source\asw/swc_clock.c ****             UART_LOG_PutString("Hour value: ");
 497:source\asw/swc_clock.c ****             UART_LOG_PutChar(clockData.m_hours.m_value);
ARM GAS  C:\Users\aditi\AppData\Local\Temp\ccxJli9U.s 			page 33


 498:source\asw/swc_clock.c ****         }
 499:source\asw/swc_clock.c ****         else
 500:source\asw/swc_clock.c ****         {
 501:source\asw/swc_clock.c ****             clockData.m_hours.m_value = 0;
 502:source\asw/swc_clock.c ****         }
 503:source\asw/swc_clock.c ****     }
 504:source\asw/swc_clock.c ****     else if(CLOCK_MINUTESWIDGET == clockData.m_activeWidget)
 505:source\asw/swc_clock.c ****     {
 506:source\asw/swc_clock.c ****         //Increment by 1 when minute value less than maximum value, else reset to zero
 507:source\asw/swc_clock.c ****         if (clockData.m_minutes.m_value < MINUTES_MAX)
 508:source\asw/swc_clock.c ****         {
 509:source\asw/swc_clock.c ****             clockData.m_minutes.m_value += 1;
 510:source\asw/swc_clock.c ****             UART_LOG_PutString("Minute value: ");
 511:source\asw/swc_clock.c ****             UART_LOG_PutChar(clockData.m_minutes.m_value);
 512:source\asw/swc_clock.c ****         }
 513:source\asw/swc_clock.c ****         else
 514:source\asw/swc_clock.c ****         {
 515:source\asw/swc_clock.c ****             clockData.m_minutes.m_value = 0;
 516:source\asw/swc_clock.c ****         }
 517:source\asw/swc_clock.c ****     }  
 518:source\asw/swc_clock.c ****     
 519:source\asw/swc_clock.c ****     //Set the clock signal object 
 520:source\asw/swc_clock.c ****     RTE_SC_CLOCK_set(&SO_CLOCK_signal, clockData);  
 521:source\asw/swc_clock.c **** }
 522:source\asw/swc_clock.c **** 
 523:source\asw/swc_clock.c **** static void CLOCK__setDisplayFonts()
 524:source\asw/swc_clock.c **** {
 936              		.loc 1 524 0
 937              		.cfi_startproc
 938              		@ args = 0, pretend = 0, frame = 0
 939              		@ frame_needed = 0, uses_anonymous_args = 0
 940 0000 10B5     		push	{r4, lr}
 941              		.cfi_def_cfa_offset 8
 942              		.cfi_offset 4, -8
 943              		.cfi_offset 14, -4
 944 0002 82B0     		sub	sp, sp, #8
 945              		.cfi_def_cfa_offset 16
 525:source\asw/swc_clock.c ****     UART_LOG_PutString("In CLOCK__setDisplayFonts function\n"); 
 946              		.loc 1 525 0
 947 0004 0D48     		ldr	r0, .L74
 948 0006 FFF7FEFF 		bl	UART_LOG_PutString
 949              	.LVL78:
 526:source\asw/swc_clock.c ****     //Set hour widget to normal display mode
 527:source\asw/swc_clock.c ****     TFT_setCursor(24, 73);
 950              		.loc 1 527 0
 951 000a 4921     		movs	r1, #73
 952 000c 1820     		movs	r0, #24
 953 000e FFF7FEFF 		bl	TFT_setCursor
 954              	.LVL79:
 528:source\asw/swc_clock.c ****     TFT_fillRect(24, 73, 36, 27, BLACK);
 955              		.loc 1 528 0
 956 0012 0024     		movs	r4, #0
 957 0014 0094     		str	r4, [sp]
 958 0016 1B23     		movs	r3, #27
 959 0018 2422     		movs	r2, #36
 960 001a 4921     		movs	r1, #73
 961 001c 1820     		movs	r0, #24
ARM GAS  C:\Users\aditi\AppData\Local\Temp\ccxJli9U.s 			page 34


 962 001e FFF7FEFF 		bl	TFT_fillRect
 963              	.LVL80:
 529:source\asw/swc_clock.c ****     
 530:source\asw/swc_clock.c ****     //Set minute widget to normal display mode
 531:source\asw/swc_clock.c ****     TFT_setCursor(68, 73);
 964              		.loc 1 531 0
 965 0022 4921     		movs	r1, #73
 966 0024 4420     		movs	r0, #68
 967 0026 FFF7FEFF 		bl	TFT_setCursor
 968              	.LVL81:
 532:source\asw/swc_clock.c ****     TFT_fillRect(68, 73, 36, 27, BLACK);
 969              		.loc 1 532 0
 970 002a 0094     		str	r4, [sp]
 971 002c 1B23     		movs	r3, #27
 972 002e 2422     		movs	r2, #36
 973 0030 4921     		movs	r1, #73
 974 0032 4420     		movs	r0, #68
 975 0034 FFF7FEFF 		bl	TFT_fillRect
 976              	.LVL82:
 533:source\asw/swc_clock.c ****     
 534:source\asw/swc_clock.c **** }
 977              		.loc 1 534 0
 978 0038 02B0     		add	sp, sp, #8
 979              		.cfi_def_cfa_offset 8
 980              		@ sp needed
 981 003a 10BD     		pop	{r4, pc}
 982              	.L75:
 983              		.align	2
 984              	.L74:
 985 003c F8010000 		.word	.LC13
 986              		.cfi_endproc
 987              	.LFE157:
 988              		.size	CLOCK__setDisplayFonts, .-CLOCK__setDisplayFonts
 989              		.section	.text.CLOCK__incrementWidget,"ax",%progbits
 990              		.align	2
 991              		.thumb
 992              		.thumb_func
 993              		.type	CLOCK__incrementWidget, %function
 994              	CLOCK__incrementWidget:
 995              	.LFB156:
 483:source\asw/swc_clock.c ****     UART_LOG_PutString("In CLOCK__incrementWidget function\n"); 
 996              		.loc 1 483 0
 997              		.cfi_startproc
 998              		@ args = 0, pretend = 0, frame = 72
 999              		@ frame_needed = 0, uses_anonymous_args = 0
 1000 0000 F0B5     		push	{r4, r5, r6, r7, lr}
 1001              		.cfi_def_cfa_offset 20
 1002              		.cfi_offset 4, -20
 1003              		.cfi_offset 5, -16
 1004              		.cfi_offset 6, -12
 1005              		.cfi_offset 7, -8
 1006              		.cfi_offset 14, -4
 1007 0002 93B0     		sub	sp, sp, #76
 1008              		.cfi_def_cfa_offset 96
 484:source\asw/swc_clock.c ****     
 1009              		.loc 1 484 0
 1010 0004 3048     		ldr	r0, .L86
ARM GAS  C:\Users\aditi\AppData\Local\Temp\ccxJli9U.s 			page 35


 1011 0006 FFF7FEFF 		bl	UART_LOG_PutString
 1012              	.LVL83:
 1013              	.LBB103:
 1014              	.LBB104:
 265:.\source\rte/sc_clock.h **** }                                                                                                  
 1015              		.loc 2 265 0
 1016 000a 09AC     		add	r4, sp, #36
 1017 000c 2F4D     		ldr	r5, .L86+4
 1018 000e 0FCD     		ldmia	r5!, {r0, r1, r2, r3}
 1019 0010 0FC4     		stmia	r4!, {r0, r1, r2, r3}
 1020 0012 0FCD     		ldmia	r5!, {r0, r1, r2, r3}
 1021 0014 0FC4     		stmia	r4!, {r0, r1, r2, r3}
 1022 0016 2B68     		ldr	r3, [r5]
 1023 0018 2360     		str	r3, [r4]
 1024              	.LVL84:
 1025              	.LBE104:
 1026              	.LBE103:
 490:source\asw/swc_clock.c ****     {
 1027              		.loc 1 490 0
 1028 001a 9DF82C30 		ldrb	r3, [sp, #44]	@ zero_extendqisi2
 1029 001e 93B9     		cbnz	r3, .L77
 493:source\asw/swc_clock.c ****         {
 1030              		.loc 1 493 0
 1031 0020 9DF83830 		ldrb	r3, [sp, #56]	@ zero_extendqisi2
 1032 0024 172B     		cmp	r3, #23
 1033 0026 0AD8     		bhi	.L78
 495:source\asw/swc_clock.c ****             UART_LOG_PutString("Hour value: ");
 1034              		.loc 1 495 0
 1035 0028 0133     		adds	r3, r3, #1
 1036 002a DCB2     		uxtb	r4, r3
 1037 002c 8DF83840 		strb	r4, [sp, #56]
 496:source\asw/swc_clock.c ****             UART_LOG_PutChar(clockData.m_hours.m_value);
 1038              		.loc 1 496 0
 1039 0030 2748     		ldr	r0, .L86+8
 1040 0032 FFF7FEFF 		bl	UART_LOG_PutString
 1041              	.LVL85:
 497:source\asw/swc_clock.c ****         }
 1042              		.loc 1 497 0
 1043 0036 2046     		mov	r0, r4
 1044 0038 FFF7FEFF 		bl	UART_LOG_PutChar
 1045              	.LVL86:
 1046 003c 17E0     		b	.L79
 1047              	.L78:
 501:source\asw/swc_clock.c ****         }
 1048              		.loc 1 501 0
 1049 003e 0023     		movs	r3, #0
 1050 0040 8DF83830 		strb	r3, [sp, #56]
 1051 0044 13E0     		b	.L79
 1052              	.L77:
 504:source\asw/swc_clock.c ****     {
 1053              		.loc 1 504 0
 1054 0046 012B     		cmp	r3, #1
 1055 0048 11D1     		bne	.L79
 507:source\asw/swc_clock.c ****         {
 1056              		.loc 1 507 0
 1057 004a 9DF84430 		ldrb	r3, [sp, #68]	@ zero_extendqisi2
 1058 004e 3B2B     		cmp	r3, #59
ARM GAS  C:\Users\aditi\AppData\Local\Temp\ccxJli9U.s 			page 36


 1059 0050 0AD8     		bhi	.L80
 509:source\asw/swc_clock.c ****             UART_LOG_PutString("Minute value: ");
 1060              		.loc 1 509 0
 1061 0052 0133     		adds	r3, r3, #1
 1062 0054 DCB2     		uxtb	r4, r3
 1063 0056 8DF84440 		strb	r4, [sp, #68]
 510:source\asw/swc_clock.c ****             UART_LOG_PutChar(clockData.m_minutes.m_value);
 1064              		.loc 1 510 0
 1065 005a 1E48     		ldr	r0, .L86+12
 1066 005c FFF7FEFF 		bl	UART_LOG_PutString
 1067              	.LVL87:
 511:source\asw/swc_clock.c ****         }
 1068              		.loc 1 511 0
 1069 0060 2046     		mov	r0, r4
 1070 0062 FFF7FEFF 		bl	UART_LOG_PutChar
 1071              	.LVL88:
 1072 0066 02E0     		b	.L79
 1073              	.L80:
 515:source\asw/swc_clock.c ****         }
 1074              		.loc 1 515 0
 1075 0068 0023     		movs	r3, #0
 1076 006a 8DF84430 		strb	r3, [sp, #68]
 1077              	.L79:
 1078              	.LVL89:
 1079 006e 6C46     		mov	r4, sp
 1080 0070 09AD     		add	r5, sp, #36
 1081 0072 0FCD     		ldmia	r5!, {r0, r1, r2, r3}
 1082 0074 0FC4     		stmia	r4!, {r0, r1, r2, r3}
 1083 0076 0FCD     		ldmia	r5!, {r0, r1, r2, r3}
 1084 0078 0FC4     		stmia	r4!, {r0, r1, r2, r3}
 1085 007a D5F800E0 		ldr	lr, [r5]
 1086 007e C4F800E0 		str	lr, [r4]
 1087              	.LVL90:
 1088              	.LBB105:
 1089              	.LBB106:
 304:.\source\rte/sc_clock.h ****    signal->value  = value;
 1090              		.loc 2 304 0
 1091 0082 124E     		ldr	r6, .L86+4
 1092 0084 F76A     		ldr	r7, [r6, #44]
 305:.\source\rte/sc_clock.h ****    signal->age    = 0;
 1093              		.loc 2 305 0
 1094 0086 3446     		mov	r4, r6
 1095 0088 6D46     		mov	r5, sp
 1096 008a 0FCD     		ldmia	r5!, {r0, r1, r2, r3}
 1097 008c 0FC4     		stmia	r4!, {r0, r1, r2, r3}
 1098 008e 0FCD     		ldmia	r5!, {r0, r1, r2, r3}
 1099 0090 0FC4     		stmia	r4!, {r0, r1, r2, r3}
 1100 0092 C4F800E0 		str	lr, [r4]
 306:.\source\rte/sc_clock.h ****    signal->status = RTE_SIGNALSTATUS_VALID;
 1101              		.loc 2 306 0
 1102 0096 0023     		movs	r3, #0
 1103 0098 B362     		str	r3, [r6, #40]
 307:.\source\rte/sc_clock.h ****    if (TRUE == signal->pSigCfg->resourceActive) ReleaseResource(signal->pSigCfg->resource);
 1104              		.loc 2 307 0
 1105 009a 0223     		movs	r3, #2
 1106 009c 86F82430 		strb	r3, [r6, #36]
 311:.\source\rte/sc_clock.h **** 
ARM GAS  C:\Users\aditi\AppData\Local\Temp\ccxJli9U.s 			page 37


 1107              		.loc 2 311 0
 1108 00a0 7D69     		ldr	r5, [r7, #20]
 1109              	.LVL91:
 313:.\source\rte/sc_clock.h ****       for( taskNum=0 ; taskNum < signal->pSigCfg->onUpdateTaskCount ;taskNum++){
 1110              		.loc 2 313 0
 1111 00a2 BB68     		ldr	r3, [r7, #8]
 1112 00a4 73B1     		cbz	r3, .L76
 1113 00a6 3DB9     		cbnz	r5, .L84
 1114 00a8 0CE0     		b	.L76
 1115              	.LVL92:
 1116              	.L83:
 1117              	.LBB107:
 1118              		.loc 2 317 0
 1119 00aa 9968     		ldr	r1, [r3, #8]
 1120 00ac 55F82400 		ldr	r0, [r5, r4, lsl #2]
 1121 00b0 FFF7FEFF 		bl	EE_oo_SetEvent
 1122              	.LVL93:
 1123              	.LBE107:
 314:.\source\rte/sc_clock.h **** 		  
 1124              		.loc 2 314 0
 1125 00b4 0134     		adds	r4, r4, #1
 1126              	.LVL94:
 1127 00b6 00E0     		b	.L82
 1128              	.LVL95:
 1129              	.L84:
 313:.\source\rte/sc_clock.h ****       for( taskNum=0 ; taskNum < signal->pSigCfg->onUpdateTaskCount ;taskNum++){
 1130              		.loc 2 313 0
 1131 00b8 0024     		movs	r4, #0
 1132              	.LVL96:
 1133              	.L82:
 314:.\source\rte/sc_clock.h **** 		  
 1134              		.loc 2 314 0
 1135 00ba 044B     		ldr	r3, .L86+4
 1136 00bc DB6A     		ldr	r3, [r3, #44]
 1137 00be 1A69     		ldr	r2, [r3, #16]
 1138 00c0 9442     		cmp	r4, r2
 1139 00c2 F2D3     		bcc	.L83
 1140              	.LVL97:
 1141              	.L76:
 1142              	.LBE106:
 1143              	.LBE105:
 521:source\asw/swc_clock.c **** 
 1144              		.loc 1 521 0
 1145 00c4 13B0     		add	sp, sp, #76
 1146              		.cfi_def_cfa_offset 20
 1147              		@ sp needed
 1148 00c6 F0BD     		pop	{r4, r5, r6, r7, pc}
 1149              	.LVL98:
 1150              	.L87:
 1151              		.align	2
 1152              	.L86:
 1153 00c8 1C020000 		.word	.LC14
 1154 00cc 00000000 		.word	SO_CLOCK_signal
 1155 00d0 40020000 		.word	.LC15
 1156 00d4 50020000 		.word	.LC16
 1157              		.cfi_endproc
 1158              	.LFE156:
ARM GAS  C:\Users\aditi\AppData\Local\Temp\ccxJli9U.s 			page 38


 1159              		.size	CLOCK__incrementWidget, .-CLOCK__incrementWidget
 1160              		.section	.text.CLOCK_input_run,"ax",%progbits
 1161              		.align	2
 1162              		.global	CLOCK_input_run
 1163              		.thumb
 1164              		.thumb_func
 1165              		.type	CLOCK_input_run, %function
 1166              	CLOCK_input_run:
 1167              	.LFB141:
 187:source\asw/swc_clock.c **** 	
 1168              		.loc 1 187 0
 1169              		.cfi_startproc
 1170              		@ args = 0, pretend = 0, frame = 0
 1171              		@ frame_needed = 0, uses_anonymous_args = 0
 1172              	.LVL99:
 1173 0000 38B5     		push	{r3, r4, r5, lr}
 1174              		.cfi_def_cfa_offset 16
 1175              		.cfi_offset 3, -16
 1176              		.cfi_offset 4, -12
 1177              		.cfi_offset 5, -8
 1178              		.cfi_offset 14, -4
 195:source\asw/swc_clock.c ****     /** The current input runnable is being called every 50ms.
 1179              		.loc 1 195 0
 1180 0002 444A     		ldr	r2, .L102
 1181 0004 1388     		ldrh	r3, [r2]
 1182 0006 0133     		adds	r3, r3, #1
 1183 0008 9BB2     		uxth	r3, r3
 1184 000a 1380     		strh	r3, [r2]	@ movhi
 200:source\asw/swc_clock.c ****     {
 1185              		.loc 1 200 0
 1186 000c 424A     		ldr	r2, .L102+4
 1187 000e A2FB0312 		umull	r1, r2, r2, r3
 1188 0012 9208     		lsrs	r2, r2, #2
 1189 0014 02EB8202 		add	r2, r2, r2, lsl #2
 1190 0018 9B1A     		subs	r3, r3, r2
 1191 001a 9BB2     		uxth	r3, r3
 1192 001c CBB9     		cbnz	r3, .L89
 1193              	.LVL100:
 1194              	.LBB108:
 1195              	.LBB109:
 1196              		.file 3 ".\\source\\rte/sc_event.h"
   1:.\source\rte/sc_event.h **** 
   2:.\source\rte/sc_event.h **** 
   3:.\source\rte/sc_event.h **** /**
   4:.\source\rte/sc_event.h **** *  file    SC_EVENT_signal.h
   5:.\source\rte/sc_event.h **** *
   6:.\source\rte/sc_event.h **** *  brief   signal base class for signal sc_event
   7:.\source\rte/sc_event.h **** *
   8:.\source\rte/sc_event.h **** *  author  Autogenerated, Peter Fromm       <peter.fromm@h-da.de>
   9:.\source\rte/sc_event.h **** *
  10:.\source\rte/sc_event.h **** *
  11:.\source\rte/sc_event.h **** */
  12:.\source\rte/sc_event.h **** 
  13:.\source\rte/sc_event.h **** /*
  14:.\source\rte/sc_event.h **** * description: Events representation data type
  15:.\source\rte/sc_event.h **** * name: sc_event
  16:.\source\rte/sc_event.h **** * shortname: event
ARM GAS  C:\Users\aditi\AppData\Local\Temp\ccxJli9U.s 			page 39


  17:.\source\rte/sc_event.h **** */
  18:.\source\rte/sc_event.h **** 
  19:.\source\rte/sc_event.h **** #ifndef SC_EVENT_SIGNAL_H_INCLUDED
  20:.\source\rte/sc_event.h **** #define SC_EVENT_SIGNAL_H_INCLUDED
  21:.\source\rte/sc_event.h **** 
  22:.\source\rte/sc_event.h **** /*================================================[ public includes  ]=============================
  23:.\source\rte/sc_event.h **** #include "global.h"
  24:.\source\rte/sc_event.h **** #include "project.h"
  25:.\source\rte/sc_event.h **** #include "rte.h"
  26:.\source\rte/sc_event.h **** #include "rte_types.h"
  27:.\source\rte/sc_event.h **** 
  28:.\source\rte/sc_event.h **** #include "sc_event_type.h"
  29:.\source\rte/sc_event.h **** 
  30:.\source\rte/sc_event.h **** 
  31:.\source\rte/sc_event.h **** /**************************************************************************************************
  32:.\source\rte/sc_event.h **** /* The driver API block																						*/
  33:.\source\rte/sc_event.h **** /**************************************************************************************************
  34:.\source\rte/sc_event.h ****                                                                                                    
  35:.\source\rte/sc_event.h **** /**
  36:.\source\rte/sc_event.h ****  *  Definition of function types for driver interfaces.
  37:.\source\rte/sc_event.h ****  *  I-Port
  38:.\source\rte/sc_event.h ****  */
  39:.\source\rte/sc_event.h **** typedef RC_t (*SC_EVENT_driverIn_t)(SC_EVENT_data_t * const);
  40:.\source\rte/sc_event.h **** 
  41:.\source\rte/sc_event.h **** /**
  42:.\source\rte/sc_event.h ****  *  Definition of function types for driver interfaces.
  43:.\source\rte/sc_event.h ****  *  O-Port
  44:.\source\rte/sc_event.h ****  */
  45:.\source\rte/sc_event.h **** typedef RC_t (*SC_EVENT_driverOut_t)( const SC_EVENT_data_t * const);
  46:.\source\rte/sc_event.h **** 
  47:.\source\rte/sc_event.h **** 
  48:.\source\rte/sc_event.h **** /**************************************************************************************************
  49:.\source\rte/sc_event.h **** /* The signal configuration API block																				*/
  50:.\source\rte/sc_event.h **** /**************************************************************************************************
  51:.\source\rte/sc_event.h **** 
  52:.\source\rte/sc_event.h **** /**
  53:.\source\rte/sc_event.h ****  * Instances of the struct SC_EVENT_cfg_t represent the signal object configuration.
  54:.\source\rte/sc_event.h ****  */
  55:.\source\rte/sc_event.h **** struct SC_EVENT_cfg_s
  56:.\source\rte/sc_event.h **** {
  57:.\source\rte/sc_event.h ****     /**
  58:.\source\rte/sc_event.h ****      * Function pointer to the input driver
  59:.\source\rte/sc_event.h ****      */
  60:.\source\rte/sc_event.h ****     SC_EVENT_driverIn_t const inDriver;
  61:.\source\rte/sc_event.h **** 
  62:.\source\rte/sc_event.h ****     /**
  63:.\source\rte/sc_event.h ****      * Function pointer to the output driver table
  64:.\source\rte/sc_event.h ****      */
  65:.\source\rte/sc_event.h ****    SC_EVENT_driverOut_t const outDriver;
  66:.\source\rte/sc_event.h ****    
  67:.\source\rte/sc_event.h ****     /**
  68:.\source\rte/sc_event.h ****      * Event onUpdate
  69:.\source\rte/sc_event.h ****      */
  70:.\source\rte/sc_event.h ****     EventMaskType const evOnUpdate;
  71:.\source\rte/sc_event.h ****     
  72:.\source\rte/sc_event.h ****     
  73:.\source\rte/sc_event.h ****     /**
ARM GAS  C:\Users\aditi\AppData\Local\Temp\ccxJli9U.s 			page 40


  74:.\source\rte/sc_event.h ****      * Event onError
  75:.\source\rte/sc_event.h ****      */
  76:.\source\rte/sc_event.h ****     EventMaskType const evOnError;
  77:.\source\rte/sc_event.h ****     
  78:.\source\rte/sc_event.h ****     /**
  79:.\source\rte/sc_event.h ****      * Task Count onUpdate
  80:.\source\rte/sc_event.h ****      */
  81:.\source\rte/sc_event.h ****     size_t const onUpdateTaskCount;
  82:.\source\rte/sc_event.h **** 
  83:.\source\rte/sc_event.h ****     /**
  84:.\source\rte/sc_event.h ****      * Task List onUpdate
  85:.\source\rte/sc_event.h ****      */
  86:.\source\rte/sc_event.h ****     TaskTypeArray* const onUpdateTasks;
  87:.\source\rte/sc_event.h ****     
  88:.\source\rte/sc_event.h ****     /**
  89:.\source\rte/sc_event.h ****      * Task Count onError
  90:.\source\rte/sc_event.h ****      */
  91:.\source\rte/sc_event.h ****     size_t const onErrorTaskCount;
  92:.\source\rte/sc_event.h **** 
  93:.\source\rte/sc_event.h ****     /**
  94:.\source\rte/sc_event.h ****      * Task List onError
  95:.\source\rte/sc_event.h ****      */
  96:.\source\rte/sc_event.h ****     TaskTypeArray* const onErrorTasks;
  97:.\source\rte/sc_event.h **** 	
  98:.\source\rte/sc_event.h **** 	
  99:.\source\rte/sc_event.h **** 	/**
 100:.\source\rte/sc_event.h **** 	 * Ressourse is active? We need an additional boolean as a ressource value 0 is valid.
 101:.\source\rte/sc_event.h **** 	 */
 102:.\source\rte/sc_event.h **** 	 boolean_t const resourceActive;
 103:.\source\rte/sc_event.h **** 	 
 104:.\source\rte/sc_event.h **** 	/**
 105:.\source\rte/sc_event.h **** 	 * Ressourse 
 106:.\source\rte/sc_event.h **** 	 */
 107:.\source\rte/sc_event.h **** 	 ResourceType const resource;
 108:.\source\rte/sc_event.h **** 
 109:.\source\rte/sc_event.h **** };                                                                                                 
 110:.\source\rte/sc_event.h **** typedef const struct SC_EVENT_cfg_s SC_EVENT_cfg_t;
 111:.\source\rte/sc_event.h ****                               
 112:.\source\rte/sc_event.h **** /**************************************************************************************************
 113:.\source\rte/sc_event.h **** /* The data interface block																							*/
 114:.\source\rte/sc_event.h **** /**************************************************************************************************
 115:.\source\rte/sc_event.h **** 
 116:.\source\rte/sc_event.h ****                                                                                                    
 117:.\source\rte/sc_event.h **** 							  
 118:.\source\rte/sc_event.h **** /**
 119:.\source\rte/sc_event.h ****  * Instances of the struct SC_EVENT_t represent the signal objects.
 120:.\source\rte/sc_event.h ****  * A signal object contains the current application value 'value' as well as relevant meta data.
 121:.\source\rte/sc_event.h ****  */
 122:.\source\rte/sc_event.h **** struct SC_EVENT_s
 123:.\source\rte/sc_event.h **** {                                                                                                  
 124:.\source\rte/sc_event.h **** 
 125:.\source\rte/sc_event.h **** 	/**
 126:.\source\rte/sc_event.h **** 	 * Data buffer for the application value
 127:.\source\rte/sc_event.h **** 	 */
 128:.\source\rte/sc_event.h ****     SC_EVENT_data_t value;
 129:.\source\rte/sc_event.h **** 
 130:.\source\rte/sc_event.h ****     /**
ARM GAS  C:\Users\aditi\AppData\Local\Temp\ccxJli9U.s 			page 41


 131:.\source\rte/sc_event.h ****      * Current signal status
 132:.\source\rte/sc_event.h ****      */
 133:.\source\rte/sc_event.h ****     RTE_signalStatus_t status;
 134:.\source\rte/sc_event.h **** 
 135:.\source\rte/sc_event.h ****     /**
 136:.\source\rte/sc_event.h ****      * Current age of the signal (in calling cycles)
 137:.\source\rte/sc_event.h ****      */
 138:.\source\rte/sc_event.h ****     uint32_t age;
 139:.\source\rte/sc_event.h **** 
 140:.\source\rte/sc_event.h ****     /**
 141:.\source\rte/sc_event.h ****      * Pointer to the signal configuration
 142:.\source\rte/sc_event.h ****      */
 143:.\source\rte/sc_event.h **** 	const SC_EVENT_cfg_t * const    pSigCfg;
 144:.\source\rte/sc_event.h **** 
 145:.\source\rte/sc_event.h **** };                                                                                                 
 146:.\source\rte/sc_event.h **** typedef struct SC_EVENT_s SC_EVENT_t;
 147:.\source\rte/sc_event.h **** 
 148:.\source\rte/sc_event.h **** /**************************************************************************************************
 149:.\source\rte/sc_event.h **** /* Signal initialisation   																							*/
 150:.\source\rte/sc_event.h **** /**************************************************************************************************
 151:.\source\rte/sc_event.h **** 
 152:.\source\rte/sc_event.h **** /**
 153:.\source\rte/sc_event.h ****  * Initializes a signal instance with a passed init value.
 154:.\source\rte/sc_event.h ****  * Depending on the configured conversion or scaling function the raw_value will be calculated.
 155:.\source\rte/sc_event.h ****  * Signal status will change from RTE_SIGNALSTATUS_STARTUP to RTE_SIGNALSTATUS_INITIALIZED.
 156:.\source\rte/sc_event.h ****  *
 157:.\source\rte/sc_event.h ****  * @param  SC_EVENT_t * const signal: Pointer to the signal object which will be initialised
 158:.\source\rte/sc_event.h ****  * @param const sc_event_data_t * const value: Pointer to initial value of the application data
 159:.\source\rte/sc_event.h ****  * @return RC_t: standard return code, currently only RC_SUCCESS
 160:.\source\rte/sc_event.h ****  *
 161:.\source\rte/sc_event.h ****  **/
 162:.\source\rte/sc_event.h **** inline RC_t RTE_SC_EVENT_init( SC_EVENT_t * const signal, const SC_EVENT_data_t * const value )
 163:.\source\rte/sc_event.h **** {                                                                                                  
 164:.\source\rte/sc_event.h **** 
 165:.\source\rte/sc_event.h ****    RC_t ret = RC_SUCCESS;
 166:.\source\rte/sc_event.h **** 
 167:.\source\rte/sc_event.h ****    //Set value and raw value
 168:.\source\rte/sc_event.h ****    signal->value  = *value;
 169:.\source\rte/sc_event.h ****    signal->age    = 0;
 170:.\source\rte/sc_event.h ****    signal->status = RTE_SIGNALSTATUS_INITIALIZED;
 171:.\source\rte/sc_event.h **** 
 172:.\source\rte/sc_event.h ****    return ret;
 173:.\source\rte/sc_event.h **** }
 174:.\source\rte/sc_event.h **** 
 175:.\source\rte/sc_event.h **** /**************************************************************************************************
 176:.\source\rte/sc_event.h **** /* Status and timeout control																						*/
 177:.\source\rte/sc_event.h **** /**************************************************************************************************
 178:.\source\rte/sc_event.h **** 
 179:.\source\rte/sc_event.h **** /**
 180:.\source\rte/sc_event.h ****  *  Returns the current signal status of the passed signal instance.
 181:.\source\rte/sc_event.h ****  *
 182:.\source\rte/sc_event.h ****  * @param  SC_EVENT_t * const signal: Pointer to the signal object
 183:.\source\rte/sc_event.h ****  * @return  sig_status_t: The current signal status
 184:.\source\rte/sc_event.h ****  *
 185:.\source\rte/sc_event.h ****  **/
 186:.\source\rte/sc_event.h **** inline RTE_signalStatus_t RTE_SC_EVENT_getStatus( const SC_EVENT_t * const signal )
 187:.\source\rte/sc_event.h **** {
ARM GAS  C:\Users\aditi\AppData\Local\Temp\ccxJli9U.s 			page 42


 188:.\source\rte/sc_event.h ****    return signal->status;
 189:.\source\rte/sc_event.h **** }
 190:.\source\rte/sc_event.h **** 
 191:.\source\rte/sc_event.h **** 
 192:.\source\rte/sc_event.h **** /**
 193:.\source\rte/sc_event.h ****  *  Sets a new signal status of the passed signal instance by passing the new status.
 194:.\source\rte/sc_event.h ****  *
 195:.\source\rte/sc_event.h ****  * @param  SC_EVENT_t * const signal: Pointer to the signal object
 196:.\source\rte/sc_event.h ****  * @param  const sig_status_t status: New signal status
 197:.\source\rte/sc_event.h ****  * @return RC_t: standard return code, currently only RC_SUCCESS
 198:.\source\rte/sc_event.h ****  *
 199:.\source\rte/sc_event.h ****  */
 200:.\source\rte/sc_event.h **** inline RC_t RTE_SC_EVENT_setStatus( SC_EVENT_t * const signal, const RTE_signalStatus_t status )
 201:.\source\rte/sc_event.h **** {
 202:.\source\rte/sc_event.h ****    signal->status = status;
 203:.\source\rte/sc_event.h ****    size_t taskNum=0;
 204:.\source\rte/sc_event.h ****    
 205:.\source\rte/sc_event.h ****    //Fire error events in case of invalid state
 206:.\source\rte/sc_event.h ****    if (signal->status == RTE_SIGNALSTATUS_INVALID)
 207:.\source\rte/sc_event.h ****    {
 208:.\source\rte/sc_event.h **** 	    //Pointer to the Taskarray, containing the tasks receiving the onUpdate events
 209:.\source\rte/sc_event.h **** 		TaskTypeArray* pTaskArray = signal->pSigCfg->onErrorTasks;
 210:.\source\rte/sc_event.h **** 
 211:.\source\rte/sc_event.h **** 		if (NULL!=signal->pSigCfg->evOnError && NULL != pTaskArray){
 212:.\source\rte/sc_event.h **** 			for( taskNum=0 ; taskNum < signal->pSigCfg->onErrorTaskCount ;taskNum++){
 213:.\source\rte/sc_event.h **** 				TaskType task = (*pTaskArray)[taskNum];
 214:.\source\rte/sc_event.h **** 				SetEvent( task, signal->pSigCfg->evOnError);
 215:.\source\rte/sc_event.h **** 			}
 216:.\source\rte/sc_event.h **** 		}
 217:.\source\rte/sc_event.h ****    }
 218:.\source\rte/sc_event.h ****    
 219:.\source\rte/sc_event.h ****    return RC_SUCCESS;
 220:.\source\rte/sc_event.h **** }
 221:.\source\rte/sc_event.h **** 
 222:.\source\rte/sc_event.h **** 
 223:.\source\rte/sc_event.h **** /**
 224:.\source\rte/sc_event.h ****  * Returns the count of refreshing trials (refresh, set or set_raw) that failed.
 225:.\source\rte/sc_event.h ****  * Prerquisite: The signal is refreshed cyclically
 226:.\source\rte/sc_event.h ****  *
 227:.\source\rte/sc_event.h ****  * @param  SC_EVENT_t * const signal: Pointer to the signal object
 228:.\source\rte/sc_event.h ****  * @return uint32_t: Number of cycles since the signal has been updated for the last time
 229:.\source\rte/sc_event.h ****  */
 230:.\source\rte/sc_event.h **** inline uint32_t RTE_SC_EVENT_getAge( const SC_EVENT_t * const signal )
 231:.\source\rte/sc_event.h **** {
 232:.\source\rte/sc_event.h ****    return signal->age;
 233:.\source\rte/sc_event.h **** }
 234:.\source\rte/sc_event.h **** 
 235:.\source\rte/sc_event.h **** /**
 236:.\source\rte/sc_event.h ****  * Should be called by application or driver if no new value can be provided.
 237:.\source\rte/sc_event.h ****  * @param  SC_EVENT_t * const signal: Pointer to the signal object
 238:.\source\rte/sc_event.h ****  * @param uint32_t increment: incrementvalue, typically in [ms]
 239:.\source\rte/sc_event.h ****  * @return void
 240:.\source\rte/sc_event.h ****  */
 241:.\source\rte/sc_event.h **** inline void RTE_SC_EVENT_incAge(  SC_EVENT_t * const signal , uint32_t increment)
 242:.\source\rte/sc_event.h **** {
 243:.\source\rte/sc_event.h **** 	   //Hack....
 244:.\source\rte/sc_event.h **** 	   if ( 0xFFFF0000 > (signal->age + increment) )
ARM GAS  C:\Users\aditi\AppData\Local\Temp\ccxJli9U.s 			page 43


 245:.\source\rte/sc_event.h **** 	   {
 246:.\source\rte/sc_event.h **** 	      signal->age += increment;
 247:.\source\rte/sc_event.h **** 	   }
 248:.\source\rte/sc_event.h **** }
 249:.\source\rte/sc_event.h **** 
 250:.\source\rte/sc_event.h **** 
 251:.\source\rte/sc_event.h **** /**************************************************************************************************
 252:.\source\rte/sc_event.h **** /* Application Data read/write Interface																			*/
 253:.\source\rte/sc_event.h **** /**************************************************************************************************
 254:.\source\rte/sc_event.h **** 
 255:.\source\rte/sc_event.h **** /**
 256:.\source\rte/sc_event.h ****  * Returns the current application value of the passed signal instance.
 257:.\source\rte/sc_event.h ****  *
 258:.\source\rte/sc_event.h ****  * @param  SC_EVENT_t * const signal: Pointer to the signal object
 259:.\source\rte/sc_event.h ****  * @return sc_event_data_t: current value of the application data buffer
 260:.\source\rte/sc_event.h ****  *
 261:.\source\rte/sc_event.h ****  **/
 262:.\source\rte/sc_event.h **** inline SC_EVENT_data_t RTE_SC_EVENT_get( const SC_EVENT_t * const signal )
 263:.\source\rte/sc_event.h **** {               
 264:.\source\rte/sc_event.h ****    //Todo: Critical region cannot be protected using return values																						
 265:.\source\rte/sc_event.h ****    return signal->value;                                                                           
 266:.\source\rte/sc_event.h **** }                                                                                                  
 267:.\source\rte/sc_event.h ****                                                                                                    
 268:.\source\rte/sc_event.h **** /**
 269:.\source\rte/sc_event.h ****  * Returns the current application value of the passed signal instance threadsafe.
 270:.\source\rte/sc_event.h ****  *
 271:.\source\rte/sc_event.h ****  * @param  SC_EVENT_t * const signal: Pointer to the signal object
 272:.\source\rte/sc_event.h ****  * @param  SC_EVENT_data_t* data: Pointer to the return data Pointer to the signal object
 273:.\source\rte/sc_event.h ****  * @return RC_SUCCESS
 274:.\source\rte/sc_event.h ****  *
 275:.\source\rte/sc_event.h ****  **/
 276:.\source\rte/sc_event.h **** inline RC_t RTE_SC_EVENT_getThreadSafe( const SC_EVENT_t * const signal, SC_EVENT_data_t * const da
 277:.\source\rte/sc_event.h **** {    
 278:.\source\rte/sc_event.h ****    if (TRUE == signal->pSigCfg->resourceActive) GetResource(signal->pSigCfg->resource);
 279:.\source\rte/sc_event.h ****    *data = signal->value;
 280:.\source\rte/sc_event.h ****    if (TRUE == signal->pSigCfg->resourceActive) ReleaseResource(signal->pSigCfg->resource);        
 281:.\source\rte/sc_event.h **** 
 282:.\source\rte/sc_event.h ****    return RC_SUCCESS;                                                                   
 283:.\source\rte/sc_event.h ****    
 284:.\source\rte/sc_event.h **** }                                                                                                  
 285:.\source\rte/sc_event.h ****                                                                                                    
 286:.\source\rte/sc_event.h **** /**
 287:.\source\rte/sc_event.h ****  * Sets a new application value to the passed signal instance by passing the new value.
 288:.\source\rte/sc_event.h ****  * The corresponding driver raw value will be calculated immediately by using the default conversio
 289:.\source\rte/sc_event.h ****  * signal specific scaling function.
 290:.\source\rte/sc_event.h ****  * The signal age will be set to 0 and the new status will be 'RTE_SIGNALSTATUS_VALID'.
 291:.\source\rte/sc_event.h ****  *
 292:.\source\rte/sc_event.h ****  * @param  SC_EVENT_t * const signal: Pointer to the signal object
 293:.\source\rte/sc_event.h ****  * @param  sc_event_data_t const value: value for the application data buffer
 294:.\source\rte/sc_event.h ****  * @return RC_t: standard return code, currently only RC_SUCCESS
 295:.\source\rte/sc_event.h ****  *
 296:.\source\rte/sc_event.h ****  **/
 297:.\source\rte/sc_event.h **** inline RC_t RTE_SC_EVENT_set(SC_EVENT_t * const signal, const SC_EVENT_data_t value  )
 298:.\source\rte/sc_event.h **** {
 299:.\source\rte/sc_event.h **** 
 300:.\source\rte/sc_event.h ****    RC_t ret = RC_SUCCESS;
 301:.\source\rte/sc_event.h ****    size_t taskNum=0;
ARM GAS  C:\Users\aditi\AppData\Local\Temp\ccxJli9U.s 			page 44


 302:.\source\rte/sc_event.h **** 
 303:.\source\rte/sc_event.h **** 
 304:.\source\rte/sc_event.h ****    if (TRUE == signal->pSigCfg->resourceActive) GetResource(signal->pSigCfg->resource);
 1197              		.loc 3 304 0
 1198 001e 3F4B     		ldr	r3, .L102+8
 1199 0020 9A68     		ldr	r2, [r3, #8]
 305:.\source\rte/sc_event.h ****    signal->value  = value;
 1200              		.loc 3 305 0
 1201 0022 0521     		movs	r1, #5
 1202 0024 1970     		strb	r1, [r3]
 306:.\source\rte/sc_event.h ****    signal->age    = 0;
 1203              		.loc 3 306 0
 1204 0026 0021     		movs	r1, #0
 1205 0028 5960     		str	r1, [r3, #4]
 307:.\source\rte/sc_event.h ****    signal->status = RTE_SIGNALSTATUS_VALID;
 1206              		.loc 3 307 0
 1207 002a 0221     		movs	r1, #2
 1208 002c 5970     		strb	r1, [r3, #1]
 308:.\source\rte/sc_event.h ****    if (TRUE == signal->pSigCfg->resourceActive) ReleaseResource(signal->pSigCfg->resource);
 309:.\source\rte/sc_event.h **** 
 310:.\source\rte/sc_event.h ****    //Pointer to the Taskarray, containing the tasks receiving the onUpdate events
 311:.\source\rte/sc_event.h ****    TaskTypeArray* pTaskArray = signal->pSigCfg->onUpdateTasks;
 1209              		.loc 3 311 0
 1210 002e 5569     		ldr	r5, [r2, #20]
 1211              	.LVL101:
 312:.\source\rte/sc_event.h **** 
 313:.\source\rte/sc_event.h ****    if (NULL!=signal->pSigCfg->evOnUpdate && NULL != pTaskArray){
 1212              		.loc 3 313 0
 1213 0030 9368     		ldr	r3, [r2, #8]
 1214 0032 73B1     		cbz	r3, .L89
 1215 0034 3DB9     		cbnz	r5, .L98
 1216 0036 0CE0     		b	.L89
 1217              	.LVL102:
 1218              	.L91:
 1219              	.LBB110:
 314:.\source\rte/sc_event.h ****       for( taskNum=0 ; taskNum < signal->pSigCfg->onUpdateTaskCount ;taskNum++){
 315:.\source\rte/sc_event.h **** 		  
 316:.\source\rte/sc_event.h ****           TaskType task = (*pTaskArray)[taskNum];
 317:.\source\rte/sc_event.h **** 	      SetEvent( task, signal->pSigCfg->evOnUpdate);
 1220              		.loc 3 317 0
 1221 0038 9968     		ldr	r1, [r3, #8]
 1222 003a 55F82400 		ldr	r0, [r5, r4, lsl #2]
 1223 003e FFF7FEFF 		bl	EE_oo_SetEvent
 1224              	.LVL103:
 1225              	.LBE110:
 314:.\source\rte/sc_event.h ****       for( taskNum=0 ; taskNum < signal->pSigCfg->onUpdateTaskCount ;taskNum++){
 1226              		.loc 3 314 0
 1227 0042 0134     		adds	r4, r4, #1
 1228              	.LVL104:
 1229 0044 00E0     		b	.L90
 1230              	.LVL105:
 1231              	.L98:
 313:.\source\rte/sc_event.h ****       for( taskNum=0 ; taskNum < signal->pSigCfg->onUpdateTaskCount ;taskNum++){
 1232              		.loc 3 313 0
 1233 0046 0024     		movs	r4, #0
 1234              	.LVL106:
 1235              	.L90:
ARM GAS  C:\Users\aditi\AppData\Local\Temp\ccxJli9U.s 			page 45


 314:.\source\rte/sc_event.h ****       for( taskNum=0 ; taskNum < signal->pSigCfg->onUpdateTaskCount ;taskNum++){
 1236              		.loc 3 314 0
 1237 0048 344B     		ldr	r3, .L102+8
 1238 004a 9B68     		ldr	r3, [r3, #8]
 1239 004c 1A69     		ldr	r2, [r3, #16]
 1240 004e 9442     		cmp	r4, r2
 1241 0050 F2D3     		bcc	.L91
 1242              	.LVL107:
 1243              	.L89:
 1244              	.LBE109:
 1245              	.LBE108:
 211:source\asw/swc_clock.c ****     {
 1246              		.loc 1 211 0
 1247 0052 304B     		ldr	r3, .L102
 1248 0054 1B88     		ldrh	r3, [r3]
 1249 0056 324A     		ldr	r2, .L102+12
 1250 0058 A2FB0312 		umull	r1, r2, r2, r3
 1251 005c D209     		lsrs	r2, r2, #7
 1252 005e 4FF49661 		mov	r1, #1200
 1253 0062 01FB1233 		mls	r3, r1, r2, r3
 1254 0066 9BB2     		uxth	r3, r3
 1255 0068 F3B9     		cbnz	r3, .L92
 213:source\asw/swc_clock.c ****         eventSignal.m_ev = EV_1MIN;
 1256              		.loc 1 213 0
 1257 006a 0024     		movs	r4, #0
 1258 006c 294B     		ldr	r3, .L102
 1259 006e 1C80     		strh	r4, [r3]	@ movhi
 215:source\asw/swc_clock.c ****         RTE_SC_EVENT_set (&SO_EVENT_signal, eventSignal);
 1260              		.loc 1 215 0
 1261 0070 2C48     		ldr	r0, .L102+16
 1262 0072 FFF7FEFF 		bl	UART_LOG_PutString
 1263              	.LVL108:
 1264              	.LBB111:
 1265              	.LBB112:
 304:.\source\rte/sc_event.h ****    signal->value  = value;
 1266              		.loc 3 304 0
 1267 0076 294B     		ldr	r3, .L102+8
 1268 0078 9A68     		ldr	r2, [r3, #8]
 305:.\source\rte/sc_event.h ****    signal->age    = 0;
 1269              		.loc 3 305 0
 1270 007a 0421     		movs	r1, #4
 1271 007c 1970     		strb	r1, [r3]
 306:.\source\rte/sc_event.h ****    signal->status = RTE_SIGNALSTATUS_VALID;
 1272              		.loc 3 306 0
 1273 007e 5C60     		str	r4, [r3, #4]
 307:.\source\rte/sc_event.h ****    if (TRUE == signal->pSigCfg->resourceActive) ReleaseResource(signal->pSigCfg->resource);
 1274              		.loc 3 307 0
 1275 0080 0221     		movs	r1, #2
 1276 0082 5970     		strb	r1, [r3, #1]
 311:.\source\rte/sc_event.h **** 
 1277              		.loc 3 311 0
 1278 0084 5569     		ldr	r5, [r2, #20]
 1279              	.LVL109:
 313:.\source\rte/sc_event.h ****       for( taskNum=0 ; taskNum < signal->pSigCfg->onUpdateTaskCount ;taskNum++){
 1280              		.loc 3 313 0
 1281 0086 9368     		ldr	r3, [r2, #8]
 1282 0088 73B1     		cbz	r3, .L92
ARM GAS  C:\Users\aditi\AppData\Local\Temp\ccxJli9U.s 			page 46


 1283 008a 3DB9     		cbnz	r5, .L99
 1284 008c 0CE0     		b	.L92
 1285              	.LVL110:
 1286              	.L94:
 1287              	.LBB113:
 1288              		.loc 3 317 0
 1289 008e 9968     		ldr	r1, [r3, #8]
 1290 0090 55F82400 		ldr	r0, [r5, r4, lsl #2]
 1291 0094 FFF7FEFF 		bl	EE_oo_SetEvent
 1292              	.LVL111:
 1293              	.LBE113:
 314:.\source\rte/sc_event.h **** 		  
 1294              		.loc 3 314 0
 1295 0098 0134     		adds	r4, r4, #1
 1296              	.LVL112:
 1297 009a 00E0     		b	.L93
 1298              	.LVL113:
 1299              	.L99:
 313:.\source\rte/sc_event.h ****       for( taskNum=0 ; taskNum < signal->pSigCfg->onUpdateTaskCount ;taskNum++){
 1300              		.loc 3 313 0
 1301 009c 0024     		movs	r4, #0
 1302              	.LVL114:
 1303              	.L93:
 314:.\source\rte/sc_event.h **** 		  
 1304              		.loc 3 314 0
 1305 009e 1F4B     		ldr	r3, .L102+8
 1306 00a0 9B68     		ldr	r3, [r3, #8]
 1307 00a2 1A69     		ldr	r2, [r3, #16]
 1308 00a4 9442     		cmp	r4, r2
 1309 00a6 F2D3     		bcc	.L94
 1310              	.LVL115:
 1311              	.L92:
 1312              	.LBE112:
 1313              	.LBE111:
 220:source\asw/swc_clock.c ****     {
 1314              		.loc 1 220 0
 1315 00a8 1A4B     		ldr	r3, .L102
 1316 00aa 9B78     		ldrb	r3, [r3, #2]	@ zero_extendqisi2
 1317 00ac 012B     		cmp	r3, #1
 1318 00ae 2FD1     		bne	.L88
 220:source\asw/swc_clock.c ****     {
 1319              		.loc 1 220 0 is_stmt 0 discriminator 1
 1320 00b0 FFF7FEFF 		bl	Pin_ButtonRight_Read
 1321              	.LVL116:
 1322 00b4 0128     		cmp	r0, #1
 1323 00b6 2BD1     		bne	.L88
 1324              	.LBB114:
 223:source\asw/swc_clock.c ****         //Runnable called every 50ms, 50 x 20 = 1000ms = 1s
 1325              		.loc 1 223 0 is_stmt 1
 1326 00b8 164A     		ldr	r2, .L102
 1327 00ba D378     		ldrb	r3, [r2, #3]	@ zero_extendqisi2
 1328 00bc 0133     		adds	r3, r3, #1
 1329 00be DBB2     		uxtb	r3, r3
 1330 00c0 D370     		strb	r3, [r2, #3]
 225:source\asw/swc_clock.c ****         {
 1331              		.loc 1 225 0
 1332 00c2 154A     		ldr	r2, .L102+4
ARM GAS  C:\Users\aditi\AppData\Local\Temp\ccxJli9U.s 			page 47


 1333 00c4 A2FB0312 		umull	r1, r2, r2, r3
 1334 00c8 1209     		lsrs	r2, r2, #4
 1335 00ca 02EB8202 		add	r2, r2, r2, lsl #2
 1336 00ce 9100     		lsls	r1, r2, #2
 1337 00d0 5B1A     		subs	r3, r3, r1
 1338 00d2 13F0FF0F 		tst	r3, #255
 1339 00d6 1BD1     		bne	.L88
 228:source\asw/swc_clock.c ****             RTE_SC_EVENT_set (&SO_EVENT_signal, eventSignal);
 1340              		.loc 1 228 0
 1341 00d8 0021     		movs	r1, #0
 1342 00da 0E4B     		ldr	r3, .L102
 1343 00dc 9970     		strb	r1, [r3, #2]
 1344              	.LVL117:
 1345              	.LBB115:
 1346              	.LBB116:
 304:.\source\rte/sc_event.h ****    signal->value  = value;
 1347              		.loc 3 304 0
 1348 00de 0F4B     		ldr	r3, .L102+8
 1349 00e0 9A68     		ldr	r2, [r3, #8]
 305:.\source\rte/sc_event.h ****    signal->age    = 0;
 1350              		.loc 3 305 0
 1351 00e2 0320     		movs	r0, #3
 1352 00e4 1870     		strb	r0, [r3]
 306:.\source\rte/sc_event.h ****    signal->status = RTE_SIGNALSTATUS_VALID;
 1353              		.loc 3 306 0
 1354 00e6 5960     		str	r1, [r3, #4]
 307:.\source\rte/sc_event.h ****    if (TRUE == signal->pSigCfg->resourceActive) ReleaseResource(signal->pSigCfg->resource);
 1355              		.loc 3 307 0
 1356 00e8 0221     		movs	r1, #2
 1357 00ea 5970     		strb	r1, [r3, #1]
 311:.\source\rte/sc_event.h **** 
 1358              		.loc 3 311 0
 1359 00ec 5569     		ldr	r5, [r2, #20]
 1360              	.LVL118:
 313:.\source\rte/sc_event.h ****       for( taskNum=0 ; taskNum < signal->pSigCfg->onUpdateTaskCount ;taskNum++){
 1361              		.loc 3 313 0
 1362 00ee 9368     		ldr	r3, [r2, #8]
 1363 00f0 73B1     		cbz	r3, .L88
 1364 00f2 3DB9     		cbnz	r5, .L100
 1365 00f4 38BD     		pop	{r3, r4, r5, pc}
 1366              	.LVL119:
 1367              	.L97:
 1368              	.LBB117:
 1369              		.loc 3 317 0
 1370 00f6 9968     		ldr	r1, [r3, #8]
 1371 00f8 55F82400 		ldr	r0, [r5, r4, lsl #2]
 1372 00fc FFF7FEFF 		bl	EE_oo_SetEvent
 1373              	.LVL120:
 1374              	.LBE117:
 314:.\source\rte/sc_event.h **** 		  
 1375              		.loc 3 314 0
 1376 0100 0134     		adds	r4, r4, #1
 1377              	.LVL121:
 1378 0102 00E0     		b	.L96
 1379              	.LVL122:
 1380              	.L100:
 313:.\source\rte/sc_event.h ****       for( taskNum=0 ; taskNum < signal->pSigCfg->onUpdateTaskCount ;taskNum++){
ARM GAS  C:\Users\aditi\AppData\Local\Temp\ccxJli9U.s 			page 48


 1381              		.loc 3 313 0
 1382 0104 0024     		movs	r4, #0
 1383              	.LVL123:
 1384              	.L96:
 314:.\source\rte/sc_event.h **** 		  
 1385              		.loc 3 314 0
 1386 0106 054B     		ldr	r3, .L102+8
 1387 0108 9B68     		ldr	r3, [r3, #8]
 1388 010a 1A69     		ldr	r2, [r3, #16]
 1389 010c 9442     		cmp	r4, r2
 1390 010e F2D3     		bcc	.L97
 1391              	.LVL124:
 1392              	.L88:
 1393 0110 38BD     		pop	{r3, r4, r5, pc}
 1394              	.L103:
 1395 0112 00BF     		.align	2
 1396              	.L102:
 1397 0114 00000000 		.word	.LANCHOR1
 1398 0118 CDCCCCCC 		.word	-858993459
 1399 011c 00000000 		.word	SO_EVENT_signal
 1400 0120 B5814E1B 		.word	458129845
 1401 0124 60020000 		.word	.LC17
 1402              	.LBE116:
 1403              	.LBE115:
 1404              	.LBE114:
 1405              		.cfi_endproc
 1406              	.LFE141:
 1407              		.size	CLOCK_input_run, .-CLOCK_input_run
 1408              		.section	.text.CLOCK_control_run,"ax",%progbits
 1409              		.align	2
 1410              		.global	CLOCK_control_run
 1411              		.thumb
 1412              		.thumb_func
 1413              		.type	CLOCK_control_run, %function
 1414              	CLOCK_control_run:
 1415              	.LFB142:
 255:source\asw/swc_clock.c **** 	
 1416              		.loc 1 255 0
 1417              		.cfi_startproc
 1418              		@ args = 0, pretend = 0, frame = 40
 1419              		@ frame_needed = 0, uses_anonymous_args = 0
 1420              	.LVL125:
 1421 0000 F0B5     		push	{r4, r5, r6, r7, lr}
 1422              		.cfi_def_cfa_offset 20
 1423              		.cfi_offset 4, -20
 1424              		.cfi_offset 5, -16
 1425              		.cfi_offset 6, -12
 1426              		.cfi_offset 7, -8
 1427              		.cfi_offset 14, -4
 1428 0002 8DB0     		sub	sp, sp, #52
 1429              		.cfi_def_cfa_offset 72
 258:source\asw/swc_clock.c ****     
 1430              		.loc 1 258 0
 1431 0004 0F48     		ldr	r0, .L106
 1432              	.LVL126:
 1433 0006 FFF7FEFF 		bl	UART_LOG_PutString
 1434              	.LVL127:
ARM GAS  C:\Users\aditi\AppData\Local\Temp\ccxJli9U.s 			page 49


 1435              	.LBB118:
 1436              	.LBB119:
 265:.\source\rte/sc_event.h **** }                                                                                                  
 1437              		.loc 3 265 0
 1438 000a 0F4B     		ldr	r3, .L106+4
 1439 000c 1F78     		ldrb	r7, [r3]	@ zero_extendqisi2
 1440              	.LVL128:
 1441              	.LBE119:
 1442              	.LBE118:
 1443              	.LBB120:
 1444              	.LBB121:
 265:.\source\rte/sc_clock.h **** }                                                                                                  
 1445              		.loc 2 265 0
 1446 000e 0F4E     		ldr	r6, .L106+8
 1447 0010 03AC     		add	r4, sp, #12
 1448 0012 3546     		mov	r5, r6
 1449 0014 0FCD     		ldmia	r5!, {r0, r1, r2, r3}
 1450 0016 0FC4     		stmia	r4!, {r0, r1, r2, r3}
 1451 0018 0FCD     		ldmia	r5!, {r0, r1, r2, r3}
 1452 001a 0FC4     		stmia	r4!, {r0, r1, r2, r3}
 1453 001c 2B68     		ldr	r3, [r5]
 1454 001e 2360     		str	r3, [r4]
 1455              	.LVL129:
 1456              	.LBE121:
 1457              	.LBE120:
 267:source\asw/swc_clock.c ****                                     eventSignal_t.m_ev, &clockData.m_containerState);
 1458              		.loc 1 267 0
 1459 0020 03AB     		add	r3, sp, #12
 1460 0022 0193     		str	r3, [sp, #4]
 1461 0024 0097     		str	r7, [sp]
 1462 0026 0023     		movs	r3, #0
 1463 0028 1A46     		mov	r2, r3
 1464 002a 0321     		movs	r1, #3
 1465 002c 0848     		ldr	r0, .L106+12
 1466 002e FFF7FEFF 		bl	STATE_processEvent
 1467              	.LVL130:
 270:source\asw/swc_clock.c ****     
 1468              		.loc 1 270 0
 1469 0032 0848     		ldr	r0, .L106+16
 1470 0034 FFF7FEFF 		bl	UART_LOG_PutString
 1471              	.LVL131:
 278:source\asw/swc_clock.c ****     //RTE_SC_CLOCK_set(&SO_CLOCK_signal, clockData);
 1472              		.loc 1 278 0
 1473 0038 9DF80C30 		ldrb	r3, [sp, #12]	@ zero_extendqisi2
 1474 003c 3370     		strb	r3, [r6]
 282:source\asw/swc_clock.c **** 
 1475              		.loc 1 282 0
 1476 003e 0DB0     		add	sp, sp, #52
 1477              		.cfi_def_cfa_offset 20
 1478              		@ sp needed
 1479 0040 F0BD     		pop	{r4, r5, r6, r7, pc}
 1480              	.L107:
 1481 0042 00BF     		.align	2
 1482              	.L106:
 1483 0044 78020000 		.word	.LC18
 1484 0048 00000000 		.word	SO_EVENT_signal
 1485 004c 00000000 		.word	SO_CLOCK_signal
ARM GAS  C:\Users\aditi\AppData\Local\Temp\ccxJli9U.s 			page 50


 1486 0050 24000000 		.word	.LANCHOR0+36
 1487 0054 90020000 		.word	.LC19
 1488              		.cfi_endproc
 1489              	.LFE142:
 1490              		.size	CLOCK_control_run, .-CLOCK_control_run
 1491              		.section	.text.CLOCK_display_run,"ax",%progbits
 1492              		.align	2
 1493              		.global	CLOCK_display_run
 1494              		.thumb
 1495              		.thumb_func
 1496              		.type	CLOCK_display_run, %function
 1497              	CLOCK_display_run:
 1498              	.LFB143:
 295:source\asw/swc_clock.c **** 	
 1499              		.loc 1 295 0
 1500              		.cfi_startproc
 1501              		@ args = 0, pretend = 0, frame = 48
 1502              		@ frame_needed = 0, uses_anonymous_args = 0
 1503              	.LVL132:
 1504 0000 30B5     		push	{r4, r5, lr}
 1505              		.cfi_def_cfa_offset 12
 1506              		.cfi_offset 4, -12
 1507              		.cfi_offset 5, -8
 1508              		.cfi_offset 14, -4
 1509 0002 8DB0     		sub	sp, sp, #52
 1510              		.cfi_def_cfa_offset 64
 1511              	.LVL133:
 1512              	.LBB122:
 1513              	.LBB123:
 265:.\source\rte/sc_clock.h **** }                                                                                                  
 1514              		.loc 2 265 0
 1515 0004 03AC     		add	r4, sp, #12
 1516 0006 234D     		ldr	r5, .L115
 1517 0008 0FCD     		ldmia	r5!, {r0, r1, r2, r3}
 1518              	.LVL134:
 1519 000a 0FC4     		stmia	r4!, {r0, r1, r2, r3}
 1520 000c 0FCD     		ldmia	r5!, {r0, r1, r2, r3}
 1521 000e 0FC4     		stmia	r4!, {r0, r1, r2, r3}
 1522 0010 2B68     		ldr	r3, [r5]
 1523 0012 2360     		str	r3, [r4]
 1524              	.LVL135:
 1525              	.LBE123:
 1526              	.LBE122:
 306:source\asw/swc_clock.c ****     dispTFT.minutes.tensValue = (clock.m_minutes.m_value / 10);
 1527              		.loc 1 306 0
 1528 0014 9DF82C10 		ldrb	r1, [sp, #44]	@ zero_extendqisi2
 1529 0018 1F4B     		ldr	r3, .L115+4
 1530 001a A3FB0102 		umull	r0, r2, r3, r1
 1531 001e D208     		lsrs	r2, r2, #3
 1532 0020 02EB8204 		add	r4, r2, r2, lsl #2
 1533 0024 6000     		lsls	r0, r4, #1
 1534 0026 091A     		subs	r1, r1, r0
 1535 0028 8DF80A10 		strb	r1, [sp, #10]
 307:source\asw/swc_clock.c ****     
 1536              		.loc 1 307 0
 1537 002c 8DF80B20 		strb	r2, [sp, #11]
 309:source\asw/swc_clock.c ****     dispTFT.hours.tensValue = (clock.m_hours.m_value / 10);
ARM GAS  C:\Users\aditi\AppData\Local\Temp\ccxJli9U.s 			page 51


 1538              		.loc 1 309 0
 1539 0030 9DF82020 		ldrb	r2, [sp, #32]	@ zero_extendqisi2
 1540 0034 A3FB0213 		umull	r1, r3, r3, r2
 1541 0038 DB08     		lsrs	r3, r3, #3
 1542 003a 03EB8300 		add	r0, r3, r3, lsl #2
 1543 003e 4100     		lsls	r1, r0, #1
 1544 0040 521A     		subs	r2, r2, r1
 1545 0042 8DF80820 		strb	r2, [sp, #8]
 310:source\asw/swc_clock.c ****     
 1546              		.loc 1 310 0
 1547 0046 8DF80930 		strb	r3, [sp, #9]
 1548              	.LVL136:
 1549 004a 0299     		ldr	r1, [sp, #8]
 1550 004c 0191     		str	r1, [sp, #4]
 1551              	.LVL137:
 1552              	.LBB124:
 1553              	.LBB125:
 1554              		.file 4 ".\\source\\rte/sc_display.h"
   1:.\source\rte/sc_display.h **** 
   2:.\source\rte/sc_display.h **** 
   3:.\source\rte/sc_display.h **** /**
   4:.\source\rte/sc_display.h **** *  file    SC_DISPLAY_signal.h
   5:.\source\rte/sc_display.h **** *
   6:.\source\rte/sc_display.h **** *  brief   signal base class for signal sc_display
   7:.\source\rte/sc_display.h **** *
   8:.\source\rte/sc_display.h **** *  author  Autogenerated, Peter Fromm       <peter.fromm@h-da.de>
   9:.\source\rte/sc_display.h **** *
  10:.\source\rte/sc_display.h **** *
  11:.\source\rte/sc_display.h **** */
  12:.\source\rte/sc_display.h **** 
  13:.\source\rte/sc_display.h **** /*
  14:.\source\rte/sc_display.h **** * description: Display respresentation datatype
  15:.\source\rte/sc_display.h **** * name: sc_display
  16:.\source\rte/sc_display.h **** * shortname: display
  17:.\source\rte/sc_display.h **** */
  18:.\source\rte/sc_display.h **** 
  19:.\source\rte/sc_display.h **** #ifndef SC_DISPLAY_SIGNAL_H_INCLUDED
  20:.\source\rte/sc_display.h **** #define SC_DISPLAY_SIGNAL_H_INCLUDED
  21:.\source\rte/sc_display.h **** 
  22:.\source\rte/sc_display.h **** /*================================================[ public includes  ]=============================
  23:.\source\rte/sc_display.h **** #include "global.h"
  24:.\source\rte/sc_display.h **** #include "project.h"
  25:.\source\rte/sc_display.h **** #include "rte.h"
  26:.\source\rte/sc_display.h **** #include "rte_types.h"
  27:.\source\rte/sc_display.h **** 
  28:.\source\rte/sc_display.h **** #include "sc_display_type.h"
  29:.\source\rte/sc_display.h **** 
  30:.\source\rte/sc_display.h **** 
  31:.\source\rte/sc_display.h **** /**************************************************************************************************
  32:.\source\rte/sc_display.h **** /* The driver API block																						*/
  33:.\source\rte/sc_display.h **** /**************************************************************************************************
  34:.\source\rte/sc_display.h ****                                                                                                    
  35:.\source\rte/sc_display.h **** /**
  36:.\source\rte/sc_display.h ****  *  Definition of function types for driver interfaces.
  37:.\source\rte/sc_display.h ****  *  I-Port
  38:.\source\rte/sc_display.h ****  */
  39:.\source\rte/sc_display.h **** typedef RC_t (*SC_DISPLAY_driverIn_t)(SC_DISPLAY_data_t * const);
ARM GAS  C:\Users\aditi\AppData\Local\Temp\ccxJli9U.s 			page 52


  40:.\source\rte/sc_display.h **** 
  41:.\source\rte/sc_display.h **** /**
  42:.\source\rte/sc_display.h ****  *  Definition of function types for driver interfaces.
  43:.\source\rte/sc_display.h ****  *  O-Port
  44:.\source\rte/sc_display.h ****  */
  45:.\source\rte/sc_display.h **** typedef RC_t (*SC_DISPLAY_driverOut_t)( const SC_DISPLAY_data_t * const);
  46:.\source\rte/sc_display.h **** 
  47:.\source\rte/sc_display.h **** 
  48:.\source\rte/sc_display.h **** /**************************************************************************************************
  49:.\source\rte/sc_display.h **** /* The signal configuration API block																				*/
  50:.\source\rte/sc_display.h **** /**************************************************************************************************
  51:.\source\rte/sc_display.h **** 
  52:.\source\rte/sc_display.h **** /**
  53:.\source\rte/sc_display.h ****  * Instances of the struct SC_DISPLAY_cfg_t represent the signal object configuration.
  54:.\source\rte/sc_display.h ****  */
  55:.\source\rte/sc_display.h **** struct SC_DISPLAY_cfg_s
  56:.\source\rte/sc_display.h **** {
  57:.\source\rte/sc_display.h ****     /**
  58:.\source\rte/sc_display.h ****      * Function pointer to the input driver
  59:.\source\rte/sc_display.h ****      */
  60:.\source\rte/sc_display.h ****     SC_DISPLAY_driverIn_t const inDriver;
  61:.\source\rte/sc_display.h **** 
  62:.\source\rte/sc_display.h ****     /**
  63:.\source\rte/sc_display.h ****      * Function pointer to the output driver table
  64:.\source\rte/sc_display.h ****      */
  65:.\source\rte/sc_display.h ****    SC_DISPLAY_driverOut_t const outDriver;
  66:.\source\rte/sc_display.h ****    
  67:.\source\rte/sc_display.h ****     /**
  68:.\source\rte/sc_display.h ****      * Event onUpdate
  69:.\source\rte/sc_display.h ****      */
  70:.\source\rte/sc_display.h ****     EventMaskType const evOnUpdate;
  71:.\source\rte/sc_display.h ****     
  72:.\source\rte/sc_display.h ****     
  73:.\source\rte/sc_display.h ****     /**
  74:.\source\rte/sc_display.h ****      * Event onError
  75:.\source\rte/sc_display.h ****      */
  76:.\source\rte/sc_display.h ****     EventMaskType const evOnError;
  77:.\source\rte/sc_display.h ****     
  78:.\source\rte/sc_display.h ****     /**
  79:.\source\rte/sc_display.h ****      * Task Count onUpdate
  80:.\source\rte/sc_display.h ****      */
  81:.\source\rte/sc_display.h ****     size_t const onUpdateTaskCount;
  82:.\source\rte/sc_display.h **** 
  83:.\source\rte/sc_display.h ****     /**
  84:.\source\rte/sc_display.h ****      * Task List onUpdate
  85:.\source\rte/sc_display.h ****      */
  86:.\source\rte/sc_display.h ****     TaskTypeArray* const onUpdateTasks;
  87:.\source\rte/sc_display.h ****     
  88:.\source\rte/sc_display.h ****     /**
  89:.\source\rte/sc_display.h ****      * Task Count onError
  90:.\source\rte/sc_display.h ****      */
  91:.\source\rte/sc_display.h ****     size_t const onErrorTaskCount;
  92:.\source\rte/sc_display.h **** 
  93:.\source\rte/sc_display.h ****     /**
  94:.\source\rte/sc_display.h ****      * Task List onError
  95:.\source\rte/sc_display.h ****      */
  96:.\source\rte/sc_display.h ****     TaskTypeArray* const onErrorTasks;
ARM GAS  C:\Users\aditi\AppData\Local\Temp\ccxJli9U.s 			page 53


  97:.\source\rte/sc_display.h **** 	
  98:.\source\rte/sc_display.h **** 	
  99:.\source\rte/sc_display.h **** 	/**
 100:.\source\rte/sc_display.h **** 	 * Ressourse is active? We need an additional boolean as a ressource value 0 is valid.
 101:.\source\rte/sc_display.h **** 	 */
 102:.\source\rte/sc_display.h **** 	 boolean_t const resourceActive;
 103:.\source\rte/sc_display.h **** 	 
 104:.\source\rte/sc_display.h **** 	/**
 105:.\source\rte/sc_display.h **** 	 * Ressourse 
 106:.\source\rte/sc_display.h **** 	 */
 107:.\source\rte/sc_display.h **** 	 ResourceType const resource;
 108:.\source\rte/sc_display.h **** 
 109:.\source\rte/sc_display.h **** };                                                                                                 
 110:.\source\rte/sc_display.h **** typedef const struct SC_DISPLAY_cfg_s SC_DISPLAY_cfg_t;
 111:.\source\rte/sc_display.h ****                               
 112:.\source\rte/sc_display.h **** /**************************************************************************************************
 113:.\source\rte/sc_display.h **** /* The data interface block																							*/
 114:.\source\rte/sc_display.h **** /**************************************************************************************************
 115:.\source\rte/sc_display.h **** 
 116:.\source\rte/sc_display.h ****                                                                                                    
 117:.\source\rte/sc_display.h **** 							  
 118:.\source\rte/sc_display.h **** /**
 119:.\source\rte/sc_display.h ****  * Instances of the struct SC_DISPLAY_t represent the signal objects.
 120:.\source\rte/sc_display.h ****  * A signal object contains the current application value 'value' as well as relevant meta data.
 121:.\source\rte/sc_display.h ****  */
 122:.\source\rte/sc_display.h **** struct SC_DISPLAY_s
 123:.\source\rte/sc_display.h **** {                                                                                                  
 124:.\source\rte/sc_display.h **** 
 125:.\source\rte/sc_display.h **** 	/**
 126:.\source\rte/sc_display.h **** 	 * Data buffer for the application value
 127:.\source\rte/sc_display.h **** 	 */
 128:.\source\rte/sc_display.h ****     SC_DISPLAY_data_t value;
 129:.\source\rte/sc_display.h **** 
 130:.\source\rte/sc_display.h ****     /**
 131:.\source\rte/sc_display.h ****      * Current signal status
 132:.\source\rte/sc_display.h ****      */
 133:.\source\rte/sc_display.h ****     RTE_signalStatus_t status;
 134:.\source\rte/sc_display.h **** 
 135:.\source\rte/sc_display.h ****     /**
 136:.\source\rte/sc_display.h ****      * Current age of the signal (in calling cycles)
 137:.\source\rte/sc_display.h ****      */
 138:.\source\rte/sc_display.h ****     uint32_t age;
 139:.\source\rte/sc_display.h **** 
 140:.\source\rte/sc_display.h ****     /**
 141:.\source\rte/sc_display.h ****      * Pointer to the signal configuration
 142:.\source\rte/sc_display.h ****      */
 143:.\source\rte/sc_display.h **** 	const SC_DISPLAY_cfg_t * const    pSigCfg;
 144:.\source\rte/sc_display.h **** 
 145:.\source\rte/sc_display.h **** };                                                                                                 
 146:.\source\rte/sc_display.h **** typedef struct SC_DISPLAY_s SC_DISPLAY_t;
 147:.\source\rte/sc_display.h **** 
 148:.\source\rte/sc_display.h **** /**************************************************************************************************
 149:.\source\rte/sc_display.h **** /* Signal initialisation   																							*/
 150:.\source\rte/sc_display.h **** /**************************************************************************************************
 151:.\source\rte/sc_display.h **** 
 152:.\source\rte/sc_display.h **** /**
 153:.\source\rte/sc_display.h ****  * Initializes a signal instance with a passed init value.
ARM GAS  C:\Users\aditi\AppData\Local\Temp\ccxJli9U.s 			page 54


 154:.\source\rte/sc_display.h ****  * Depending on the configured conversion or scaling function the raw_value will be calculated.
 155:.\source\rte/sc_display.h ****  * Signal status will change from RTE_SIGNALSTATUS_STARTUP to RTE_SIGNALSTATUS_INITIALIZED.
 156:.\source\rte/sc_display.h ****  *
 157:.\source\rte/sc_display.h ****  * @param  SC_DISPLAY_t * const signal: Pointer to the signal object which will be initialised
 158:.\source\rte/sc_display.h ****  * @param const sc_display_data_t * const value: Pointer to initial value of the application data
 159:.\source\rte/sc_display.h ****  * @return RC_t: standard return code, currently only RC_SUCCESS
 160:.\source\rte/sc_display.h ****  *
 161:.\source\rte/sc_display.h ****  **/
 162:.\source\rte/sc_display.h **** inline RC_t RTE_SC_DISPLAY_init( SC_DISPLAY_t * const signal, const SC_DISPLAY_data_t * const value
 163:.\source\rte/sc_display.h **** {                                                                                                  
 164:.\source\rte/sc_display.h **** 
 165:.\source\rte/sc_display.h ****    RC_t ret = RC_SUCCESS;
 166:.\source\rte/sc_display.h **** 
 167:.\source\rte/sc_display.h ****    //Set value and raw value
 168:.\source\rte/sc_display.h ****    signal->value  = *value;
 169:.\source\rte/sc_display.h ****    signal->age    = 0;
 170:.\source\rte/sc_display.h ****    signal->status = RTE_SIGNALSTATUS_INITIALIZED;
 171:.\source\rte/sc_display.h **** 
 172:.\source\rte/sc_display.h ****    return ret;
 173:.\source\rte/sc_display.h **** }
 174:.\source\rte/sc_display.h **** 
 175:.\source\rte/sc_display.h **** /**************************************************************************************************
 176:.\source\rte/sc_display.h **** /* Status and timeout control																						*/
 177:.\source\rte/sc_display.h **** /**************************************************************************************************
 178:.\source\rte/sc_display.h **** 
 179:.\source\rte/sc_display.h **** /**
 180:.\source\rte/sc_display.h ****  *  Returns the current signal status of the passed signal instance.
 181:.\source\rte/sc_display.h ****  *
 182:.\source\rte/sc_display.h ****  * @param  SC_DISPLAY_t * const signal: Pointer to the signal object
 183:.\source\rte/sc_display.h ****  * @return  sig_status_t: The current signal status
 184:.\source\rte/sc_display.h ****  *
 185:.\source\rte/sc_display.h ****  **/
 186:.\source\rte/sc_display.h **** inline RTE_signalStatus_t RTE_SC_DISPLAY_getStatus( const SC_DISPLAY_t * const signal )
 187:.\source\rte/sc_display.h **** {
 188:.\source\rte/sc_display.h ****    return signal->status;
 189:.\source\rte/sc_display.h **** }
 190:.\source\rte/sc_display.h **** 
 191:.\source\rte/sc_display.h **** 
 192:.\source\rte/sc_display.h **** /**
 193:.\source\rte/sc_display.h ****  *  Sets a new signal status of the passed signal instance by passing the new status.
 194:.\source\rte/sc_display.h ****  *
 195:.\source\rte/sc_display.h ****  * @param  SC_DISPLAY_t * const signal: Pointer to the signal object
 196:.\source\rte/sc_display.h ****  * @param  const sig_status_t status: New signal status
 197:.\source\rte/sc_display.h ****  * @return RC_t: standard return code, currently only RC_SUCCESS
 198:.\source\rte/sc_display.h ****  *
 199:.\source\rte/sc_display.h ****  */
 200:.\source\rte/sc_display.h **** inline RC_t RTE_SC_DISPLAY_setStatus( SC_DISPLAY_t * const signal, const RTE_signalStatus_t status 
 201:.\source\rte/sc_display.h **** {
 202:.\source\rte/sc_display.h ****    signal->status = status;
 203:.\source\rte/sc_display.h ****    size_t taskNum=0;
 204:.\source\rte/sc_display.h ****    
 205:.\source\rte/sc_display.h ****    //Fire error events in case of invalid state
 206:.\source\rte/sc_display.h ****    if (signal->status == RTE_SIGNALSTATUS_INVALID)
 207:.\source\rte/sc_display.h ****    {
 208:.\source\rte/sc_display.h **** 	    //Pointer to the Taskarray, containing the tasks receiving the onUpdate events
 209:.\source\rte/sc_display.h **** 		TaskTypeArray* pTaskArray = signal->pSigCfg->onErrorTasks;
 210:.\source\rte/sc_display.h **** 
ARM GAS  C:\Users\aditi\AppData\Local\Temp\ccxJli9U.s 			page 55


 211:.\source\rte/sc_display.h **** 		if (NULL!=signal->pSigCfg->evOnError && NULL != pTaskArray){
 212:.\source\rte/sc_display.h **** 			for( taskNum=0 ; taskNum < signal->pSigCfg->onErrorTaskCount ;taskNum++){
 213:.\source\rte/sc_display.h **** 				TaskType task = (*pTaskArray)[taskNum];
 214:.\source\rte/sc_display.h **** 				SetEvent( task, signal->pSigCfg->evOnError);
 215:.\source\rte/sc_display.h **** 			}
 216:.\source\rte/sc_display.h **** 		}
 217:.\source\rte/sc_display.h ****    }
 218:.\source\rte/sc_display.h ****    
 219:.\source\rte/sc_display.h ****    return RC_SUCCESS;
 220:.\source\rte/sc_display.h **** }
 221:.\source\rte/sc_display.h **** 
 222:.\source\rte/sc_display.h **** 
 223:.\source\rte/sc_display.h **** /**
 224:.\source\rte/sc_display.h ****  * Returns the count of refreshing trials (refresh, set or set_raw) that failed.
 225:.\source\rte/sc_display.h ****  * Prerquisite: The signal is refreshed cyclically
 226:.\source\rte/sc_display.h ****  *
 227:.\source\rte/sc_display.h ****  * @param  SC_DISPLAY_t * const signal: Pointer to the signal object
 228:.\source\rte/sc_display.h ****  * @return uint32_t: Number of cycles since the signal has been updated for the last time
 229:.\source\rte/sc_display.h ****  */
 230:.\source\rte/sc_display.h **** inline uint32_t RTE_SC_DISPLAY_getAge( const SC_DISPLAY_t * const signal )
 231:.\source\rte/sc_display.h **** {
 232:.\source\rte/sc_display.h ****    return signal->age;
 233:.\source\rte/sc_display.h **** }
 234:.\source\rte/sc_display.h **** 
 235:.\source\rte/sc_display.h **** /**
 236:.\source\rte/sc_display.h ****  * Should be called by application or driver if no new value can be provided.
 237:.\source\rte/sc_display.h ****  * @param  SC_DISPLAY_t * const signal: Pointer to the signal object
 238:.\source\rte/sc_display.h ****  * @param uint32_t increment: incrementvalue, typically in [ms]
 239:.\source\rte/sc_display.h ****  * @return void
 240:.\source\rte/sc_display.h ****  */
 241:.\source\rte/sc_display.h **** inline void RTE_SC_DISPLAY_incAge(  SC_DISPLAY_t * const signal , uint32_t increment)
 242:.\source\rte/sc_display.h **** {
 243:.\source\rte/sc_display.h **** 	   //Hack....
 244:.\source\rte/sc_display.h **** 	   if ( 0xFFFF0000 > (signal->age + increment) )
 245:.\source\rte/sc_display.h **** 	   {
 246:.\source\rte/sc_display.h **** 	      signal->age += increment;
 247:.\source\rte/sc_display.h **** 	   }
 248:.\source\rte/sc_display.h **** }
 249:.\source\rte/sc_display.h **** 
 250:.\source\rte/sc_display.h **** 
 251:.\source\rte/sc_display.h **** /**************************************************************************************************
 252:.\source\rte/sc_display.h **** /* Application Data read/write Interface																			*/
 253:.\source\rte/sc_display.h **** /**************************************************************************************************
 254:.\source\rte/sc_display.h **** 
 255:.\source\rte/sc_display.h **** /**
 256:.\source\rte/sc_display.h ****  * Returns the current application value of the passed signal instance.
 257:.\source\rte/sc_display.h ****  *
 258:.\source\rte/sc_display.h ****  * @param  SC_DISPLAY_t * const signal: Pointer to the signal object
 259:.\source\rte/sc_display.h ****  * @return sc_display_data_t: current value of the application data buffer
 260:.\source\rte/sc_display.h ****  *
 261:.\source\rte/sc_display.h ****  **/
 262:.\source\rte/sc_display.h **** inline SC_DISPLAY_data_t RTE_SC_DISPLAY_get( const SC_DISPLAY_t * const signal )
 263:.\source\rte/sc_display.h **** {               
 264:.\source\rte/sc_display.h ****    //Todo: Critical region cannot be protected using return values																						
 265:.\source\rte/sc_display.h ****    return signal->value;                                                                           
 266:.\source\rte/sc_display.h **** }                                                                                                  
 267:.\source\rte/sc_display.h ****                                                                                                    
ARM GAS  C:\Users\aditi\AppData\Local\Temp\ccxJli9U.s 			page 56


 268:.\source\rte/sc_display.h **** /**
 269:.\source\rte/sc_display.h ****  * Returns the current application value of the passed signal instance threadsafe.
 270:.\source\rte/sc_display.h ****  *
 271:.\source\rte/sc_display.h ****  * @param  SC_DISPLAY_t * const signal: Pointer to the signal object
 272:.\source\rte/sc_display.h ****  * @param  SC_DISPLAY_data_t* data: Pointer to the return data Pointer to the signal object
 273:.\source\rte/sc_display.h ****  * @return RC_SUCCESS
 274:.\source\rte/sc_display.h ****  *
 275:.\source\rte/sc_display.h ****  **/
 276:.\source\rte/sc_display.h **** inline RC_t RTE_SC_DISPLAY_getThreadSafe( const SC_DISPLAY_t * const signal, SC_DISPLAY_data_t * co
 277:.\source\rte/sc_display.h **** {    
 278:.\source\rte/sc_display.h ****    if (TRUE == signal->pSigCfg->resourceActive) GetResource(signal->pSigCfg->resource);
 279:.\source\rte/sc_display.h ****    *data = signal->value;
 280:.\source\rte/sc_display.h ****    if (TRUE == signal->pSigCfg->resourceActive) ReleaseResource(signal->pSigCfg->resource);        
 281:.\source\rte/sc_display.h **** 
 282:.\source\rte/sc_display.h ****    return RC_SUCCESS;                                                                   
 283:.\source\rte/sc_display.h ****    
 284:.\source\rte/sc_display.h **** }                                                                                                  
 285:.\source\rte/sc_display.h ****                                                                                                    
 286:.\source\rte/sc_display.h **** /**
 287:.\source\rte/sc_display.h ****  * Sets a new application value to the passed signal instance by passing the new value.
 288:.\source\rte/sc_display.h ****  * The corresponding driver raw value will be calculated immediately by using the default conversio
 289:.\source\rte/sc_display.h ****  * signal specific scaling function.
 290:.\source\rte/sc_display.h ****  * The signal age will be set to 0 and the new status will be 'RTE_SIGNALSTATUS_VALID'.
 291:.\source\rte/sc_display.h ****  *
 292:.\source\rte/sc_display.h ****  * @param  SC_DISPLAY_t * const signal: Pointer to the signal object
 293:.\source\rte/sc_display.h ****  * @param  sc_display_data_t const value: value for the application data buffer
 294:.\source\rte/sc_display.h ****  * @return RC_t: standard return code, currently only RC_SUCCESS
 295:.\source\rte/sc_display.h ****  *
 296:.\source\rte/sc_display.h ****  **/
 297:.\source\rte/sc_display.h **** inline RC_t RTE_SC_DISPLAY_set(SC_DISPLAY_t * const signal, const SC_DISPLAY_data_t value  )
 298:.\source\rte/sc_display.h **** {
 299:.\source\rte/sc_display.h **** 
 300:.\source\rte/sc_display.h ****    RC_t ret = RC_SUCCESS;
 301:.\source\rte/sc_display.h ****    size_t taskNum=0;
 302:.\source\rte/sc_display.h **** 
 303:.\source\rte/sc_display.h **** 
 304:.\source\rte/sc_display.h ****    if (TRUE == signal->pSigCfg->resourceActive) GetResource(signal->pSigCfg->resource);
 1555              		.loc 4 304 0
 1556 004e 134B     		ldr	r3, .L115+8
 1557 0050 DA68     		ldr	r2, [r3, #12]
 305:.\source\rte/sc_display.h ****    signal->value  = value;
 1558              		.loc 4 305 0
 1559 0052 1960     		str	r1, [r3]
 306:.\source\rte/sc_display.h ****    signal->age    = 0;
 1560              		.loc 4 306 0
 1561 0054 0021     		movs	r1, #0
 1562 0056 9960     		str	r1, [r3, #8]
 307:.\source\rte/sc_display.h ****    signal->status = RTE_SIGNALSTATUS_VALID;
 1563              		.loc 4 307 0
 1564 0058 0221     		movs	r1, #2
 1565 005a 1971     		strb	r1, [r3, #4]
 308:.\source\rte/sc_display.h ****    if (TRUE == signal->pSigCfg->resourceActive) ReleaseResource(signal->pSigCfg->resource);
 309:.\source\rte/sc_display.h **** 
 310:.\source\rte/sc_display.h ****    //Pointer to the Taskarray, containing the tasks receiving the onUpdate events
 311:.\source\rte/sc_display.h ****    TaskTypeArray* pTaskArray = signal->pSigCfg->onUpdateTasks;
 1566              		.loc 4 311 0
 1567 005c 5569     		ldr	r5, [r2, #20]
ARM GAS  C:\Users\aditi\AppData\Local\Temp\ccxJli9U.s 			page 57


 1568              	.LVL138:
 312:.\source\rte/sc_display.h **** 
 313:.\source\rte/sc_display.h ****    if (NULL!=signal->pSigCfg->evOnUpdate && NULL != pTaskArray){
 1569              		.loc 4 313 0
 1570 005e 9368     		ldr	r3, [r2, #8]
 1571 0060 73B1     		cbz	r3, .L109
 1572 0062 3DB9     		cbnz	r5, .L113
 1573 0064 0CE0     		b	.L109
 1574              	.LVL139:
 1575              	.L111:
 1576              	.LBB126:
 314:.\source\rte/sc_display.h ****       for( taskNum=0 ; taskNum < signal->pSigCfg->onUpdateTaskCount ;taskNum++){
 315:.\source\rte/sc_display.h **** 		  
 316:.\source\rte/sc_display.h ****           TaskType task = (*pTaskArray)[taskNum];
 317:.\source\rte/sc_display.h **** 	      SetEvent( task, signal->pSigCfg->evOnUpdate);
 1577              		.loc 4 317 0
 1578 0066 9968     		ldr	r1, [r3, #8]
 1579 0068 55F82400 		ldr	r0, [r5, r4, lsl #2]
 1580 006c FFF7FEFF 		bl	EE_oo_SetEvent
 1581              	.LVL140:
 1582              	.LBE126:
 314:.\source\rte/sc_display.h ****       for( taskNum=0 ; taskNum < signal->pSigCfg->onUpdateTaskCount ;taskNum++){
 1583              		.loc 4 314 0
 1584 0070 0134     		adds	r4, r4, #1
 1585              	.LVL141:
 1586 0072 00E0     		b	.L110
 1587              	.LVL142:
 1588              	.L113:
 313:.\source\rte/sc_display.h ****       for( taskNum=0 ; taskNum < signal->pSigCfg->onUpdateTaskCount ;taskNum++){
 1589              		.loc 4 313 0
 1590 0074 0024     		movs	r4, #0
 1591              	.LVL143:
 1592              	.L110:
 314:.\source\rte/sc_display.h ****       for( taskNum=0 ; taskNum < signal->pSigCfg->onUpdateTaskCount ;taskNum++){
 1593              		.loc 4 314 0
 1594 0076 094B     		ldr	r3, .L115+8
 1595 0078 DB68     		ldr	r3, [r3, #12]
 1596 007a 1A69     		ldr	r2, [r3, #16]
 1597 007c 9442     		cmp	r4, r2
 1598 007e F2D3     		bcc	.L111
 1599              	.LVL144:
 1600              	.L109:
 1601              	.LBE125:
 1602              	.LBE124:
 1603              	.LBB127:
 1604              	.LBB128:
 318:.\source\rte/sc_display.h ****       }
 319:.\source\rte/sc_display.h ****    }
 320:.\source\rte/sc_display.h **** 
 321:.\source\rte/sc_display.h ****    return ret;
 322:.\source\rte/sc_display.h **** }                                                                                                  
 323:.\source\rte/sc_display.h ****                                                                                                    
 324:.\source\rte/sc_display.h ****                                                                                                    
 325:.\source\rte/sc_display.h **** /**************************************************************************************************
 326:.\source\rte/sc_display.h **** /* Call functions to the connected drivers																			*/
 327:.\source\rte/sc_display.h **** /**************************************************************************************************
 328:.\source\rte/sc_display.h **** 
ARM GAS  C:\Users\aditi\AppData\Local\Temp\ccxJli9U.s 			page 58


 329:.\source\rte/sc_display.h ****                                                                                                    
 330:.\source\rte/sc_display.h **** /**
 331:.\source\rte/sc_display.h ****  *  Calls the connected driver interface to get a new value.
 332:.\source\rte/sc_display.h ****  *
 333:.\source\rte/sc_display.h ****  * @param SC_DISPLAY_t * const signal: Pointer to the signal object
 334:.\source\rte/sc_display.h ****  * @return  RC_t: Return value of the driver call
 335:.\source\rte/sc_display.h ****  *
 336:.\source\rte/sc_display.h ****  */
 337:.\source\rte/sc_display.h **** inline RC_t RTE_SC_DISPLAY_pullPort( SC_DISPLAY_t * const signal )
 338:.\source\rte/sc_display.h **** {                                                                                                  
 339:.\source\rte/sc_display.h ****    RC_t ret = RC_SUCCESS;
 340:.\source\rte/sc_display.h **** 
 341:.\source\rte/sc_display.h ****                                                                                                    
 342:.\source\rte/sc_display.h ****    if ( NULL != signal->pSigCfg->inDriver )
 343:.\source\rte/sc_display.h ****    {
 344:.\source\rte/sc_display.h **** 	  SC_DISPLAY_data_t value = signal->value;
 345:.\source\rte/sc_display.h ****       ret = signal->pSigCfg->inDriver(&value);
 346:.\source\rte/sc_display.h ****                                                                                                    
 347:.\source\rte/sc_display.h ****       if ( ret == RC_SUCCESS )                                                                     
 348:.\source\rte/sc_display.h ****       {
 349:.\source\rte/sc_display.h ****     	  //Critical Section
 350:.\source\rte/sc_display.h ****     	  RTE_SC_DISPLAY_set(signal, value);
 351:.\source\rte/sc_display.h ****       }
 352:.\source\rte/sc_display.h ****       else
 353:.\source\rte/sc_display.h ****       {
 354:.\source\rte/sc_display.h **** 		  //Signal is invalid. Error event (if present) will be fired
 355:.\source\rte/sc_display.h **** 		  RTE_SC_DISPLAY_setStatus(signal, RTE_SIGNALSTATUS_INVALID);
 356:.\source\rte/sc_display.h ****       }
 357:.\source\rte/sc_display.h **** 
 358:.\source\rte/sc_display.h ****    }                                                                                               
 359:.\source\rte/sc_display.h ****                                                                                                    
 360:.\source\rte/sc_display.h ****    return ret;                                                                                     
 361:.\source\rte/sc_display.h **** }                                                                                                  
 362:.\source\rte/sc_display.h ****                                                                                                    
 363:.\source\rte/sc_display.h **** /**
 364:.\source\rte/sc_display.h ****  *  Calls the connected driver interfaces to send a value. Value will not be sent if it is INVALID.
 365:.\source\rte/sc_display.h ****  *
 366:.\source\rte/sc_display.h ****  * @param SC_DISPLAY_t * const signal: Pointer to the signal object
 367:.\source\rte/sc_display.h ****  * @return  RC_t: Return value of the driver call
 368:.\source\rte/sc_display.h ****  *
 369:.\source\rte/sc_display.h ****  **/
 370:.\source\rte/sc_display.h **** inline RC_t RTE_SC_DISPLAY_pushPort( const SC_DISPLAY_t * const signal )
 371:.\source\rte/sc_display.h **** {                                                                                                  
 372:.\source\rte/sc_display.h ****    RC_t ret = RC_ERROR;
 373:.\source\rte/sc_display.h **** 
 374:.\source\rte/sc_display.h ****    if (RTE_SIGNALSTATUS_VALID == signal->status)
 1605              		.loc 4 374 0
 1606 0080 064B     		ldr	r3, .L115+8
 1607 0082 1B79     		ldrb	r3, [r3, #4]	@ zero_extendqisi2
 1608 0084 022B     		cmp	r3, #2
 1609 0086 03D1     		bne	.L108
 375:.\source\rte/sc_display.h ****    {
 376:.\source\rte/sc_display.h **** 	   ret = signal->pSigCfg->outDriver(&(signal->value));
 1610              		.loc 4 376 0
 1611 0088 0448     		ldr	r0, .L115+8
 1612 008a C368     		ldr	r3, [r0, #12]
 1613 008c 5B68     		ldr	r3, [r3, #4]
ARM GAS  C:\Users\aditi\AppData\Local\Temp\ccxJli9U.s 			page 59


 1614 008e 9847     		blx	r3
 1615              	.LVL145:
 1616              	.L108:
 1617              	.LBE128:
 1618              	.LBE127:
 318:source\asw/swc_clock.c **** 
 1619              		.loc 1 318 0
 1620 0090 0DB0     		add	sp, sp, #52
 1621              		.cfi_def_cfa_offset 12
 1622              		@ sp needed
 1623 0092 30BD     		pop	{r4, r5, pc}
 1624              	.L116:
 1625              		.align	2
 1626              	.L115:
 1627 0094 00000000 		.word	SO_CLOCK_signal
 1628 0098 CDCCCCCC 		.word	-858993459
 1629 009c 00000000 		.word	SO_DISPLAY_signal
 1630              		.cfi_endproc
 1631              	.LFE143:
 1632              		.size	CLOCK_display_run, .-CLOCK_display_run
 1633              		.section	.text.ISR2_isr_button,"ax",%progbits
 1634              		.align	2
 1635              		.global	ISR2_isr_button
 1636              		.thumb
 1637              		.thumb_func
 1638              		.type	ISR2_isr_button, %function
 1639              	ISR2_isr_button:
 1640              	.LFB159:
 535:source\asw/swc_clock.c **** 
 536:source\asw/swc_clock.c **** /********************************************************************************
 537:source\asw/swc_clock.c ****  * ISR Definitions
 538:source\asw/swc_clock.c ****  ********************************************************************************/
 539:source\asw/swc_clock.c **** 
 540:source\asw/swc_clock.c **** ISR2(isr_button)
 541:source\asw/swc_clock.c **** {
 1641              		.loc 1 541 0
 1642              		.cfi_startproc
 1643              		@ args = 0, pretend = 0, frame = 0
 1644              		@ frame_needed = 0, uses_anonymous_args = 0
 1645 0000 38B5     		push	{r3, r4, r5, lr}
 1646              		.cfi_def_cfa_offset 16
 1647              		.cfi_offset 3, -16
 1648              		.cfi_offset 4, -12
 1649              		.cfi_offset 5, -8
 1650              		.cfi_offset 14, -4
 542:source\asw/swc_clock.c ****     //Local copy of event signal
 543:source\asw/swc_clock.c ****     SC_EVENT_data_t eventSignal_t;
 544:source\asw/swc_clock.c ****     
 545:source\asw/swc_clock.c ****     if(1 == Pin_ButtonLeft_Read())          
 1651              		.loc 1 545 0
 1652 0002 FFF7FEFF 		bl	Pin_ButtonLeft_Read
 1653              	.LVL146:
 1654 0006 0128     		cmp	r0, #1
 1655 0008 02D1     		bne	.L118
 546:source\asw/swc_clock.c ****     {
 547:source\asw/swc_clock.c ****         eventSignal_t.m_ev = EV_KEYLEFT;
 1656              		.loc 1 547 0
ARM GAS  C:\Users\aditi\AppData\Local\Temp\ccxJli9U.s 			page 60


 1657 000a 4FF00104 		mov	r4, #1
 1658              	.LVL147:
 1659 000e 08E0     		b	.L119
 1660              	.L118:
 548:source\asw/swc_clock.c ****     }
 549:source\asw/swc_clock.c ****     else if (1 == Pin_ButtonRight_Read())   
 1661              		.loc 1 549 0
 1662 0010 FFF7FEFF 		bl	Pin_ButtonRight_Read
 1663              	.LVL148:
 1664 0014 0128     		cmp	r0, #1
 1665 0016 04D1     		bne	.L119
 550:source\asw/swc_clock.c ****     {
 551:source\asw/swc_clock.c ****         interruptFlag = 1;
 1666              		.loc 1 551 0
 1667 0018 0122     		movs	r2, #1
 1668 001a 0F4B     		ldr	r3, .L125
 1669 001c 9A70     		strb	r2, [r3, #2]
 552:source\asw/swc_clock.c ****         eventSignal_t.m_ev = EV_KEYRIGHT;
 1670              		.loc 1 552 0
 1671 001e 4FF00204 		mov	r4, #2
 1672              	.L119:
 1673              	.LVL149:
 1674              	.LBB129:
 1675              	.LBB130:
 304:.\source\rte/sc_event.h ****    signal->value  = value;
 1676              		.loc 3 304 0
 1677 0022 0E4B     		ldr	r3, .L125+4
 1678 0024 9A68     		ldr	r2, [r3, #8]
 1679              	.LVL150:
 305:.\source\rte/sc_event.h ****    signal->age    = 0;
 1680              		.loc 3 305 0
 1681 0026 1C70     		strb	r4, [r3]
 306:.\source\rte/sc_event.h ****    signal->status = RTE_SIGNALSTATUS_VALID;
 1682              		.loc 3 306 0
 1683 0028 0021     		movs	r1, #0
 1684 002a 5960     		str	r1, [r3, #4]
 307:.\source\rte/sc_event.h ****    if (TRUE == signal->pSigCfg->resourceActive) ReleaseResource(signal->pSigCfg->resource);
 1685              		.loc 3 307 0
 1686 002c 0221     		movs	r1, #2
 1687 002e 5970     		strb	r1, [r3, #1]
 311:.\source\rte/sc_event.h **** 
 1688              		.loc 3 311 0
 1689 0030 5569     		ldr	r5, [r2, #20]
 1690              	.LVL151:
 313:.\source\rte/sc_event.h ****       for( taskNum=0 ; taskNum < signal->pSigCfg->onUpdateTaskCount ;taskNum++){
 1691              		.loc 3 313 0
 1692 0032 9368     		ldr	r3, [r2, #8]
 1693 0034 73B1     		cbz	r3, .L117
 1694 0036 3DB9     		cbnz	r5, .L123
 1695 0038 38BD     		pop	{r3, r4, r5, pc}
 1696              	.LVL152:
 1697              	.L122:
 1698              	.LBB131:
 1699              		.loc 3 317 0
 1700 003a 9968     		ldr	r1, [r3, #8]
 1701 003c 55F82400 		ldr	r0, [r5, r4, lsl #2]
 1702 0040 FFF7FEFF 		bl	EE_oo_SetEvent
ARM GAS  C:\Users\aditi\AppData\Local\Temp\ccxJli9U.s 			page 61


 1703              	.LVL153:
 1704              	.LBE131:
 314:.\source\rte/sc_event.h **** 		  
 1705              		.loc 3 314 0
 1706 0044 0134     		adds	r4, r4, #1
 1707              	.LVL154:
 1708 0046 00E0     		b	.L121
 1709              	.LVL155:
 1710              	.L123:
 313:.\source\rte/sc_event.h ****       for( taskNum=0 ; taskNum < signal->pSigCfg->onUpdateTaskCount ;taskNum++){
 1711              		.loc 3 313 0
 1712 0048 0024     		movs	r4, #0
 1713              	.LVL156:
 1714              	.L121:
 314:.\source\rte/sc_event.h **** 		  
 1715              		.loc 3 314 0
 1716 004a 044B     		ldr	r3, .L125+4
 1717 004c 9B68     		ldr	r3, [r3, #8]
 1718 004e 1A69     		ldr	r2, [r3, #16]
 1719 0050 9442     		cmp	r4, r2
 1720 0052 F2D3     		bcc	.L122
 1721              	.LVL157:
 1722              	.L117:
 1723 0054 38BD     		pop	{r3, r4, r5, pc}
 1724              	.LVL158:
 1725              	.L126:
 1726 0056 00BF     		.align	2
 1727              	.L125:
 1728 0058 00000000 		.word	.LANCHOR1
 1729 005c 00000000 		.word	SO_EVENT_signal
 1730              	.LBE130:
 1731              	.LBE129:
 1732              		.cfi_endproc
 1733              	.LFE159:
 1734              		.size	ISR2_isr_button, .-ISR2_isr_button
 1735              		.section	.text.isr_button,"ax",%progbits
 1736              		.align	2
 1737              		.global	isr_button
 1738              		.thumb
 1739              		.thumb_func
 1740              		.type	isr_button, %function
 1741              	isr_button:
 1742              	.LFB158:
 540:source\asw/swc_clock.c **** {
 1743              		.loc 1 540 0
 1744              		.cfi_startproc
 1745              		@ Stack Align: May be called with mis-aligned SP.
 1746              		@ args = 0, pretend = 0, frame = 0
 1747              		@ frame_needed = 0, uses_anonymous_args = 0
 1748 0000 6846     		mov	r0, sp
 1749              		.cfi_register 13, 0
 1750 0002 20F00701 		bic	r1, r0, #7
 1751 0006 8D46     		mov	sp, r1
 1752 0008 19B5     		push	{r0, r3, r4, lr}
 1753              		.cfi_def_cfa_offset 16
 1754              		.cfi_offset 13, -16
 1755              		.cfi_offset 3, -12
ARM GAS  C:\Users\aditi\AppData\Local\Temp\ccxJli9U.s 			page 62


 1756              		.cfi_offset 4, -8
 1757              		.cfi_offset 14, -4
 1758              	.LVL159:
 1759              	.LBB156:
 1760              	.LBB157:
 1761              		.file 5 "Generated_Source\\PSoC5/ErikaOS_cortex_mx_ee_cpu.inc"
   1:Generated_Source\PSoC5/ErikaOS_cortex_mx_ee_cpu.inc **** /* ###*B*###
   2:Generated_Source\PSoC5/ErikaOS_cortex_mx_ee_cpu.inc ****  * ERIKA Enterprise - a tiny RTOS for small microcontrollers
   3:Generated_Source\PSoC5/ErikaOS_cortex_mx_ee_cpu.inc ****  *
   4:Generated_Source\PSoC5/ErikaOS_cortex_mx_ee_cpu.inc ****  * Copyright (C) 2002-2011  Evidence Srl
   5:Generated_Source\PSoC5/ErikaOS_cortex_mx_ee_cpu.inc ****  *
   6:Generated_Source\PSoC5/ErikaOS_cortex_mx_ee_cpu.inc ****  * This file is part of ERIKA Enterprise.
   7:Generated_Source\PSoC5/ErikaOS_cortex_mx_ee_cpu.inc ****  *
   8:Generated_Source\PSoC5/ErikaOS_cortex_mx_ee_cpu.inc ****  * ERIKA Enterprise is free software; you can redistribute it
   9:Generated_Source\PSoC5/ErikaOS_cortex_mx_ee_cpu.inc ****  * and/or modify it under the terms of the GNU General Public License
  10:Generated_Source\PSoC5/ErikaOS_cortex_mx_ee_cpu.inc ****  * version 2 as published by the Free Software Foundation, 
  11:Generated_Source\PSoC5/ErikaOS_cortex_mx_ee_cpu.inc ****  * (with a special exception described below).
  12:Generated_Source\PSoC5/ErikaOS_cortex_mx_ee_cpu.inc ****  *
  13:Generated_Source\PSoC5/ErikaOS_cortex_mx_ee_cpu.inc ****  * Linking this code statically or dynamically with other modules is
  14:Generated_Source\PSoC5/ErikaOS_cortex_mx_ee_cpu.inc ****  * making a combined work based on this code.  Thus, the terms and
  15:Generated_Source\PSoC5/ErikaOS_cortex_mx_ee_cpu.inc ****  * conditions of the GNU General Public License cover the whole
  16:Generated_Source\PSoC5/ErikaOS_cortex_mx_ee_cpu.inc ****  * combination.
  17:Generated_Source\PSoC5/ErikaOS_cortex_mx_ee_cpu.inc ****  *
  18:Generated_Source\PSoC5/ErikaOS_cortex_mx_ee_cpu.inc ****  * As a special exception, the copyright holders of this library give you
  19:Generated_Source\PSoC5/ErikaOS_cortex_mx_ee_cpu.inc ****  * permission to link this code with independent modules to produce an
  20:Generated_Source\PSoC5/ErikaOS_cortex_mx_ee_cpu.inc ****  * executable, regardless of the license terms of these independent
  21:Generated_Source\PSoC5/ErikaOS_cortex_mx_ee_cpu.inc ****  * modules, and to copy and distribute the resulting executable under
  22:Generated_Source\PSoC5/ErikaOS_cortex_mx_ee_cpu.inc ****  * terms of your choice, provided that you also meet, for each linked
  23:Generated_Source\PSoC5/ErikaOS_cortex_mx_ee_cpu.inc ****  * independent module, the terms and conditions of the license of that
  24:Generated_Source\PSoC5/ErikaOS_cortex_mx_ee_cpu.inc ****  * module.  An independent module is a module which is not derived from
  25:Generated_Source\PSoC5/ErikaOS_cortex_mx_ee_cpu.inc ****  * or based on this library.  If you modify this code, you may extend
  26:Generated_Source\PSoC5/ErikaOS_cortex_mx_ee_cpu.inc ****  * this exception to your version of the code, but you are not
  27:Generated_Source\PSoC5/ErikaOS_cortex_mx_ee_cpu.inc ****  * obligated to do so.  If you do not wish to do so, delete this
  28:Generated_Source\PSoC5/ErikaOS_cortex_mx_ee_cpu.inc ****  * exception statement from your version.
  29:Generated_Source\PSoC5/ErikaOS_cortex_mx_ee_cpu.inc ****  *
  30:Generated_Source\PSoC5/ErikaOS_cortex_mx_ee_cpu.inc ****  * ERIKA Enterprise is distributed in the hope that it will be
  31:Generated_Source\PSoC5/ErikaOS_cortex_mx_ee_cpu.inc ****  * useful, but WITHOUT ANY WARRANTY; without even the implied warranty
  32:Generated_Source\PSoC5/ErikaOS_cortex_mx_ee_cpu.inc ****  * of MERCHANTABILITY or FITNESS FOR A PARTICULAR PURPOSE.  See the
  33:Generated_Source\PSoC5/ErikaOS_cortex_mx_ee_cpu.inc ****  * GNU General Public License version 2 for more details.
  34:Generated_Source\PSoC5/ErikaOS_cortex_mx_ee_cpu.inc ****  *
  35:Generated_Source\PSoC5/ErikaOS_cortex_mx_ee_cpu.inc ****  * You should have received a copy of the GNU General Public License
  36:Generated_Source\PSoC5/ErikaOS_cortex_mx_ee_cpu.inc ****  * version 2 along with ERIKA Enterprise; if not, write to the
  37:Generated_Source\PSoC5/ErikaOS_cortex_mx_ee_cpu.inc ****  * Free Software Foundation, Inc., 51 Franklin Street, Fifth Floor,
  38:Generated_Source\PSoC5/ErikaOS_cortex_mx_ee_cpu.inc ****  * Boston, MA 02110-1301 USA.
  39:Generated_Source\PSoC5/ErikaOS_cortex_mx_ee_cpu.inc ****  * ###*E*### */
  40:Generated_Source\PSoC5/ErikaOS_cortex_mx_ee_cpu.inc **** 
  41:Generated_Source\PSoC5/ErikaOS_cortex_mx_ee_cpu.inc **** /** 
  42:Generated_Source\PSoC5/ErikaOS_cortex_mx_ee_cpu.inc **** 	@file ee_cpu.h
  43:Generated_Source\PSoC5/ErikaOS_cortex_mx_ee_cpu.inc **** 	@brief CPU-dependent part of HAL. Derived from pkg/cpu/pic30/inc/ee_cpu.h
  44:Generated_Source\PSoC5/ErikaOS_cortex_mx_ee_cpu.inc **** 	@author Gianluca Franchino
  45:Generated_Source\PSoC5/ErikaOS_cortex_mx_ee_cpu.inc **** 	@author Giuseppe Serano
  46:Generated_Source\PSoC5/ErikaOS_cortex_mx_ee_cpu.inc **** 	@date 2011
  47:Generated_Source\PSoC5/ErikaOS_cortex_mx_ee_cpu.inc **** */ 
  48:Generated_Source\PSoC5/ErikaOS_cortex_mx_ee_cpu.inc ****     
  49:Generated_Source\PSoC5/ErikaOS_cortex_mx_ee_cpu.inc **** /*
  50:Generated_Source\PSoC5/ErikaOS_cortex_mx_ee_cpu.inc ****  * PSoC Port and API Generation
  51:Generated_Source\PSoC5/ErikaOS_cortex_mx_ee_cpu.inc ****  * Carlos Fernando Meier Martinez
ARM GAS  C:\Users\aditi\AppData\Local\Temp\ccxJli9U.s 			page 63


  52:Generated_Source\PSoC5/ErikaOS_cortex_mx_ee_cpu.inc ****  * Hochschule Darmstadt, Germany. 2017.
  53:Generated_Source\PSoC5/ErikaOS_cortex_mx_ee_cpu.inc ****  */
  54:Generated_Source\PSoC5/ErikaOS_cortex_mx_ee_cpu.inc **** 
  55:Generated_Source\PSoC5/ErikaOS_cortex_mx_ee_cpu.inc **** #ifndef __INCLUDE_CORTEX_MX_EE_CPU_H__
  56:Generated_Source\PSoC5/ErikaOS_cortex_mx_ee_cpu.inc **** #define __INCLUDE_CORTEX_MX_EE_CPU_H__
  57:Generated_Source\PSoC5/ErikaOS_cortex_mx_ee_cpu.inc **** 
  58:Generated_Source\PSoC5/ErikaOS_cortex_mx_ee_cpu.inc **** #include "ErikaOS_eecfg.inc"
  59:Generated_Source\PSoC5/ErikaOS_cortex_mx_ee_cpu.inc **** 
  60:Generated_Source\PSoC5/ErikaOS_cortex_mx_ee_cpu.inc **** 
  61:Generated_Source\PSoC5/ErikaOS_cortex_mx_ee_cpu.inc **** #ifdef __GNU__
  62:Generated_Source\PSoC5/ErikaOS_cortex_mx_ee_cpu.inc **** #include "ErikaOS_common_ee_compiler_gcc.inc"
  63:Generated_Source\PSoC5/ErikaOS_cortex_mx_ee_cpu.inc **** #endif
  64:Generated_Source\PSoC5/ErikaOS_cortex_mx_ee_cpu.inc **** 
  65:Generated_Source\PSoC5/ErikaOS_cortex_mx_ee_cpu.inc **** /* Initial stack offset (in words): Used in multistack. */
  66:Generated_Source\PSoC5/ErikaOS_cortex_mx_ee_cpu.inc **** #ifndef CORTEX_MX_INIT_TOS_OFFSET
  67:Generated_Source\PSoC5/ErikaOS_cortex_mx_ee_cpu.inc **** #define CORTEX_MX_INIT_TOS_OFFSET 10
  68:Generated_Source\PSoC5/ErikaOS_cortex_mx_ee_cpu.inc **** #endif
  69:Generated_Source\PSoC5/ErikaOS_cortex_mx_ee_cpu.inc **** 
  70:Generated_Source\PSoC5/ErikaOS_cortex_mx_ee_cpu.inc **** /*************************************************************************
  71:Generated_Source\PSoC5/ErikaOS_cortex_mx_ee_cpu.inc ****  HAL Types and structures
  72:Generated_Source\PSoC5/ErikaOS_cortex_mx_ee_cpu.inc ****  *************************************************************************/
  73:Generated_Source\PSoC5/ErikaOS_cortex_mx_ee_cpu.inc **** 
  74:Generated_Source\PSoC5/ErikaOS_cortex_mx_ee_cpu.inc **** /* Primitive data types */
  75:Generated_Source\PSoC5/ErikaOS_cortex_mx_ee_cpu.inc **** #include "ErikaOS_common_ee_types.inc"
  76:Generated_Source\PSoC5/ErikaOS_cortex_mx_ee_cpu.inc **** 
  77:Generated_Source\PSoC5/ErikaOS_cortex_mx_ee_cpu.inc **** typedef EE_UINT32 EE_UREG;
  78:Generated_Source\PSoC5/ErikaOS_cortex_mx_ee_cpu.inc **** typedef EE_INT32  EE_SREG;
  79:Generated_Source\PSoC5/ErikaOS_cortex_mx_ee_cpu.inc **** typedef EE_UINT32 EE_FREG;
  80:Generated_Source\PSoC5/ErikaOS_cortex_mx_ee_cpu.inc **** #define EE_UREG_SIZE 4
  81:Generated_Source\PSoC5/ErikaOS_cortex_mx_ee_cpu.inc **** 
  82:Generated_Source\PSoC5/ErikaOS_cortex_mx_ee_cpu.inc **** /* boolean type */
  83:Generated_Source\PSoC5/ErikaOS_cortex_mx_ee_cpu.inc **** #ifndef EE_TYPEBOOL
  84:Generated_Source\PSoC5/ErikaOS_cortex_mx_ee_cpu.inc **** typedef EE_UREG EE_TYPEBOOL;
  85:Generated_Source\PSoC5/ErikaOS_cortex_mx_ee_cpu.inc **** #endif
  86:Generated_Source\PSoC5/ErikaOS_cortex_mx_ee_cpu.inc **** 
  87:Generated_Source\PSoC5/ErikaOS_cortex_mx_ee_cpu.inc **** /* boolean true define */
  88:Generated_Source\PSoC5/ErikaOS_cortex_mx_ee_cpu.inc **** #ifndef EE_TRUE
  89:Generated_Source\PSoC5/ErikaOS_cortex_mx_ee_cpu.inc **** #define EE_TRUE ((EE_TYPEBOOL)1U)
  90:Generated_Source\PSoC5/ErikaOS_cortex_mx_ee_cpu.inc **** #endif
  91:Generated_Source\PSoC5/ErikaOS_cortex_mx_ee_cpu.inc **** 
  92:Generated_Source\PSoC5/ErikaOS_cortex_mx_ee_cpu.inc **** /* boolean false define */
  93:Generated_Source\PSoC5/ErikaOS_cortex_mx_ee_cpu.inc **** #ifndef EE_FALSE
  94:Generated_Source\PSoC5/ErikaOS_cortex_mx_ee_cpu.inc **** #define EE_FALSE ((EE_TYPEBOOL)0U)
  95:Generated_Source\PSoC5/ErikaOS_cortex_mx_ee_cpu.inc **** #endif
  96:Generated_Source\PSoC5/ErikaOS_cortex_mx_ee_cpu.inc **** 
  97:Generated_Source\PSoC5/ErikaOS_cortex_mx_ee_cpu.inc **** #define	EE_HWREG_PTR		volatile EE_UREG *
  98:Generated_Source\PSoC5/ErikaOS_cortex_mx_ee_cpu.inc **** #define	EE_HWREG_ADDR(x)	((EE_HWREG_PTR)(x))
  99:Generated_Source\PSoC5/ErikaOS_cortex_mx_ee_cpu.inc **** #define	EE_HWREG(x)		(*EE_HWREG_ADDR(x))
 100:Generated_Source\PSoC5/ErikaOS_cortex_mx_ee_cpu.inc **** 
 101:Generated_Source\PSoC5/ErikaOS_cortex_mx_ee_cpu.inc **** #ifdef __GNU__
 102:Generated_Source\PSoC5/ErikaOS_cortex_mx_ee_cpu.inc **** 
 103:Generated_Source\PSoC5/ErikaOS_cortex_mx_ee_cpu.inc **** /* Get current SP */
 104:Generated_Source\PSoC5/ErikaOS_cortex_mx_ee_cpu.inc **** __INLINE__ EE_UINT32  __current_sp(void)
 105:Generated_Source\PSoC5/ErikaOS_cortex_mx_ee_cpu.inc **** {
 106:Generated_Source\PSoC5/ErikaOS_cortex_mx_ee_cpu.inc **** EE_UINT32 temp;
 107:Generated_Source\PSoC5/ErikaOS_cortex_mx_ee_cpu.inc **** __ASM ("mov %0, sp" : "=r" (temp) : );
 108:Generated_Source\PSoC5/ErikaOS_cortex_mx_ee_cpu.inc **** return temp;
ARM GAS  C:\Users\aditi\AppData\Local\Temp\ccxJli9U.s 			page 64


 109:Generated_Source\PSoC5/ErikaOS_cortex_mx_ee_cpu.inc **** }
 110:Generated_Source\PSoC5/ErikaOS_cortex_mx_ee_cpu.inc **** 
 111:Generated_Source\PSoC5/ErikaOS_cortex_mx_ee_cpu.inc **** /* Set a breakpoint */
 112:Generated_Source\PSoC5/ErikaOS_cortex_mx_ee_cpu.inc **** #define __breakpoint(value)	__ASM ("bkpt "#value)
 113:Generated_Source\PSoC5/ErikaOS_cortex_mx_ee_cpu.inc **** 
 114:Generated_Source\PSoC5/ErikaOS_cortex_mx_ee_cpu.inc **** #endif
 115:Generated_Source\PSoC5/ErikaOS_cortex_mx_ee_cpu.inc **** 
 116:Generated_Source\PSoC5/ErikaOS_cortex_mx_ee_cpu.inc **** /* ISR Priority representation type */
 117:Generated_Source\PSoC5/ErikaOS_cortex_mx_ee_cpu.inc **** typedef EE_UREG EE_TYPEISR2PRIO;
 118:Generated_Source\PSoC5/ErikaOS_cortex_mx_ee_cpu.inc **** 
 119:Generated_Source\PSoC5/ErikaOS_cortex_mx_ee_cpu.inc **** /* Thread IDs */
 120:Generated_Source\PSoC5/ErikaOS_cortex_mx_ee_cpu.inc **** typedef EE_INT32 EE_TID;
 121:Generated_Source\PSoC5/ErikaOS_cortex_mx_ee_cpu.inc **** 
 122:Generated_Source\PSoC5/ErikaOS_cortex_mx_ee_cpu.inc **** /* Thread IDs - unsigned version*/
 123:Generated_Source\PSoC5/ErikaOS_cortex_mx_ee_cpu.inc **** typedef EE_UINT32 EE_UTID;
 124:Generated_Source\PSoC5/ErikaOS_cortex_mx_ee_cpu.inc **** 
 125:Generated_Source\PSoC5/ErikaOS_cortex_mx_ee_cpu.inc **** /* Used by the common layer to decide whether to start a new thread */
 126:Generated_Source\PSoC5/ErikaOS_cortex_mx_ee_cpu.inc **** #define TID_IS_STACKED_MARK 0x80000000
 127:Generated_Source\PSoC5/ErikaOS_cortex_mx_ee_cpu.inc **** 
 128:Generated_Source\PSoC5/ErikaOS_cortex_mx_ee_cpu.inc **** /* EE_TYPEIRQ is currently unused */
 129:Generated_Source\PSoC5/ErikaOS_cortex_mx_ee_cpu.inc **** 
 130:Generated_Source\PSoC5/ErikaOS_cortex_mx_ee_cpu.inc **** /* XXX: define EE_TIME? */
 131:Generated_Source\PSoC5/ErikaOS_cortex_mx_ee_cpu.inc **** 
 132:Generated_Source\PSoC5/ErikaOS_cortex_mx_ee_cpu.inc **** /* Use the "standard" implementation */
 133:Generated_Source\PSoC5/ErikaOS_cortex_mx_ee_cpu.inc **** #include "ErikaOS_common_ee_hal_structs.inc"
 134:Generated_Source\PSoC5/ErikaOS_cortex_mx_ee_cpu.inc **** 
 135:Generated_Source\PSoC5/ErikaOS_cortex_mx_ee_cpu.inc **** /******************************************************************************
 136:Generated_Source\PSoC5/ErikaOS_cortex_mx_ee_cpu.inc ****  Application dependent data types
 137:Generated_Source\PSoC5/ErikaOS_cortex_mx_ee_cpu.inc ****  ******************************************************************************/
 138:Generated_Source\PSoC5/ErikaOS_cortex_mx_ee_cpu.inc **** 
 139:Generated_Source\PSoC5/ErikaOS_cortex_mx_ee_cpu.inc **** #ifdef	__HAS_TYPES_H__
 140:Generated_Source\PSoC5/ErikaOS_cortex_mx_ee_cpu.inc **** #include	"types.h"
 141:Generated_Source\PSoC5/ErikaOS_cortex_mx_ee_cpu.inc **** #endif
 142:Generated_Source\PSoC5/ErikaOS_cortex_mx_ee_cpu.inc **** 
 143:Generated_Source\PSoC5/ErikaOS_cortex_mx_ee_cpu.inc **** /******************************************************************************
 144:Generated_Source\PSoC5/ErikaOS_cortex_mx_ee_cpu.inc ****  CPU Peripherals
 145:Generated_Source\PSoC5/ErikaOS_cortex_mx_ee_cpu.inc ****  ******************************************************************************/
 146:Generated_Source\PSoC5/ErikaOS_cortex_mx_ee_cpu.inc **** 
 147:Generated_Source\PSoC5/ErikaOS_cortex_mx_ee_cpu.inc **** #ifdef __CORTEX_MX__
 148:Generated_Source\PSoC5/ErikaOS_cortex_mx_ee_cpu.inc **** #include "ErikaOS_cortex_mx_ee_nvic.inc"
 149:Generated_Source\PSoC5/ErikaOS_cortex_mx_ee_cpu.inc **** #include "ErikaOS_cortex_mx_ee_systick.inc"
 150:Generated_Source\PSoC5/ErikaOS_cortex_mx_ee_cpu.inc **** #endif
 151:Generated_Source\PSoC5/ErikaOS_cortex_mx_ee_cpu.inc **** 
 152:Generated_Source\PSoC5/ErikaOS_cortex_mx_ee_cpu.inc **** /******************************************************************************
 153:Generated_Source\PSoC5/ErikaOS_cortex_mx_ee_cpu.inc ****  HAL Variables
 154:Generated_Source\PSoC5/ErikaOS_cortex_mx_ee_cpu.inc ****  ******************************************************************************/
 155:Generated_Source\PSoC5/ErikaOS_cortex_mx_ee_cpu.inc **** 
 156:Generated_Source\PSoC5/ErikaOS_cortex_mx_ee_cpu.inc **** #ifdef __MULTI__
 157:Generated_Source\PSoC5/ErikaOS_cortex_mx_ee_cpu.inc **** 
 158:Generated_Source\PSoC5/ErikaOS_cortex_mx_ee_cpu.inc **** /* Top-of-stack of each private stack */
 159:Generated_Source\PSoC5/ErikaOS_cortex_mx_ee_cpu.inc **** extern struct EE_TOS EE_cortex_mx_system_tos[];
 160:Generated_Source\PSoC5/ErikaOS_cortex_mx_ee_cpu.inc **** //#define	EE_std_system_tos EE_cortex_mx_system_tos
 161:Generated_Source\PSoC5/ErikaOS_cortex_mx_ee_cpu.inc **** 
 162:Generated_Source\PSoC5/ErikaOS_cortex_mx_ee_cpu.inc **** /* Index of the current stack */
 163:Generated_Source\PSoC5/ErikaOS_cortex_mx_ee_cpu.inc **** extern EE_UREG EE_cortex_mx_active_tos;
 164:Generated_Source\PSoC5/ErikaOS_cortex_mx_ee_cpu.inc **** #define	EE_hal_active_tos EE_cortex_mx_active_tos
 165:Generated_Source\PSoC5/ErikaOS_cortex_mx_ee_cpu.inc **** 
ARM GAS  C:\Users\aditi\AppData\Local\Temp\ccxJli9U.s 			page 65


 166:Generated_Source\PSoC5/ErikaOS_cortex_mx_ee_cpu.inc **** /*extern	EE_UREG EE_pic30_thread_tos[];
 167:Generated_Source\PSoC5/ErikaOS_cortex_mx_ee_cpu.inc **** #define	EE_std_thread_tos EE_pic30_thread_tos */
 168:Generated_Source\PSoC5/ErikaOS_cortex_mx_ee_cpu.inc **** #endif /* __MULTI__ */
 169:Generated_Source\PSoC5/ErikaOS_cortex_mx_ee_cpu.inc **** 
 170:Generated_Source\PSoC5/ErikaOS_cortex_mx_ee_cpu.inc **** /*********************************************************************
 171:Generated_Source\PSoC5/ErikaOS_cortex_mx_ee_cpu.inc ****  Cortex M0 interrupt disabling/enabling
 172:Generated_Source\PSoC5/ErikaOS_cortex_mx_ee_cpu.inc ****  *********************************************************************/
 173:Generated_Source\PSoC5/ErikaOS_cortex_mx_ee_cpu.inc **** 
 174:Generated_Source\PSoC5/ErikaOS_cortex_mx_ee_cpu.inc **** /* Used to check the value returned by EE_cortex_mx_disableIRQ */
 175:Generated_Source\PSoC5/ErikaOS_cortex_mx_ee_cpu.inc **** #define EE_cortex_mx_are_IRQs_enabled(ie) ((ie) ^ 1)
 176:Generated_Source\PSoC5/ErikaOS_cortex_mx_ee_cpu.inc **** 
 177:Generated_Source\PSoC5/ErikaOS_cortex_mx_ee_cpu.inc **** /**
 178:Generated_Source\PSoC5/ErikaOS_cortex_mx_ee_cpu.inc ****  * Enable interrupts
 179:Generated_Source\PSoC5/ErikaOS_cortex_mx_ee_cpu.inc ****  */
 180:Generated_Source\PSoC5/ErikaOS_cortex_mx_ee_cpu.inc **** __INLINE__ void  EE_cortex_mx_enableIRQ(void)
 181:Generated_Source\PSoC5/ErikaOS_cortex_mx_ee_cpu.inc **** {
 182:Generated_Source\PSoC5/ErikaOS_cortex_mx_ee_cpu.inc **** #ifdef __IAR__
 183:Generated_Source\PSoC5/ErikaOS_cortex_mx_ee_cpu.inc **** 	__ASM ("cpsie i");
 184:Generated_Source\PSoC5/ErikaOS_cortex_mx_ee_cpu.inc **** #else	/* __IAR__ */
 185:Generated_Source\PSoC5/ErikaOS_cortex_mx_ee_cpu.inc **** #ifdef __CCS__
 186:Generated_Source\PSoC5/ErikaOS_cortex_mx_ee_cpu.inc **** 	__ASM ("    cpsie    i\n");
 187:Generated_Source\PSoC5/ErikaOS_cortex_mx_ee_cpu.inc **** #else	/* __CCS__ */
 188:Generated_Source\PSoC5/ErikaOS_cortex_mx_ee_cpu.inc **** #ifdef __KEIL__
 189:Generated_Source\PSoC5/ErikaOS_cortex_mx_ee_cpu.inc **** 	__enable_irq();
 190:Generated_Source\PSoC5/ErikaOS_cortex_mx_ee_cpu.inc **** #else	/* __KEIL__ */
 191:Generated_Source\PSoC5/ErikaOS_cortex_mx_ee_cpu.inc **** 	__ASM volatile("cpsie i");
 192:Generated_Source\PSoC5/ErikaOS_cortex_mx_ee_cpu.inc **** #endif	/* !__KEIL__ */
 193:Generated_Source\PSoC5/ErikaOS_cortex_mx_ee_cpu.inc **** #endif	/* !__CCS__ */
 194:Generated_Source\PSoC5/ErikaOS_cortex_mx_ee_cpu.inc **** #endif	/* !__IAR__ */
 195:Generated_Source\PSoC5/ErikaOS_cortex_mx_ee_cpu.inc **** }
 196:Generated_Source\PSoC5/ErikaOS_cortex_mx_ee_cpu.inc **** 
 197:Generated_Source\PSoC5/ErikaOS_cortex_mx_ee_cpu.inc **** /**
 198:Generated_Source\PSoC5/ErikaOS_cortex_mx_ee_cpu.inc ****  * Disable interrupts
 199:Generated_Source\PSoC5/ErikaOS_cortex_mx_ee_cpu.inc ****  */
 200:Generated_Source\PSoC5/ErikaOS_cortex_mx_ee_cpu.inc **** __INLINE__ void  EE_cortex_mx_disableIRQ(void)
 201:Generated_Source\PSoC5/ErikaOS_cortex_mx_ee_cpu.inc **** {
 202:Generated_Source\PSoC5/ErikaOS_cortex_mx_ee_cpu.inc **** #ifdef __IAR__
 203:Generated_Source\PSoC5/ErikaOS_cortex_mx_ee_cpu.inc **** 	__ASM ("cpsid i");
 204:Generated_Source\PSoC5/ErikaOS_cortex_mx_ee_cpu.inc **** #else	/* __IAR__ */
 205:Generated_Source\PSoC5/ErikaOS_cortex_mx_ee_cpu.inc **** #ifdef __CCS__
 206:Generated_Source\PSoC5/ErikaOS_cortex_mx_ee_cpu.inc **** 	__ASM ("    cpsid    i\n");
 207:Generated_Source\PSoC5/ErikaOS_cortex_mx_ee_cpu.inc **** #else	/* __CCS__ */
 208:Generated_Source\PSoC5/ErikaOS_cortex_mx_ee_cpu.inc **** #ifdef __KEIL__
 209:Generated_Source\PSoC5/ErikaOS_cortex_mx_ee_cpu.inc **** 	__disable_irq();
 210:Generated_Source\PSoC5/ErikaOS_cortex_mx_ee_cpu.inc **** #else	/* __KEIL__ */
 211:Generated_Source\PSoC5/ErikaOS_cortex_mx_ee_cpu.inc **** 	__ASM volatile("cpsid i");
 1762              		.loc 5 211 0
 1763              		.syntax unified
 1764              	@ 211 "Generated_Source\PSoC5/ErikaOS_cortex_mx_ee_cpu.inc" 1
 1765 000a 72B6     		cpsid i
 1766              	@ 0 "" 2
 1767              		.thumb
 1768              		.syntax unified
 1769              	.LBE157:
 1770              	.LBE156:
 1771              	.LBB158:
 1772              	.LBB159:
ARM GAS  C:\Users\aditi\AppData\Local\Temp\ccxJli9U.s 			page 66


 212:Generated_Source\PSoC5/ErikaOS_cortex_mx_ee_cpu.inc **** #endif	/* !__KEIL__ */
 213:Generated_Source\PSoC5/ErikaOS_cortex_mx_ee_cpu.inc **** #endif	/* !__CCS__ */
 214:Generated_Source\PSoC5/ErikaOS_cortex_mx_ee_cpu.inc **** #endif	/* !__IAR__ */
 215:Generated_Source\PSoC5/ErikaOS_cortex_mx_ee_cpu.inc **** }
 216:Generated_Source\PSoC5/ErikaOS_cortex_mx_ee_cpu.inc **** 
 217:Generated_Source\PSoC5/ErikaOS_cortex_mx_ee_cpu.inc **** /**
 218:Generated_Source\PSoC5/ErikaOS_cortex_mx_ee_cpu.inc ****  * Resume interrupts
 219:Generated_Source\PSoC5/ErikaOS_cortex_mx_ee_cpu.inc ****  */
 220:Generated_Source\PSoC5/ErikaOS_cortex_mx_ee_cpu.inc **** __INLINE__ void  EE_cortex_mx_resumeIRQ(EE_FREG f)
 221:Generated_Source\PSoC5/ErikaOS_cortex_mx_ee_cpu.inc **** {
 222:Generated_Source\PSoC5/ErikaOS_cortex_mx_ee_cpu.inc **** #ifdef __IAR__
 223:Generated_Source\PSoC5/ErikaOS_cortex_mx_ee_cpu.inc **** 	__set_PRIMASK(f);
 224:Generated_Source\PSoC5/ErikaOS_cortex_mx_ee_cpu.inc **** #else	/* __IAR__ */
 225:Generated_Source\PSoC5/ErikaOS_cortex_mx_ee_cpu.inc **** #ifdef __CCS__
 226:Generated_Source\PSoC5/ErikaOS_cortex_mx_ee_cpu.inc **** 	__ASM ("    msr    primask, r0\n");
 227:Generated_Source\PSoC5/ErikaOS_cortex_mx_ee_cpu.inc **** #else	/* __CCS__ */
 228:Generated_Source\PSoC5/ErikaOS_cortex_mx_ee_cpu.inc **** #ifdef __KEIL__
 229:Generated_Source\PSoC5/ErikaOS_cortex_mx_ee_cpu.inc **** 	register EE_FREG PRIMASK __ASM("primask");
 230:Generated_Source\PSoC5/ErikaOS_cortex_mx_ee_cpu.inc **** 	PRIMASK = f;
 231:Generated_Source\PSoC5/ErikaOS_cortex_mx_ee_cpu.inc **** #else	/* __KEIL__ */
 232:Generated_Source\PSoC5/ErikaOS_cortex_mx_ee_cpu.inc **** 	__ASM volatile("msr primask, %0" :: "r" (f));
 233:Generated_Source\PSoC5/ErikaOS_cortex_mx_ee_cpu.inc **** #endif	/* !__KEIL__ */
 234:Generated_Source\PSoC5/ErikaOS_cortex_mx_ee_cpu.inc **** #endif	/* !__CCS__ */
 235:Generated_Source\PSoC5/ErikaOS_cortex_mx_ee_cpu.inc **** #endif	/* !__IAR__ */
 236:Generated_Source\PSoC5/ErikaOS_cortex_mx_ee_cpu.inc **** }
 237:Generated_Source\PSoC5/ErikaOS_cortex_mx_ee_cpu.inc **** 
 238:Generated_Source\PSoC5/ErikaOS_cortex_mx_ee_cpu.inc **** /**
 239:Generated_Source\PSoC5/ErikaOS_cortex_mx_ee_cpu.inc ****  * Suspend interrupts
 240:Generated_Source\PSoC5/ErikaOS_cortex_mx_ee_cpu.inc ****  */
 241:Generated_Source\PSoC5/ErikaOS_cortex_mx_ee_cpu.inc **** __INLINE__ EE_FREG  EE_cortex_mx_suspendIRQ(void)
 242:Generated_Source\PSoC5/ErikaOS_cortex_mx_ee_cpu.inc **** {
 243:Generated_Source\PSoC5/ErikaOS_cortex_mx_ee_cpu.inc **** #ifndef __CCS__
 244:Generated_Source\PSoC5/ErikaOS_cortex_mx_ee_cpu.inc **** 	EE_FREG istat;
 245:Generated_Source\PSoC5/ErikaOS_cortex_mx_ee_cpu.inc **** #endif
 246:Generated_Source\PSoC5/ErikaOS_cortex_mx_ee_cpu.inc **** #ifdef __IAR__
 247:Generated_Source\PSoC5/ErikaOS_cortex_mx_ee_cpu.inc **** 	 istat = __get_PRIMASK();
 248:Generated_Source\PSoC5/ErikaOS_cortex_mx_ee_cpu.inc **** 	__ASM ("cpsid i");
 249:Generated_Source\PSoC5/ErikaOS_cortex_mx_ee_cpu.inc **** #else	/* __IAR__ */
 250:Generated_Source\PSoC5/ErikaOS_cortex_mx_ee_cpu.inc **** #ifdef __CCS__
 251:Generated_Source\PSoC5/ErikaOS_cortex_mx_ee_cpu.inc **** 	__ASM ("    mrs     r0, primask\n"
 252:Generated_Source\PSoC5/ErikaOS_cortex_mx_ee_cpu.inc **** 	       "    cpsid   i\n"
 253:Generated_Source\PSoC5/ErikaOS_cortex_mx_ee_cpu.inc **** 	       "    bx      lr\n");
 254:Generated_Source\PSoC5/ErikaOS_cortex_mx_ee_cpu.inc **** #else	/* __CCS__ */
 255:Generated_Source\PSoC5/ErikaOS_cortex_mx_ee_cpu.inc **** #ifdef __KEIL__
 256:Generated_Source\PSoC5/ErikaOS_cortex_mx_ee_cpu.inc **** 	register EE_FREG PRIMASK __ASM("primask");
 257:Generated_Source\PSoC5/ErikaOS_cortex_mx_ee_cpu.inc **** 	istat = PRIMASK;
 258:Generated_Source\PSoC5/ErikaOS_cortex_mx_ee_cpu.inc **** 	__disable_irq();
 259:Generated_Source\PSoC5/ErikaOS_cortex_mx_ee_cpu.inc **** #else	/* __KEIL__ */
 260:Generated_Source\PSoC5/ErikaOS_cortex_mx_ee_cpu.inc **** 	__ASM volatile ("mrs %0, primask" : "=r" (istat) );
 261:Generated_Source\PSoC5/ErikaOS_cortex_mx_ee_cpu.inc **** 	__ASM volatile ("cpsid i");
 262:Generated_Source\PSoC5/ErikaOS_cortex_mx_ee_cpu.inc **** #endif	/* !__KEIL__ */
 263:Generated_Source\PSoC5/ErikaOS_cortex_mx_ee_cpu.inc **** #endif	/* !__CCS__ */
 264:Generated_Source\PSoC5/ErikaOS_cortex_mx_ee_cpu.inc **** #endif	/* !__IAR__ */
 265:Generated_Source\PSoC5/ErikaOS_cortex_mx_ee_cpu.inc **** #ifdef __CCS__
 266:Generated_Source\PSoC5/ErikaOS_cortex_mx_ee_cpu.inc **** 	return 0;
 267:Generated_Source\PSoC5/ErikaOS_cortex_mx_ee_cpu.inc **** #else
 268:Generated_Source\PSoC5/ErikaOS_cortex_mx_ee_cpu.inc **** 	return istat;
ARM GAS  C:\Users\aditi\AppData\Local\Temp\ccxJli9U.s 			page 67


 269:Generated_Source\PSoC5/ErikaOS_cortex_mx_ee_cpu.inc **** #endif
 270:Generated_Source\PSoC5/ErikaOS_cortex_mx_ee_cpu.inc **** }
 271:Generated_Source\PSoC5/ErikaOS_cortex_mx_ee_cpu.inc **** 
 272:Generated_Source\PSoC5/ErikaOS_cortex_mx_ee_cpu.inc **** /**
 273:Generated_Source\PSoC5/ErikaOS_cortex_mx_ee_cpu.inc ****  * Return true (not 0) if IRQs are enabled, 0 (false) if IRQ are disabled.
 274:Generated_Source\PSoC5/ErikaOS_cortex_mx_ee_cpu.inc ****  */
 275:Generated_Source\PSoC5/ErikaOS_cortex_mx_ee_cpu.inc **** __INLINE__ EE_UINT32  EE_cortex_mx_get_IRQ_enabled(void)
 276:Generated_Source\PSoC5/ErikaOS_cortex_mx_ee_cpu.inc **** {
 277:Generated_Source\PSoC5/ErikaOS_cortex_mx_ee_cpu.inc **** #ifndef __CCS__
 278:Generated_Source\PSoC5/ErikaOS_cortex_mx_ee_cpu.inc **** 	EE_UREG ie;
 279:Generated_Source\PSoC5/ErikaOS_cortex_mx_ee_cpu.inc **** #endif
 280:Generated_Source\PSoC5/ErikaOS_cortex_mx_ee_cpu.inc **** #ifdef __IAR__
 281:Generated_Source\PSoC5/ErikaOS_cortex_mx_ee_cpu.inc **** 	ie = __get_PRIMASK();
 282:Generated_Source\PSoC5/ErikaOS_cortex_mx_ee_cpu.inc **** #else	/* __IAR__ */
 283:Generated_Source\PSoC5/ErikaOS_cortex_mx_ee_cpu.inc **** #ifdef __CCS__
 284:Generated_Source\PSoC5/ErikaOS_cortex_mx_ee_cpu.inc **** 	__ASM ("    MRS     r0, PRIMASK\n"
 285:Generated_Source\PSoC5/ErikaOS_cortex_mx_ee_cpu.inc **** 	       "    EOR     r0, #1\n"
 286:Generated_Source\PSoC5/ErikaOS_cortex_mx_ee_cpu.inc **** 	       "    bx      lr\n");
 287:Generated_Source\PSoC5/ErikaOS_cortex_mx_ee_cpu.inc **** #else	/* __CCS__ */
 288:Generated_Source\PSoC5/ErikaOS_cortex_mx_ee_cpu.inc **** #ifdef __KEIL__
 289:Generated_Source\PSoC5/ErikaOS_cortex_mx_ee_cpu.inc **** 	register EE_FREG PRIMASK __ASM("primask");
 290:Generated_Source\PSoC5/ErikaOS_cortex_mx_ee_cpu.inc **** 	ie = PRIMASK;
 291:Generated_Source\PSoC5/ErikaOS_cortex_mx_ee_cpu.inc **** #else	/* __KEIL__ */
 292:Generated_Source\PSoC5/ErikaOS_cortex_mx_ee_cpu.inc **** 	__ASM volatile ("MRS %0, primask" : "=r" (ie) );
 293:Generated_Source\PSoC5/ErikaOS_cortex_mx_ee_cpu.inc **** #endif	/* !__KEIL__ */
 294:Generated_Source\PSoC5/ErikaOS_cortex_mx_ee_cpu.inc **** #endif	/* !__CCS__ */
 295:Generated_Source\PSoC5/ErikaOS_cortex_mx_ee_cpu.inc **** #endif	/* !__IAR__ */
 296:Generated_Source\PSoC5/ErikaOS_cortex_mx_ee_cpu.inc **** #ifdef __CCS__
 297:Generated_Source\PSoC5/ErikaOS_cortex_mx_ee_cpu.inc **** 	return 0;
 298:Generated_Source\PSoC5/ErikaOS_cortex_mx_ee_cpu.inc **** #else
 299:Generated_Source\PSoC5/ErikaOS_cortex_mx_ee_cpu.inc **** 	return EE_cortex_mx_are_IRQs_enabled(ie);
 300:Generated_Source\PSoC5/ErikaOS_cortex_mx_ee_cpu.inc **** #endif
 301:Generated_Source\PSoC5/ErikaOS_cortex_mx_ee_cpu.inc **** }
 302:Generated_Source\PSoC5/ErikaOS_cortex_mx_ee_cpu.inc **** 
 303:Generated_Source\PSoC5/ErikaOS_cortex_mx_ee_cpu.inc **** __INLINE__ EE_TYPEISR2PRIO  EE_cortex_mx_get_int_prio(void)
 304:Generated_Source\PSoC5/ErikaOS_cortex_mx_ee_cpu.inc **** {
 305:Generated_Source\PSoC5/ErikaOS_cortex_mx_ee_cpu.inc **** #ifdef __CORTEX_M4__
 306:Generated_Source\PSoC5/ErikaOS_cortex_mx_ee_cpu.inc **** 
 307:Generated_Source\PSoC5/ErikaOS_cortex_mx_ee_cpu.inc **** #ifndef __CCS__
 308:Generated_Source\PSoC5/ErikaOS_cortex_mx_ee_cpu.inc **** 	register EE_UREG prio;
 309:Generated_Source\PSoC5/ErikaOS_cortex_mx_ee_cpu.inc **** #ifdef	__KEIL__
 310:Generated_Source\PSoC5/ErikaOS_cortex_mx_ee_cpu.inc **** 	register EE_FREG BASEPRI __ASM("basepri");
 311:Generated_Source\PSoC5/ErikaOS_cortex_mx_ee_cpu.inc **** #endif
 312:Generated_Source\PSoC5/ErikaOS_cortex_mx_ee_cpu.inc **** 
 313:Generated_Source\PSoC5/ErikaOS_cortex_mx_ee_cpu.inc **** #endif
 314:Generated_Source\PSoC5/ErikaOS_cortex_mx_ee_cpu.inc **** 
 315:Generated_Source\PSoC5/ErikaOS_cortex_mx_ee_cpu.inc **** #ifdef __CCS__
 316:Generated_Source\PSoC5/ErikaOS_cortex_mx_ee_cpu.inc **** 	/* NVIC_INT_PRI_S = 5 */
 317:Generated_Source\PSoC5/ErikaOS_cortex_mx_ee_cpu.inc **** 	__ASM ("    MRS     R0, BASEPRI\n"
 318:Generated_Source\PSoC5/ErikaOS_cortex_mx_ee_cpu.inc **** 	       "    ASR     R0, #5\n"
 319:Generated_Source\PSoC5/ErikaOS_cortex_mx_ee_cpu.inc **** 	       "    BLX     LR\n");
 320:Generated_Source\PSoC5/ErikaOS_cortex_mx_ee_cpu.inc **** #else	/* __CCS__ */
 321:Generated_Source\PSoC5/ErikaOS_cortex_mx_ee_cpu.inc **** #ifdef __KEIL__
 322:Generated_Source\PSoC5/ErikaOS_cortex_mx_ee_cpu.inc **** 	prio = BASEPRI;
 323:Generated_Source\PSoC5/ErikaOS_cortex_mx_ee_cpu.inc **** #else	/* __KEIL__ */
 324:Generated_Source\PSoC5/ErikaOS_cortex_mx_ee_cpu.inc **** #ifdef __GNU__
 325:Generated_Source\PSoC5/ErikaOS_cortex_mx_ee_cpu.inc **** 	__ASM volatile("MRS %0, BASEPRI" : "=r" (prio) :: );
ARM GAS  C:\Users\aditi\AppData\Local\Temp\ccxJli9U.s 			page 68


 1773              		.loc 5 325 0
 1774              		.syntax unified
 1775              	@ 325 "Generated_Source\PSoC5/ErikaOS_cortex_mx_ee_cpu.inc" 1
 1776 000c EFF31184 		MRS r4, BASEPRI
 1777              	@ 0 "" 2
 1778              	.LVL160:
 1779              		.thumb
 1780              		.syntax unified
 1781              	.LBE159:
 1782              	.LBE158:
 1783              	.LBB160:
 1784              	.LBB161:
 326:Generated_Source\PSoC5/ErikaOS_cortex_mx_ee_cpu.inc **** #else
 327:Generated_Source\PSoC5/ErikaOS_cortex_mx_ee_cpu.inc **** 	__ASM volatile("MRS %0, BASEPRI" :: "=r" (prio));
 328:Generated_Source\PSoC5/ErikaOS_cortex_mx_ee_cpu.inc **** #endif	/* !__GNU__ */
 329:Generated_Source\PSoC5/ErikaOS_cortex_mx_ee_cpu.inc **** #endif	/* !__KEIL__ */
 330:Generated_Source\PSoC5/ErikaOS_cortex_mx_ee_cpu.inc **** #endif	/* !__CCS__ */
 331:Generated_Source\PSoC5/ErikaOS_cortex_mx_ee_cpu.inc **** 
 332:Generated_Source\PSoC5/ErikaOS_cortex_mx_ee_cpu.inc **** #ifdef __CCS__
 333:Generated_Source\PSoC5/ErikaOS_cortex_mx_ee_cpu.inc **** 	return 0;
 334:Generated_Source\PSoC5/ErikaOS_cortex_mx_ee_cpu.inc **** #else
 335:Generated_Source\PSoC5/ErikaOS_cortex_mx_ee_cpu.inc **** 	return prio >> NVIC_INT_PRI_S;
 336:Generated_Source\PSoC5/ErikaOS_cortex_mx_ee_cpu.inc **** #endif
 337:Generated_Source\PSoC5/ErikaOS_cortex_mx_ee_cpu.inc **** 
 338:Generated_Source\PSoC5/ErikaOS_cortex_mx_ee_cpu.inc **** #else	/* __CORTEX_M4__ */
 339:Generated_Source\PSoC5/ErikaOS_cortex_mx_ee_cpu.inc **** 	return 0;
 340:Generated_Source\PSoC5/ErikaOS_cortex_mx_ee_cpu.inc **** #endif	/* !__CORTEX_M4__ */
 341:Generated_Source\PSoC5/ErikaOS_cortex_mx_ee_cpu.inc **** }
 342:Generated_Source\PSoC5/ErikaOS_cortex_mx_ee_cpu.inc **** 
 343:Generated_Source\PSoC5/ErikaOS_cortex_mx_ee_cpu.inc **** __INLINE__ void  EE_cortex_mx_set_int_prio(
 344:Generated_Source\PSoC5/ErikaOS_cortex_mx_ee_cpu.inc ****   EE_TYPEISR2PRIO prio
 345:Generated_Source\PSoC5/ErikaOS_cortex_mx_ee_cpu.inc **** )
 346:Generated_Source\PSoC5/ErikaOS_cortex_mx_ee_cpu.inc **** {
 347:Generated_Source\PSoC5/ErikaOS_cortex_mx_ee_cpu.inc **** #ifdef __CORTEX_M4__
 348:Generated_Source\PSoC5/ErikaOS_cortex_mx_ee_cpu.inc **** #ifdef __CCS__
 349:Generated_Source\PSoC5/ErikaOS_cortex_mx_ee_cpu.inc **** 	/* NVIC_INT_PRI_S = 5 */
 350:Generated_Source\PSoC5/ErikaOS_cortex_mx_ee_cpu.inc **** 	__ASM ("    LSL    R0, #5\n"
 351:Generated_Source\PSoC5/ErikaOS_cortex_mx_ee_cpu.inc **** 	       "    MSR    BASEPRI, R0\n");
 352:Generated_Source\PSoC5/ErikaOS_cortex_mx_ee_cpu.inc **** #else	/* __CCS__ */
 353:Generated_Source\PSoC5/ErikaOS_cortex_mx_ee_cpu.inc **** #ifdef __KEIL__
 354:Generated_Source\PSoC5/ErikaOS_cortex_mx_ee_cpu.inc **** 	register EE_FREG BASEPRI __ASM("basepri");
 355:Generated_Source\PSoC5/ErikaOS_cortex_mx_ee_cpu.inc **** 	BASEPRI = (prio << NVIC_INT_PRI_S);
 356:Generated_Source\PSoC5/ErikaOS_cortex_mx_ee_cpu.inc **** #else	/* __KEIL__ */
 357:Generated_Source\PSoC5/ErikaOS_cortex_mx_ee_cpu.inc **** #ifdef __GNU__
 358:Generated_Source\PSoC5/ErikaOS_cortex_mx_ee_cpu.inc **** 	__ASM volatile("MSR BASEPRI, %0" :: "r" (prio << NVIC_INT_PRI_S) : );
 359:Generated_Source\PSoC5/ErikaOS_cortex_mx_ee_cpu.inc **** #else
 360:Generated_Source\PSoC5/ErikaOS_cortex_mx_ee_cpu.inc **** 	__ASM volatile("MSR BASEPRI, %0" :: "r" (prio << NVIC_INT_PRI_S));
 361:Generated_Source\PSoC5/ErikaOS_cortex_mx_ee_cpu.inc **** #endif	/* !__GNU__ */
 362:Generated_Source\PSoC5/ErikaOS_cortex_mx_ee_cpu.inc **** #endif	/* !__KEIL__ */
 363:Generated_Source\PSoC5/ErikaOS_cortex_mx_ee_cpu.inc **** #endif	/* !__CCS__ */
 364:Generated_Source\PSoC5/ErikaOS_cortex_mx_ee_cpu.inc **** #endif	/* __CORTEX_M4__ */
 365:Generated_Source\PSoC5/ErikaOS_cortex_mx_ee_cpu.inc **** }
 366:Generated_Source\PSoC5/ErikaOS_cortex_mx_ee_cpu.inc **** 
 367:Generated_Source\PSoC5/ErikaOS_cortex_mx_ee_cpu.inc **** __INLINE__ EE_TYPEISR2PRIO  EE_cortex_mx_get_isr_prio(
 368:Generated_Source\PSoC5/ErikaOS_cortex_mx_ee_cpu.inc ****   void
 369:Generated_Source\PSoC5/ErikaOS_cortex_mx_ee_cpu.inc **** )
 370:Generated_Source\PSoC5/ErikaOS_cortex_mx_ee_cpu.inc **** {
ARM GAS  C:\Users\aditi\AppData\Local\Temp\ccxJli9U.s 			page 69


 371:Generated_Source\PSoC5/ErikaOS_cortex_mx_ee_cpu.inc **** #ifdef __CORTEX_M4__
 372:Generated_Source\PSoC5/ErikaOS_cortex_mx_ee_cpu.inc ****   register EE_UREG vectact = NVIC_INT_CTRL_R & NVIC_INT_CTRL_VEC_ACT_M;
 1785              		.loc 5 372 0
 1786 0010 1E4B     		ldr	r3, .L133
 1787 0012 1B68     		ldr	r3, [r3]
 1788 0014 DBB2     		uxtb	r3, r3
 1789              	.LVL161:
 373:Generated_Source\PSoC5/ErikaOS_cortex_mx_ee_cpu.inc ****   register EE_TYPEISR2PRIO prio = 0;
 374:Generated_Source\PSoC5/ErikaOS_cortex_mx_ee_cpu.inc **** 
 375:Generated_Source\PSoC5/ErikaOS_cortex_mx_ee_cpu.inc ****   if (vectact > EE_CORTEX_MX_SYSTICK_EXC_NUM) {
 1790              		.loc 5 375 0
 1791 0016 0F2B     		cmp	r3, #15
 1792 0018 10D9     		bls	.L128
 376:Generated_Source\PSoC5/ErikaOS_cortex_mx_ee_cpu.inc ****     vectact -= EE_CORTEX_MX_SYSTICK_EXC_NUM + 1;
 1793              		.loc 5 376 0
 1794 001a 103B     		subs	r3, r3, #16
 1795              	.LVL162:
 377:Generated_Source\PSoC5/ErikaOS_cortex_mx_ee_cpu.inc ****     prio = NVIC_GET_PRI(vectact);
 1796              		.loc 5 377 0
 1797 001c 23F00302 		bic	r2, r3, #3
 1798 0020 02F16042 		add	r2, r2, #-536870912
 1799 0024 02F56442 		add	r2, r2, #58368
 1800 0028 1168     		ldr	r1, [r2]
 1801 002a DB00     		lsls	r3, r3, #3
 1802              	.LVL163:
 1803 002c 03F01803 		and	r3, r3, #24
 1804 0030 E022     		movs	r2, #224
 1805 0032 9A40     		lsls	r2, r2, r3
 1806 0034 0A40     		ands	r2, r2, r1
 1807 0036 22FA03F3 		lsr	r3, r2, r3
 1808              	.LVL164:
 1809 003a 06E0     		b	.L129
 1810              	.LVL165:
 1811              	.L128:
 378:Generated_Source\PSoC5/ErikaOS_cortex_mx_ee_cpu.inc ****   }
 379:Generated_Source\PSoC5/ErikaOS_cortex_mx_ee_cpu.inc **** #ifdef	__USE_SYSTICK__
 380:Generated_Source\PSoC5/ErikaOS_cortex_mx_ee_cpu.inc ****   else if (vectact == EE_CORTEX_MX_SYSTICK_EXC_NUM) {
 1812              		.loc 5 380 0
 1813 003c 0F2B     		cmp	r3, #15
 1814 003e 03D1     		bne	.L132
 381:Generated_Source\PSoC5/ErikaOS_cortex_mx_ee_cpu.inc ****     prio = NVIC_SYS_PRI3_R >> NVIC_SYS_PRI3_TICK_S;
 1815              		.loc 5 381 0
 1816 0040 134B     		ldr	r3, .L133+4
 1817              	.LVL166:
 1818 0042 1B68     		ldr	r3, [r3]
 1819 0044 1B0E     		lsrs	r3, r3, #24
 1820              	.LVL167:
 1821 0046 00E0     		b	.L129
 1822              	.LVL168:
 1823              	.L132:
 373:Generated_Source\PSoC5/ErikaOS_cortex_mx_ee_cpu.inc **** 
 1824              		.loc 5 373 0
 1825 0048 0023     		movs	r3, #0
 1826              	.LVL169:
 1827              	.L129:
 1828              	.LBE161:
 1829              	.LBE160:
ARM GAS  C:\Users\aditi\AppData\Local\Temp\ccxJli9U.s 			page 70


 1830              	.LBB162:
 1831              	.LBB163:
 358:Generated_Source\PSoC5/ErikaOS_cortex_mx_ee_cpu.inc **** #else
 1832              		.loc 5 358 0
 1833              		.syntax unified
 1834              	@ 358 "Generated_Source\PSoC5/ErikaOS_cortex_mx_ee_cpu.inc" 1
 1835 004a 83F31188 		MSR BASEPRI, r3
 1836              	@ 0 "" 2
 1837              		.thumb
 1838              		.syntax unified
 1839              	.LBE163:
 1840              	.LBE162:
 1841              	.LBB164:
 1842              	.LBB165:
 1843              		.file 6 "Generated_Source\\PSoC5/ErikaOS_common_ee_irqstub.inc"
   1:Generated_Source\PSoC5/ErikaOS_common_ee_irqstub.inc **** /* ###*B*###
   2:Generated_Source\PSoC5/ErikaOS_common_ee_irqstub.inc ****  * ERIKA Enterprise - a tiny RTOS for small microcontrollers
   3:Generated_Source\PSoC5/ErikaOS_common_ee_irqstub.inc ****  *
   4:Generated_Source\PSoC5/ErikaOS_common_ee_irqstub.inc ****  * Copyright (C) 2002-2010  Evidence Srl
   5:Generated_Source\PSoC5/ErikaOS_common_ee_irqstub.inc ****  *
   6:Generated_Source\PSoC5/ErikaOS_common_ee_irqstub.inc ****  * This file is part of ERIKA Enterprise.
   7:Generated_Source\PSoC5/ErikaOS_common_ee_irqstub.inc ****  *
   8:Generated_Source\PSoC5/ErikaOS_common_ee_irqstub.inc ****  * ERIKA Enterprise is free software; you can redistribute it
   9:Generated_Source\PSoC5/ErikaOS_common_ee_irqstub.inc ****  * and/or modify it under the terms of the GNU General Public License
  10:Generated_Source\PSoC5/ErikaOS_common_ee_irqstub.inc ****  * version 2 as published by the Free Software Foundation,
  11:Generated_Source\PSoC5/ErikaOS_common_ee_irqstub.inc ****  * (with a special exception described below).
  12:Generated_Source\PSoC5/ErikaOS_common_ee_irqstub.inc ****  *
  13:Generated_Source\PSoC5/ErikaOS_common_ee_irqstub.inc ****  * Linking this code statically or dynamically with other modules is
  14:Generated_Source\PSoC5/ErikaOS_common_ee_irqstub.inc ****  * making a combined work based on this code.  Thus, the terms and
  15:Generated_Source\PSoC5/ErikaOS_common_ee_irqstub.inc ****  * conditions of the GNU General Public License cover the whole
  16:Generated_Source\PSoC5/ErikaOS_common_ee_irqstub.inc ****  * combination.
  17:Generated_Source\PSoC5/ErikaOS_common_ee_irqstub.inc ****  *
  18:Generated_Source\PSoC5/ErikaOS_common_ee_irqstub.inc ****  * As a special exception, the copyright holders of this library give you
  19:Generated_Source\PSoC5/ErikaOS_common_ee_irqstub.inc ****  * permission to link this code with independent modules to produce an
  20:Generated_Source\PSoC5/ErikaOS_common_ee_irqstub.inc ****  * executable, regardless of the license terms of these independent
  21:Generated_Source\PSoC5/ErikaOS_common_ee_irqstub.inc ****  * modules, and to copy and distribute the resulting executable under
  22:Generated_Source\PSoC5/ErikaOS_common_ee_irqstub.inc ****  * terms of your choice, provided that you also meet, for each linked
  23:Generated_Source\PSoC5/ErikaOS_common_ee_irqstub.inc ****  * independent module, the terms and conditions of the license of that
  24:Generated_Source\PSoC5/ErikaOS_common_ee_irqstub.inc ****  * module.  An independent module is a module which is not derived from
  25:Generated_Source\PSoC5/ErikaOS_common_ee_irqstub.inc ****  * or based on this library.  If you modify this code, you may extend
  26:Generated_Source\PSoC5/ErikaOS_common_ee_irqstub.inc ****  * this exception to your version of the code, but you are not
  27:Generated_Source\PSoC5/ErikaOS_common_ee_irqstub.inc ****  * obligated to do so.  If you do not wish to do so, delete this
  28:Generated_Source\PSoC5/ErikaOS_common_ee_irqstub.inc ****  * exception statement from your version.
  29:Generated_Source\PSoC5/ErikaOS_common_ee_irqstub.inc ****  *
  30:Generated_Source\PSoC5/ErikaOS_common_ee_irqstub.inc ****  * ERIKA Enterprise is distributed in the hope that it will be
  31:Generated_Source\PSoC5/ErikaOS_common_ee_irqstub.inc ****  * useful, but WITHOUT ANY WARRANTY; without even the implied warranty
  32:Generated_Source\PSoC5/ErikaOS_common_ee_irqstub.inc ****  * of MERCHANTABILITY or FITNESS FOR A PARTICULAR PURPOSE.  See the
  33:Generated_Source\PSoC5/ErikaOS_common_ee_irqstub.inc ****  * GNU General Public License version 2 for more details.
  34:Generated_Source\PSoC5/ErikaOS_common_ee_irqstub.inc ****  *
  35:Generated_Source\PSoC5/ErikaOS_common_ee_irqstub.inc ****  * You should have received a copy of the GNU General Public License
  36:Generated_Source\PSoC5/ErikaOS_common_ee_irqstub.inc ****  * version 2 along with ERIKA Enterprise; if not, write to the
  37:Generated_Source\PSoC5/ErikaOS_common_ee_irqstub.inc ****  * Free Software Foundation, Inc., 51 Franklin Street, Fifth Floor,
  38:Generated_Source\PSoC5/ErikaOS_common_ee_irqstub.inc ****  * Boston, MA 02110-1301 USA.
  39:Generated_Source\PSoC5/ErikaOS_common_ee_irqstub.inc ****  * ###*E*### */
  40:Generated_Source\PSoC5/ErikaOS_common_ee_irqstub.inc **** 
  41:Generated_Source\PSoC5/ErikaOS_common_ee_irqstub.inc **** /*
  42:Generated_Source\PSoC5/ErikaOS_common_ee_irqstub.inc ****  * Some IRQ-related stuff.
ARM GAS  C:\Users\aditi\AppData\Local\Temp\ccxJli9U.s 			page 71


  43:Generated_Source\PSoC5/ErikaOS_common_ee_irqstub.inc ****  * Author: 2009-2010,  Bernardo  Dal Seno
  44:Generated_Source\PSoC5/ErikaOS_common_ee_irqstub.inc ****  */
  45:Generated_Source\PSoC5/ErikaOS_common_ee_irqstub.inc **** 
  46:Generated_Source\PSoC5/ErikaOS_common_ee_irqstub.inc **** /*
  47:Generated_Source\PSoC5/ErikaOS_common_ee_irqstub.inc ****  * PSoC Port and API Generation
  48:Generated_Source\PSoC5/ErikaOS_common_ee_irqstub.inc ****  * Carlos Fernando Meier Martinez
  49:Generated_Source\PSoC5/ErikaOS_common_ee_irqstub.inc ****  * Hochschule Darmstadt, Germany. 2017.
  50:Generated_Source\PSoC5/ErikaOS_common_ee_irqstub.inc ****  */
  51:Generated_Source\PSoC5/ErikaOS_common_ee_irqstub.inc **** 
  52:Generated_Source\PSoC5/ErikaOS_common_ee_irqstub.inc **** /*******************************************************************************
  53:Generated_Source\PSoC5/ErikaOS_common_ee_irqstub.inc ****  *                        !!!WARNING!!!
  54:Generated_Source\PSoC5/ErikaOS_common_ee_irqstub.inc ****  * This header depends on "cpu/common/inc/ee_context.inc" or your own
  55:Generated_Source\PSoC5/ErikaOS_common_ee_irqstub.inc ****  * implementation of the same. You should include it file before including this
  56:Generated_Source\PSoC5/ErikaOS_common_ee_irqstub.inc ****  * file
  57:Generated_Source\PSoC5/ErikaOS_common_ee_irqstub.inc ****  ******************************************************************************/
  58:Generated_Source\PSoC5/ErikaOS_common_ee_irqstub.inc **** 
  59:Generated_Source\PSoC5/ErikaOS_common_ee_irqstub.inc **** #ifndef PKG_CPU_COMMON_INC_EE_IRQSTUB_H
  60:Generated_Source\PSoC5/ErikaOS_common_ee_irqstub.inc **** #define PKG_CPU_COMMON_INC_EE_IRQSTUB_H
  61:Generated_Source\PSoC5/ErikaOS_common_ee_irqstub.inc **** 
  62:Generated_Source\PSoC5/ErikaOS_common_ee_irqstub.inc **** /* this bring EE_IRQ_nesting_level definition */
  63:Generated_Source\PSoC5/ErikaOS_common_ee_irqstub.inc **** #include "ErikaOS_common_ee_primitives.inc"
  64:Generated_Source\PSoC5/ErikaOS_common_ee_irqstub.inc **** 
  65:Generated_Source\PSoC5/ErikaOS_common_ee_irqstub.inc **** /* True if we are inside an interrupt-serving routine */
  66:Generated_Source\PSoC5/ErikaOS_common_ee_irqstub.inc **** __INLINE__ EE_TYPEBOOL  EE_is_inside_ISR_call( void )
  67:Generated_Source\PSoC5/ErikaOS_common_ee_irqstub.inc **** {
  68:Generated_Source\PSoC5/ErikaOS_common_ee_irqstub.inc ****   return (EE_IRQ_nesting_level > 0U);
  69:Generated_Source\PSoC5/ErikaOS_common_ee_irqstub.inc **** }
  70:Generated_Source\PSoC5/ErikaOS_common_ee_irqstub.inc **** 
  71:Generated_Source\PSoC5/ErikaOS_common_ee_irqstub.inc **** 
  72:Generated_Source\PSoC5/ErikaOS_common_ee_irqstub.inc **** /* EE_decrement_IRQ_nesting_level() and EE_increment_IRQ_nesting_level() are
  73:Generated_Source\PSoC5/ErikaOS_common_ee_irqstub.inc ****  * used to keep track of the current IRQ nesting level.
  74:Generated_Source\PSoC5/ErikaOS_common_ee_irqstub.inc ****  * EE_std_enableIRQ_nested() and EE_std_disableIRQ_nested() are used to control
  75:Generated_Source\PSoC5/ErikaOS_common_ee_irqstub.inc ****  * when IRQ nesting is enabled.
  76:Generated_Source\PSoC5/ErikaOS_common_ee_irqstub.inc ****  */
  77:Generated_Source\PSoC5/ErikaOS_common_ee_irqstub.inc **** #if defined(__AS_SC4__)
  78:Generated_Source\PSoC5/ErikaOS_common_ee_irqstub.inc **** /* For SC4 the nesting level is updated inside the prestub and postub */
  79:Generated_Source\PSoC5/ErikaOS_common_ee_irqstub.inc **** __INLINE__ void  EE_decrement_IRQ_nesting_level(void) {}
  80:Generated_Source\PSoC5/ErikaOS_common_ee_irqstub.inc **** __INLINE__ void  EE_increment_IRQ_nesting_level(void) {}
  81:Generated_Source\PSoC5/ErikaOS_common_ee_irqstub.inc **** __INLINE__ void  EE_std_enableIRQ_nested(void) {}
  82:Generated_Source\PSoC5/ErikaOS_common_ee_irqstub.inc **** __INLINE__ void  EE_std_disableIRQ_nested(void) {}
  83:Generated_Source\PSoC5/ErikaOS_common_ee_irqstub.inc **** #elif defined(__ALLOW_NESTED_IRQ__)
  84:Generated_Source\PSoC5/ErikaOS_common_ee_irqstub.inc **** __INLINE__ void  EE_decrement_IRQ_nesting_level(void) { --EE_IRQ_nesting_level; }
  85:Generated_Source\PSoC5/ErikaOS_common_ee_irqstub.inc **** __INLINE__ void  EE_increment_IRQ_nesting_level(void) { ++EE_IRQ_nesting_level; }
 1844              		.loc 6 85 0
 1845 004e 114A     		ldr	r2, .L133+8
 1846 0050 1368     		ldr	r3, [r2]
 1847 0052 0133     		adds	r3, r3, #1
 1848 0054 1360     		str	r3, [r2]
 1849              	.LBE165:
 1850              	.LBE164:
 540:source\asw/swc_clock.c **** {
 1851              		.loc 1 540 0
 1852 0056 012B     		cmp	r3, #1
 1853 0058 01D1     		bne	.L130
 540:source\asw/swc_clock.c **** {
 1854              		.loc 1 540 0 is_stmt 0 discriminator 1
 1855 005a FFF7FEFF 		bl	EE_cortex_mx_change_IRQ_stack
ARM GAS  C:\Users\aditi\AppData\Local\Temp\ccxJli9U.s 			page 72


 1856              	.LVL170:
 1857              	.L130:
 1858              	.LBB166:
 1859              	.LBB167:
 191:Generated_Source\PSoC5/ErikaOS_cortex_mx_ee_cpu.inc **** #endif	/* !__KEIL__ */
 1860              		.loc 5 191 0 is_stmt 1 discriminator 3
 1861              		.syntax unified
 1862              	@ 191 "Generated_Source\PSoC5/ErikaOS_cortex_mx_ee_cpu.inc" 1
 1863 005e 62B6     		cpsie i
 1864              	@ 0 "" 2
 1865              		.thumb
 1866              		.syntax unified
 1867              	.LBE167:
 1868              	.LBE166:
 540:source\asw/swc_clock.c **** {
 1869              		.loc 1 540 0 discriminator 3
 1870 0060 FFF7FEFF 		bl	ISR2_isr_button
 1871              	.LVL171:
 1872              	.LBB168:
 1873              	.LBB169:
 211:Generated_Source\PSoC5/ErikaOS_cortex_mx_ee_cpu.inc **** #endif	/* !__KEIL__ */
 1874              		.loc 5 211 0 discriminator 3
 1875              		.syntax unified
 1876              	@ 211 "Generated_Source\PSoC5/ErikaOS_cortex_mx_ee_cpu.inc" 1
 1877 0064 72B6     		cpsid i
 1878              	@ 0 "" 2
 1879              	.LVL172:
 1880              		.thumb
 1881              		.syntax unified
 1882              	.LBE169:
 1883              	.LBE168:
 1884              	.LBB170:
 1885              	.LBB171:
 358:Generated_Source\PSoC5/ErikaOS_cortex_mx_ee_cpu.inc **** #else
 1886              		.loc 5 358 0 discriminator 3
 1887              		.syntax unified
 1888              	@ 358 "Generated_Source\PSoC5/ErikaOS_cortex_mx_ee_cpu.inc" 1
 1889 0066 84F31188 		MSR BASEPRI, r4
 1890              	@ 0 "" 2
 1891              	.LVL173:
 1892              		.thumb
 1893              		.syntax unified
 1894              	.LBE171:
 1895              	.LBE170:
 1896              	.LBB172:
 1897              	.LBB173:
  86:Generated_Source\PSoC5/ErikaOS_common_ee_irqstub.inc **** /*  EE_std_enableIRQ_nested() and EE_std_disableIRQ_nested() must be defined in
  87:Generated_Source\PSoC5/ErikaOS_common_ee_irqstub.inc ****  *  the platform-dependent part, as they dependend on the particular way
  88:Generated_Source\PSoC5/ErikaOS_common_ee_irqstub.inc ****  *  interrupts are handled by the CPU. */
  89:Generated_Source\PSoC5/ErikaOS_common_ee_irqstub.inc **** #else
  90:Generated_Source\PSoC5/ErikaOS_common_ee_irqstub.inc **** __INLINE__ void  EE_decrement_IRQ_nesting_level(void) { EE_IRQ_nesting_level = 0U; }
  91:Generated_Source\PSoC5/ErikaOS_common_ee_irqstub.inc **** __INLINE__ void  EE_increment_IRQ_nesting_level(void) { EE_IRQ_nesting_level = 1U; }
  92:Generated_Source\PSoC5/ErikaOS_common_ee_irqstub.inc **** __INLINE__ void  EE_std_enableIRQ_nested(void) {}
  93:Generated_Source\PSoC5/ErikaOS_common_ee_irqstub.inc **** __INLINE__ void  EE_std_disableIRQ_nested(void) {}
  94:Generated_Source\PSoC5/ErikaOS_common_ee_irqstub.inc **** #endif
  95:Generated_Source\PSoC5/ErikaOS_common_ee_irqstub.inc **** 
  96:Generated_Source\PSoC5/ErikaOS_common_ee_irqstub.inc **** #if (defined(__OO_BCC1__)) || (defined(__OO_BCC2__)) || (defined(__OO_ECC1__)) \
ARM GAS  C:\Users\aditi\AppData\Local\Temp\ccxJli9U.s 			page 73


  97:Generated_Source\PSoC5/ErikaOS_common_ee_irqstub.inc ****   || (defined(__OO_ECC2__)) || (defined(__AS_SC4__))
  98:Generated_Source\PSoC5/ErikaOS_common_ee_irqstub.inc **** /* Function to be called at the end of a function service interrupt, to execute
  99:Generated_Source\PSoC5/ErikaOS_common_ee_irqstub.inc ****    clean-up specifiend in Autosar standard */
 100:Generated_Source\PSoC5/ErikaOS_common_ee_irqstub.inc **** __INLINE__ void  EE_std_end_IRQ_post_stub(void)
 101:Generated_Source\PSoC5/ErikaOS_common_ee_irqstub.inc **** {
 102:Generated_Source\PSoC5/ErikaOS_common_ee_irqstub.inc ****   EE_IRQ_end_post_stub();
 1898              		.loc 6 102 0 discriminator 3
 1899 006a FFF7FEFF 		bl	EE_IRQ_end_post_stub
 1900              	.LVL174:
 1901              	.LBE173:
 1902              	.LBE172:
 1903              	.LBB174:
 1904              	.LBB175:
  84:Generated_Source\PSoC5/ErikaOS_common_ee_irqstub.inc **** __INLINE__ void  EE_increment_IRQ_nesting_level(void) { ++EE_IRQ_nesting_level; }
 1905              		.loc 6 84 0 discriminator 3
 1906 006e 094A     		ldr	r2, .L133+8
 1907 0070 1368     		ldr	r3, [r2]
 1908 0072 013B     		subs	r3, r3, #1
 1909 0074 1360     		str	r3, [r2]
 1910              	.LBE175:
 1911              	.LBE174:
 540:source\asw/swc_clock.c **** {
 1912              		.loc 1 540 0 discriminator 3
 1913 0076 1BB9     		cbnz	r3, .L131
 540:source\asw/swc_clock.c **** {
 1914              		.loc 1 540 0 is_stmt 0 discriminator 4
 1915 0078 FFF7FEFF 		bl	EE_cortex_mx_change_IRQ_stack_back
 1916              	.LVL175:
 1917              	.LBB176:
 1918              	.LBB177:
 1919              		.file 7 "Generated_Source\\PSoC5/ErikaOS_cortex_mx_ee_irq_cng_cont.inc"
   1:Generated_Source\PSoC5/ErikaOS_cortex_mx_ee_irq_cng_cont.inc **** /* ###*B*###
   2:Generated_Source\PSoC5/ErikaOS_cortex_mx_ee_irq_cng_cont.inc ****  * ERIKA Enterprise - a tiny RTOS for small microcontrollers
   3:Generated_Source\PSoC5/ErikaOS_cortex_mx_ee_irq_cng_cont.inc ****  *
   4:Generated_Source\PSoC5/ErikaOS_cortex_mx_ee_irq_cng_cont.inc ****  * Copyright (C) 2002-2011  Evidence Srl
   5:Generated_Source\PSoC5/ErikaOS_cortex_mx_ee_irq_cng_cont.inc ****  *
   6:Generated_Source\PSoC5/ErikaOS_cortex_mx_ee_irq_cng_cont.inc ****  * This file is part of ERIKA Enterprise.
   7:Generated_Source\PSoC5/ErikaOS_cortex_mx_ee_irq_cng_cont.inc ****  *
   8:Generated_Source\PSoC5/ErikaOS_cortex_mx_ee_irq_cng_cont.inc ****  * ERIKA Enterprise is free software; you can redistribute it
   9:Generated_Source\PSoC5/ErikaOS_cortex_mx_ee_irq_cng_cont.inc ****  * and/or modify it under the terms of the GNU General Public License
  10:Generated_Source\PSoC5/ErikaOS_cortex_mx_ee_irq_cng_cont.inc ****  * version 2 as published by the Free Software Foundation, 
  11:Generated_Source\PSoC5/ErikaOS_cortex_mx_ee_irq_cng_cont.inc ****  * (with a special exception described below).
  12:Generated_Source\PSoC5/ErikaOS_cortex_mx_ee_irq_cng_cont.inc ****  *
  13:Generated_Source\PSoC5/ErikaOS_cortex_mx_ee_irq_cng_cont.inc ****  * Linking this code statically or dynamically with other modules is
  14:Generated_Source\PSoC5/ErikaOS_cortex_mx_ee_irq_cng_cont.inc ****  * making a combined work based on this code.  Thus, the terms and
  15:Generated_Source\PSoC5/ErikaOS_cortex_mx_ee_irq_cng_cont.inc ****  * conditions of the GNU General Public License cover the whole
  16:Generated_Source\PSoC5/ErikaOS_cortex_mx_ee_irq_cng_cont.inc ****  * combination.
  17:Generated_Source\PSoC5/ErikaOS_cortex_mx_ee_irq_cng_cont.inc ****  *
  18:Generated_Source\PSoC5/ErikaOS_cortex_mx_ee_irq_cng_cont.inc ****  * As a special exception, the copyright holders of this library give you
  19:Generated_Source\PSoC5/ErikaOS_cortex_mx_ee_irq_cng_cont.inc ****  * permission to link this code with independent modules to produce an
  20:Generated_Source\PSoC5/ErikaOS_cortex_mx_ee_irq_cng_cont.inc ****  * executable, regardless of the license terms of these independent
  21:Generated_Source\PSoC5/ErikaOS_cortex_mx_ee_irq_cng_cont.inc ****  * modules, and to copy and distribute the resulting executable under
  22:Generated_Source\PSoC5/ErikaOS_cortex_mx_ee_irq_cng_cont.inc ****  * terms of your choice, provided that you also meet, for each linked
  23:Generated_Source\PSoC5/ErikaOS_cortex_mx_ee_irq_cng_cont.inc ****  * independent module, the terms and conditions of the license of that
  24:Generated_Source\PSoC5/ErikaOS_cortex_mx_ee_irq_cng_cont.inc ****  * module.  An independent module is a module which is not derived from
  25:Generated_Source\PSoC5/ErikaOS_cortex_mx_ee_irq_cng_cont.inc ****  * or based on this library.  If you modify this code, you may extend
  26:Generated_Source\PSoC5/ErikaOS_cortex_mx_ee_irq_cng_cont.inc ****  * this exception to your version of the code, but you are not
ARM GAS  C:\Users\aditi\AppData\Local\Temp\ccxJli9U.s 			page 74


  27:Generated_Source\PSoC5/ErikaOS_cortex_mx_ee_irq_cng_cont.inc ****  * obligated to do so.  If you do not wish to do so, delete this
  28:Generated_Source\PSoC5/ErikaOS_cortex_mx_ee_irq_cng_cont.inc ****  * exception statement from your version.
  29:Generated_Source\PSoC5/ErikaOS_cortex_mx_ee_irq_cng_cont.inc ****  *
  30:Generated_Source\PSoC5/ErikaOS_cortex_mx_ee_irq_cng_cont.inc ****  * ERIKA Enterprise is distributed in the hope that it will be
  31:Generated_Source\PSoC5/ErikaOS_cortex_mx_ee_irq_cng_cont.inc ****  * useful, but WITHOUT ANY WARRANTY; without even the implied warranty
  32:Generated_Source\PSoC5/ErikaOS_cortex_mx_ee_irq_cng_cont.inc ****  * of MERCHANTABILITY or FITNESS FOR A PARTICULAR PURPOSE.  See the
  33:Generated_Source\PSoC5/ErikaOS_cortex_mx_ee_irq_cng_cont.inc ****  * GNU General Public License version 2 for more details.
  34:Generated_Source\PSoC5/ErikaOS_cortex_mx_ee_irq_cng_cont.inc ****  *
  35:Generated_Source\PSoC5/ErikaOS_cortex_mx_ee_irq_cng_cont.inc ****  * You should have received a copy of the GNU General Public License
  36:Generated_Source\PSoC5/ErikaOS_cortex_mx_ee_irq_cng_cont.inc ****  * version 2 along with ERIKA Enterprise; if not, write to the
  37:Generated_Source\PSoC5/ErikaOS_cortex_mx_ee_irq_cng_cont.inc ****  * Free Software Foundation, Inc., 51 Franklin Street, Fifth Floor,
  38:Generated_Source\PSoC5/ErikaOS_cortex_mx_ee_irq_cng_cont.inc ****  * Boston, MA 02110-1301 USA.
  39:Generated_Source\PSoC5/ErikaOS_cortex_mx_ee_irq_cng_cont.inc ****  * ###*E*### */
  40:Generated_Source\PSoC5/ErikaOS_cortex_mx_ee_irq_cng_cont.inc **** 
  41:Generated_Source\PSoC5/ErikaOS_cortex_mx_ee_irq_cng_cont.inc ****  /** 
  42:Generated_Source\PSoC5/ErikaOS_cortex_mx_ee_irq_cng_cont.inc **** 	
  43:Generated_Source\PSoC5/ErikaOS_cortex_mx_ee_irq_cng_cont.inc **** 	@file	ee_irq_cng_cont.h
  44:Generated_Source\PSoC5/ErikaOS_cortex_mx_ee_irq_cng_cont.inc **** 	@brief	Function active the context change interrupt
  45:Generated_Source\PSoC5/ErikaOS_cortex_mx_ee_irq_cng_cont.inc **** 	@author	Gianluca Franchino
  46:Generated_Source\PSoC5/ErikaOS_cortex_mx_ee_irq_cng_cont.inc **** 	@author	Giuseppe Serano
  47:Generated_Source\PSoC5/ErikaOS_cortex_mx_ee_irq_cng_cont.inc **** 	@date	2012
  48:Generated_Source\PSoC5/ErikaOS_cortex_mx_ee_irq_cng_cont.inc **** */ 
  49:Generated_Source\PSoC5/ErikaOS_cortex_mx_ee_irq_cng_cont.inc ****     
  50:Generated_Source\PSoC5/ErikaOS_cortex_mx_ee_irq_cng_cont.inc **** /*
  51:Generated_Source\PSoC5/ErikaOS_cortex_mx_ee_irq_cng_cont.inc ****  * PSoC Port and API Generation
  52:Generated_Source\PSoC5/ErikaOS_cortex_mx_ee_irq_cng_cont.inc ****  * Carlos Fernando Meier Martinez
  53:Generated_Source\PSoC5/ErikaOS_cortex_mx_ee_irq_cng_cont.inc ****  * Hochschule Darmstadt, Germany. 2017.
  54:Generated_Source\PSoC5/ErikaOS_cortex_mx_ee_irq_cng_cont.inc ****  */
  55:Generated_Source\PSoC5/ErikaOS_cortex_mx_ee_irq_cng_cont.inc **** 
  56:Generated_Source\PSoC5/ErikaOS_cortex_mx_ee_irq_cng_cont.inc **** #ifndef __INCLUDE_CORTEX_MX_IRQ_CNG_CONTEXT_H__
  57:Generated_Source\PSoC5/ErikaOS_cortex_mx_ee_irq_cng_cont.inc **** #define __INCLUDE_CORTEX_MX_IRQ_CNG_CONTEXT_H__
  58:Generated_Source\PSoC5/ErikaOS_cortex_mx_ee_irq_cng_cont.inc **** 
  59:Generated_Source\PSoC5/ErikaOS_cortex_mx_ee_irq_cng_cont.inc **** #ifdef __GNU__
  60:Generated_Source\PSoC5/ErikaOS_cortex_mx_ee_irq_cng_cont.inc **** #include "ErikaOS_common_ee_compiler_gcc.inc"
  61:Generated_Source\PSoC5/ErikaOS_cortex_mx_ee_irq_cng_cont.inc **** #endif
  62:Generated_Source\PSoC5/ErikaOS_cortex_mx_ee_irq_cng_cont.inc **** 
  63:Generated_Source\PSoC5/ErikaOS_cortex_mx_ee_irq_cng_cont.inc **** /* Implemented in ee_<compiler>_change_context_isr.s */
  64:Generated_Source\PSoC5/ErikaOS_cortex_mx_ee_irq_cng_cont.inc **** extern void EE_switch_context(void);
  65:Generated_Source\PSoC5/ErikaOS_cortex_mx_ee_irq_cng_cont.inc **** 
  66:Generated_Source\PSoC5/ErikaOS_cortex_mx_ee_irq_cng_cont.inc **** __INLINE__ void  EE_cortex_mx_IRQ_active_change_context(void)
  67:Generated_Source\PSoC5/ErikaOS_cortex_mx_ee_irq_cng_cont.inc **** {
  68:Generated_Source\PSoC5/ErikaOS_cortex_mx_ee_irq_cng_cont.inc **** 	EE_switch_context();
 1920              		.loc 7 68 0 is_stmt 1 discriminator 4
 1921 007c FFF7FEFF 		bl	EE_switch_context
 1922              	.LVL176:
 1923              	.L131:
 1924              	.LBE177:
 1925              	.LBE176:
 1926              	.LBB178:
 1927              	.LBB179:
 191:Generated_Source\PSoC5/ErikaOS_cortex_mx_ee_cpu.inc **** #endif	/* !__KEIL__ */
 1928              		.loc 5 191 0 discriminator 6
 1929              		.syntax unified
 1930              	@ 191 "Generated_Source\PSoC5/ErikaOS_cortex_mx_ee_cpu.inc" 1
 1931 0080 62B6     		cpsie i
 1932              	@ 0 "" 2
 1933              		.thumb
ARM GAS  C:\Users\aditi\AppData\Local\Temp\ccxJli9U.s 			page 75


 1934              		.syntax unified
 1935              	.LBE179:
 1936              	.LBE178:
 540:source\asw/swc_clock.c **** {
 1937              		.loc 1 540 0 discriminator 6
 1938 0082 BDE81940 		pop	{r0, r3, r4, lr}
 1939              		.cfi_restore 14
 1940              		.cfi_restore 4
 1941              		.cfi_restore 3
 1942              		.cfi_restore 0
 1943              		.cfi_def_cfa_offset 0
 1944 0086 8546     		mov	sp, r0
 1945 0088 7047     		bx	lr
 1946              	.L134:
 1947 008a 00BF     		.align	2
 1948              	.L133:
 1949 008c 04ED00E0 		.word	-536810236
 1950 0090 20ED00E0 		.word	-536810208
 1951 0094 00000000 		.word	EE_IRQ_nesting_level
 1952              		.cfi_endproc
 1953              	.LFE158:
 1954              		.size	isr_button, .-isr_button
 1955              		.global	CLOCK_Widget_Transitions_Size
 1956              		.global	CLOCK_Widget_Transitions
 1957              		.global	STATE_CLOCK_W_IS_AUTOINCREMENT_Transitions
 1958              		.global	STATE_CLOCK_W_IS_EDITING_Transitions
 1959              		.global	STATE_CLOCK_W_IS_DISPLAYING_Transitions
 1960              		.global	CLOCK_Container_Transitions_Size
 1961              		.global	CLOCK_Container_Transitions
 1962              		.section	.rodata
 1963              		.align	2
 1964              		.set	.LANCHOR0,. + 0
 1965              		.type	CLOCK_Widget_Transitions, %object
 1966              		.size	CLOCK_Widget_Transitions, 36
 1967              	CLOCK_Widget_Transitions:
 1968 0000 03       		.byte	3
 1969 0001 000000   		.space	3
 1970 0004 00000000 		.word	STATE_CLOCK_W_IS_DISPLAYING_Transitions
 1971 0008 0100     		.short	1
 1972 000a 0000     		.space	2
 1973 000c 04       		.byte	4
 1974 000d 000000   		.space	3
 1975 0010 00000000 		.word	STATE_CLOCK_W_IS_EDITING_Transitions
 1976 0014 0300     		.short	3
 1977 0016 0000     		.space	2
 1978 0018 05       		.byte	5
 1979 0019 000000   		.space	3
 1980 001c 00000000 		.word	STATE_CLOCK_W_IS_AUTOINCREMENT_Transitions
 1981 0020 0200     		.short	2
 1982 0022 0000     		.space	2
 1983              		.type	CLOCK_Container_Transitions, %object
 1984              		.size	CLOCK_Container_Transitions, 36
 1985              	CLOCK_Container_Transitions:
 1986 0024 00       		.byte	0
 1987 0025 000000   		.space	3
 1988 0028 F8000000 		.word	STATE_CLOCK_C_IS_DISPLAYING_Transitions
 1989 002c 0200     		.short	2
ARM GAS  C:\Users\aditi\AppData\Local\Temp\ccxJli9U.s 			page 76


 1990 002e 0000     		.space	2
 1991 0030 01       		.byte	1
 1992 0031 000000   		.space	3
 1993 0034 C8000000 		.word	STATE_CLOCK_C_IS_EDITINGHOURS_Transitions
 1994 0038 0400     		.short	4
 1995 003a 0000     		.space	2
 1996 003c 02       		.byte	2
 1997 003d 000000   		.space	3
 1998 0040 98000000 		.word	STATE_CLOCK_C_IS_EDITINGMINUTES_Transitions
 1999 0044 0400     		.short	4
 2000 0046 0000     		.space	2
 2001              		.type	CLOCK_Widget_Transitions_Size, %object
 2002              		.size	CLOCK_Widget_Transitions_Size, 2
 2003              	CLOCK_Widget_Transitions_Size:
 2004 0048 0300     		.short	3
 2005 004a 0000     		.space	2
 2006              		.type	STATE_CLOCK_W_IS_AUTOINCREMENT_Transitions, %object
 2007              		.size	STATE_CLOCK_W_IS_AUTOINCREMENT_Transitions, 24
 2008              	STATE_CLOCK_W_IS_AUTOINCREMENT_Transitions:
 2009 004c 02       		.byte	2
 2010 004d 04       		.byte	4
 2011 004e 0000     		.space	2
 2012 0050 00000000 		.word	0
 2013 0054 00000000 		.word	CLOCK__incrementWidget
 2014 0058 05       		.byte	5
 2015 0059 05       		.byte	5
 2016 005a 0000     		.space	2
 2017 005c 00000000 		.word	0
 2018 0060 00000000 		.word	CLOCK__incrementWidget
 2019              		.type	STATE_CLOCK_W_IS_EDITING_Transitions, %object
 2020              		.size	STATE_CLOCK_W_IS_EDITING_Transitions, 36
 2021              	STATE_CLOCK_W_IS_EDITING_Transitions:
 2022 0064 02       		.byte	2
 2023 0065 04       		.byte	4
 2024 0066 0000     		.space	2
 2025 0068 00000000 		.word	0
 2026 006c 00000000 		.word	CLOCK__incrementWidget
 2027 0070 03       		.byte	3
 2028 0071 05       		.byte	5
 2029 0072 0000     		.space	2
 2030 0074 00000000 		.word	0
 2031 0078 00000000 		.word	0
 2032 007c 01       		.byte	1
 2033 007d 03       		.byte	3
 2034 007e 0000     		.space	2
 2035 0080 00000000 		.word	0
 2036 0084 00000000 		.word	CLOCK__setDisplayFonts
 2037              		.type	STATE_CLOCK_W_IS_DISPLAYING_Transitions, %object
 2038              		.size	STATE_CLOCK_W_IS_DISPLAYING_Transitions, 12
 2039              	STATE_CLOCK_W_IS_DISPLAYING_Transitions:
 2040 0088 01       		.byte	1
 2041 0089 04       		.byte	4
 2042 008a 0000     		.space	2
 2043 008c 00000000 		.word	0
 2044 0090 00000000 		.word	CLOCK__setEditFonts
 2045              		.type	CLOCK_Container_Transitions_Size, %object
 2046              		.size	CLOCK_Container_Transitions_Size, 2
ARM GAS  C:\Users\aditi\AppData\Local\Temp\ccxJli9U.s 			page 77


 2047              	CLOCK_Container_Transitions_Size:
 2048 0094 0300     		.short	3
 2049 0096 0000     		.space	2
 2050              		.type	STATE_CLOCK_C_IS_EDITINGMINUTES_Transitions, %object
 2051              		.size	STATE_CLOCK_C_IS_EDITINGMINUTES_Transitions, 48
 2052              	STATE_CLOCK_C_IS_EDITINGMINUTES_Transitions:
 2053 0098 01       		.byte	1
 2054 0099 00       		.byte	0
 2055 009a 0000     		.space	2
 2056 009c 00000000 		.word	0
 2057 00a0 00000000 		.word	CLOCK__dispatch_KL_Min
 2058 00a4 02       		.byte	2
 2059 00a5 02       		.byte	2
 2060 00a6 0000     		.space	2
 2061 00a8 00000000 		.word	0
 2062 00ac 00000000 		.word	CLOCK__dispatch_KR_Min
 2063 00b0 03       		.byte	3
 2064 00b1 02       		.byte	2
 2065 00b2 0000     		.space	2
 2066 00b4 00000000 		.word	0
 2067 00b8 00000000 		.word	CLOCK__dispatch_KRLP_Min
 2068 00bc 05       		.byte	5
 2069 00bd 02       		.byte	2
 2070 00be 0000     		.space	2
 2071 00c0 00000000 		.word	0
 2072 00c4 00000000 		.word	CLOCK__dispatch_250MS_Min
 2073              		.type	STATE_CLOCK_C_IS_EDITINGHOURS_Transitions, %object
 2074              		.size	STATE_CLOCK_C_IS_EDITINGHOURS_Transitions, 48
 2075              	STATE_CLOCK_C_IS_EDITINGHOURS_Transitions:
 2076 00c8 01       		.byte	1
 2077 00c9 02       		.byte	2
 2078 00ca 0000     		.space	2
 2079 00cc 00000000 		.word	0
 2080 00d0 00000000 		.word	CLOCK__dispatch_KL_HoursMin
 2081 00d4 02       		.byte	2
 2082 00d5 01       		.byte	1
 2083 00d6 0000     		.space	2
 2084 00d8 00000000 		.word	0
 2085 00dc 00000000 		.word	CLOCK__dispatch_KR_Hours
 2086 00e0 03       		.byte	3
 2087 00e1 01       		.byte	1
 2088 00e2 0000     		.space	2
 2089 00e4 00000000 		.word	0
 2090 00e8 00000000 		.word	CLOCK__dispatch_KRLP_Hours
 2091 00ec 05       		.byte	5
 2092 00ed 01       		.byte	1
 2093 00ee 0000     		.space	2
 2094 00f0 00000000 		.word	0
 2095 00f4 00000000 		.word	CLOCK__dispatch_250MS_Hours
 2096              		.type	STATE_CLOCK_C_IS_DISPLAYING_Transitions, %object
 2097              		.size	STATE_CLOCK_C_IS_DISPLAYING_Transitions, 24
 2098              	STATE_CLOCK_C_IS_DISPLAYING_Transitions:
 2099 00f8 01       		.byte	1
 2100 00f9 01       		.byte	1
 2101 00fa 0000     		.space	2
 2102 00fc 00000000 		.word	0
 2103 0100 00000000 		.word	CLOCK__dispatch_KL_Hours
ARM GAS  C:\Users\aditi\AppData\Local\Temp\ccxJli9U.s 			page 78


 2104 0104 04       		.byte	4
 2105 0105 00       		.byte	0
 2106 0106 0000     		.space	2
 2107 0108 00000000 		.word	0
 2108 010c 00000000 		.word	CLOCK__increment1Minute
 2109              		.section	.rodata.str1.4,"aMS",%progbits,1
 2110              		.align	2
 2111              	.LC0:
 2112 0000 496E2069 		.ascii	"In increment 1 minute function\012\000"
 2112      6E637265 
 2112      6D656E74 
 2112      2031206D 
 2112      696E7574 
 2113              	.LC1:
 2114 0020 496E2064 		.ascii	"In dispatch function hours widget\012\000"
 2114      69737061 
 2114      74636820 
 2114      66756E63 
 2114      74696F6E 
 2115 0043 00       		.space	1
 2116              	.LC2:
 2117 0044 496E2064 		.ascii	"In dispatch function minutes widget\012\000"
 2117      69737061 
 2117      74636820 
 2117      66756E63 
 2117      74696F6E 
 2118 0069 000000   		.space	3
 2119              	.LC3:
 2120 006c 496E2043 		.ascii	"In CLOCK__dispatch_250MS_Min function\012\000"
 2120      4C4F434B 
 2120      5F5F6469 
 2120      73706174 
 2120      63685F32 
 2121 0093 00       		.space	1
 2122              	.LC4:
 2123 0094 496E2043 		.ascii	"In CLOCK__dispatch_KRLP_Min function\012\000"
 2123      4C4F434B 
 2123      5F5F6469 
 2123      73706174 
 2123      63685F4B 
 2124 00ba 0000     		.space	2
 2125              	.LC5:
 2126 00bc 496E2043 		.ascii	"In CLOCK__dispatch_KR_Min function\012\000"
 2126      4C4F434B 
 2126      5F5F6469 
 2126      73706174 
 2126      63685F4B 
 2127              	.LC6:
 2128 00e0 496E2043 		.ascii	"In CLOCK__dispatch_KL_Min function\012\000"
 2128      4C4F434B 
 2128      5F5F6469 
 2128      73706174 
 2128      63685F4B 
 2129              	.LC7:
 2130 0104 496E2043 		.ascii	"In CLOCK__dispatch_250MS_Hours function\012\000"
 2130      4C4F434B 
 2130      5F5F6469 
ARM GAS  C:\Users\aditi\AppData\Local\Temp\ccxJli9U.s 			page 79


 2130      73706174 
 2130      63685F32 
 2131 012d 000000   		.space	3
 2132              	.LC8:
 2133 0130 496E2043 		.ascii	"In CLOCK__dispatch_KRLP_Hours function\012\000"
 2133      4C4F434B 
 2133      5F5F6469 
 2133      73706174 
 2133      63685F4B 
 2134              	.LC9:
 2135 0158 496E2043 		.ascii	"In CLOCK__dispatch_KR_Hours function\012\000"
 2135      4C4F434B 
 2135      5F5F6469 
 2135      73706174 
 2135      63685F4B 
 2136 017e 0000     		.space	2
 2137              	.LC10:
 2138 0180 496E2043 		.ascii	"In CLOCK__dispatch_KL_HoursMin function\012\000"
 2138      4C4F434B 
 2138      5F5F6469 
 2138      73706174 
 2138      63685F4B 
 2139 01a9 000000   		.space	3
 2140              	.LC11:
 2141 01ac 496E2043 		.ascii	"In CLOCK__dispatch_KL_Hours function\012\000"
 2141      4C4F434B 
 2141      5F5F6469 
 2141      73706174 
 2141      63685F4B 
 2142 01d2 0000     		.space	2
 2143              	.LC12:
 2144 01d4 496E2043 		.ascii	"In CLOCK__setEditFonts function\012\000"
 2144      4C4F434B 
 2144      5F5F7365 
 2144      74456469 
 2144      74466F6E 
 2145 01f5 000000   		.space	3
 2146              	.LC13:
 2147 01f8 496E2043 		.ascii	"In CLOCK__setDisplayFonts function\012\000"
 2147      4C4F434B 
 2147      5F5F7365 
 2147      74446973 
 2147      706C6179 
 2148              	.LC14:
 2149 021c 496E2043 		.ascii	"In CLOCK__incrementWidget function\012\000"
 2149      4C4F434B 
 2149      5F5F696E 
 2149      6372656D 
 2149      656E7457 
 2150              	.LC15:
 2151 0240 486F7572 		.ascii	"Hour value: \000"
 2151      2076616C 
 2151      75653A20 
 2151      00
 2152 024d 000000   		.space	3
 2153              	.LC16:
 2154 0250 4D696E75 		.ascii	"Minute value: \000"
ARM GAS  C:\Users\aditi\AppData\Local\Temp\ccxJli9U.s 			page 80


 2154      74652076 
 2154      616C7565 
 2154      3A2000
 2155 025f 00       		.space	1
 2156              	.LC17:
 2157 0260 53657474 		.ascii	"Setting 1 minute event\012\000"
 2157      696E6720 
 2157      31206D69 
 2157      6E757465 
 2157      20657665 
 2158              	.LC18:
 2159 0278 496E2063 		.ascii	"In control runnable\012\000"
 2159      6F6E7472 
 2159      6F6C2072 
 2159      756E6E61 
 2159      626C650A 
 2160 028d 000000   		.space	3
 2161              	.LC19:
 2162 0290 436F6D70 		.ascii	"Completed State Machine processing\012\000"
 2162      6C657465 
 2162      64205374 
 2162      61746520 
 2162      4D616368 
 2163              		.bss
 2164              		.align	1
 2165              		.set	.LANCHOR1,. + 0
 2166              		.type	runnableCount.7689, %object
 2167              		.size	runnableCount.7689, 2
 2168              	runnableCount.7689:
 2169 0000 0000     		.space	2
 2170              		.type	interruptFlag, %object
 2171              		.size	interruptFlag, 1
 2172              	interruptFlag:
 2173 0002 00       		.space	1
 2174              		.type	countVar.7691, %object
 2175              		.size	countVar.7691, 1
 2176              	countVar.7691:
 2177 0003 00       		.space	1
 2178              		.text
 2179              	.Letext0:
 2180              		.file 8 "c:\\program files (x86)\\cypress\\psoc creator\\4.4\\psoc creator\\import\\gnu\\arm\\5.4.
 2181              		.file 9 "c:\\program files (x86)\\cypress\\psoc creator\\4.4\\psoc creator\\import\\gnu\\arm\\5.4.
 2182              		.file 10 "c:\\program files (x86)\\cypress\\psoc creator\\4.4\\psoc creator\\import\\gnu\\arm\\5.4
 2183              		.file 11 "Generated_Source\\PSoC5/ErikaOS_common_ee_types.inc"
 2184              		.file 12 "Generated_Source\\PSoC5/ErikaOS_ee_oo_common.inc"
 2185              		.file 13 ".\\source\\bsw/global.h"
 2186              		.file 14 ".\\source\\rte/rte_types.h"
 2187              		.file 15 ".\\source\\rte/rte.h"
 2188              		.file 16 "source\\asw\\swc_clock.h"
 2189              		.file 17 ".\\source\\rte/sc_event_type.h"
 2190              		.file 18 ".\\source\\asw/statemachine.h"
 2191              		.file 19 ".\\source\\rte/sc_clock_type.h"
 2192              		.file 20 ".\\source\\bsw\\tft/tft.h"
 2193              		.file 21 ".\\source\\rte/sc_display_type.h"
 2194              		.file 22 "Generated_Source\\PSoC5/ErikaOS_ee_oo_intfunc.inc"
 2195              		.file 23 "Generated_Source\\PSoC5/ErikaOS_cortex_mx_ee_context.inc"
 2196              		.file 24 "Generated_Source\\PSoC5/ErikaOS_common_ee_primitives.inc"
ARM GAS  C:\Users\aditi\AppData\Local\Temp\ccxJli9U.s 			page 81


 2197              		.file 25 "Generated_Source\\PSoC5/core_cm3.h"
 2198              		.file 26 ".\\source\\rte/sp_common.h"
 2199              		.file 27 "Generated_Source\\PSoC5/ErikaOS_ee_oo_kernel.inc"
 2200              		.file 28 "Generated_Source\\PSoC5/UART_LOG.h"
 2201              		.file 29 "Generated_Source\\PSoC5/Pin_ButtonRight.h"
 2202              		.file 30 "Generated_Source\\PSoC5/Pin_ButtonLeft.h"
 2203              		.file 31 "Generated_Source\\PSoC5/ErikaOS_ee_oo_irq.inc"
 2204              		.file 32 "Generated_Source\\PSoC5/ErikaOS_cortex_mx_ee_irq.inc"
 2205              		.section	.debug_info,"",%progbits
 2206              	.Ldebug_info0:
 2207 0000 4D1C0000 		.4byte	0x1c4d
 2208 0004 0400     		.2byte	0x4
 2209 0006 00000000 		.4byte	.Ldebug_abbrev0
 2210 000a 04       		.byte	0x4
 2211 000b 01       		.uleb128 0x1
 2212 000c B5030000 		.4byte	.LASF245
 2213 0010 0C       		.byte	0xc
 2214 0011 88030000 		.4byte	.LASF246
 2215 0015 C1050000 		.4byte	.LASF247
 2216 0019 00000000 		.4byte	.Ldebug_ranges0+0
 2217 001d 00000000 		.4byte	0
 2218 0021 00000000 		.4byte	.Ldebug_line0
 2219 0025 02       		.uleb128 0x2
 2220 0026 01       		.byte	0x1
 2221 0027 06       		.byte	0x6
 2222 0028 DA040000 		.4byte	.LASF0
 2223 002c 03       		.uleb128 0x3
 2224 002d 33020000 		.4byte	.LASF3
 2225 0031 08       		.byte	0x8
 2226 0032 1D       		.byte	0x1d
 2227 0033 37000000 		.4byte	0x37
 2228 0037 02       		.uleb128 0x2
 2229 0038 01       		.byte	0x1
 2230 0039 08       		.byte	0x8
 2231 003a 4E050000 		.4byte	.LASF1
 2232 003e 02       		.uleb128 0x2
 2233 003f 02       		.byte	0x2
 2234 0040 05       		.byte	0x5
 2235 0041 BE0E0000 		.4byte	.LASF2
 2236 0045 03       		.uleb128 0x3
 2237 0046 4B060000 		.4byte	.LASF4
 2238 004a 08       		.byte	0x8
 2239 004b 2B       		.byte	0x2b
 2240 004c 50000000 		.4byte	0x50
 2241 0050 02       		.uleb128 0x2
 2242 0051 02       		.byte	0x2
 2243 0052 07       		.byte	0x7
 2244 0053 C00F0000 		.4byte	.LASF5
 2245 0057 03       		.uleb128 0x3
 2246 0058 EA0F0000 		.4byte	.LASF6
 2247 005c 08       		.byte	0x8
 2248 005d 3F       		.byte	0x3f
 2249 005e 62000000 		.4byte	0x62
 2250 0062 02       		.uleb128 0x2
 2251 0063 04       		.byte	0x4
 2252 0064 05       		.byte	0x5
 2253 0065 16030000 		.4byte	.LASF7
ARM GAS  C:\Users\aditi\AppData\Local\Temp\ccxJli9U.s 			page 82


 2254 0069 03       		.uleb128 0x3
 2255 006a 8E090000 		.4byte	.LASF8
 2256 006e 08       		.byte	0x8
 2257 006f 41       		.byte	0x41
 2258 0070 74000000 		.4byte	0x74
 2259 0074 02       		.uleb128 0x2
 2260 0075 04       		.byte	0x4
 2261 0076 07       		.byte	0x7
 2262 0077 BE080000 		.4byte	.LASF9
 2263 007b 02       		.uleb128 0x2
 2264 007c 08       		.byte	0x8
 2265 007d 05       		.byte	0x5
 2266 007e B2090000 		.4byte	.LASF10
 2267 0082 02       		.uleb128 0x2
 2268 0083 08       		.byte	0x8
 2269 0084 07       		.byte	0x7
 2270 0085 5B0C0000 		.4byte	.LASF11
 2271 0089 04       		.uleb128 0x4
 2272 008a 04       		.byte	0x4
 2273 008b 05       		.byte	0x5
 2274 008c 696E7400 		.ascii	"int\000"
 2275 0090 02       		.uleb128 0x2
 2276 0091 04       		.byte	0x4
 2277 0092 07       		.byte	0x7
 2278 0093 100B0000 		.4byte	.LASF12
 2279 0097 03       		.uleb128 0x3
 2280 0098 E6040000 		.4byte	.LASF13
 2281 009c 09       		.byte	0x9
 2282 009d 18       		.byte	0x18
 2283 009e 2C000000 		.4byte	0x2c
 2284 00a2 03       		.uleb128 0x3
 2285 00a3 900C0000 		.4byte	.LASF14
 2286 00a7 09       		.byte	0x9
 2287 00a8 24       		.byte	0x24
 2288 00a9 45000000 		.4byte	0x45
 2289 00ad 03       		.uleb128 0x3
 2290 00ae B3000000 		.4byte	.LASF15
 2291 00b2 09       		.byte	0x9
 2292 00b3 2C       		.byte	0x2c
 2293 00b4 57000000 		.4byte	0x57
 2294 00b8 03       		.uleb128 0x3
 2295 00b9 870F0000 		.4byte	.LASF16
 2296 00bd 09       		.byte	0x9
 2297 00be 30       		.byte	0x30
 2298 00bf 69000000 		.4byte	0x69
 2299 00c3 02       		.uleb128 0x2
 2300 00c4 04       		.byte	0x4
 2301 00c5 04       		.byte	0x4
 2302 00c6 A90A0000 		.4byte	.LASF17
 2303 00ca 02       		.uleb128 0x2
 2304 00cb 08       		.byte	0x8
 2305 00cc 04       		.byte	0x4
 2306 00cd 160A0000 		.4byte	.LASF18
 2307 00d1 02       		.uleb128 0x2
 2308 00d2 01       		.byte	0x1
 2309 00d3 08       		.byte	0x8
 2310 00d4 1E060000 		.4byte	.LASF19
ARM GAS  C:\Users\aditi\AppData\Local\Temp\ccxJli9U.s 			page 83


 2311 00d8 03       		.uleb128 0x3
 2312 00d9 3A000000 		.4byte	.LASF20
 2313 00dd 0A       		.byte	0xa
 2314 00de D8       		.byte	0xd8
 2315 00df 90000000 		.4byte	0x90
 2316 00e3 02       		.uleb128 0x2
 2317 00e4 08       		.byte	0x8
 2318 00e5 04       		.byte	0x4
 2319 00e6 E20B0000 		.4byte	.LASF21
 2320 00ea 03       		.uleb128 0x3
 2321 00eb 6D0E0000 		.4byte	.LASF22
 2322 00ef 0B       		.byte	0xb
 2323 00f0 53       		.byte	0x53
 2324 00f1 89000000 		.4byte	0x89
 2325 00f5 03       		.uleb128 0x3
 2326 00f6 1D0B0000 		.4byte	.LASF23
 2327 00fa 0B       		.byte	0xb
 2328 00fb 54       		.byte	0x54
 2329 00fc 90000000 		.4byte	0x90
 2330 0100 03       		.uleb128 0x3
 2331 0101 E2020000 		.4byte	.LASF24
 2332 0105 05       		.byte	0x5
 2333 0106 4D       		.byte	0x4d
 2334 0107 F5000000 		.4byte	0xf5
 2335 010b 03       		.uleb128 0x3
 2336 010c 360B0000 		.4byte	.LASF25
 2337 0110 05       		.byte	0x5
 2338 0111 4F       		.byte	0x4f
 2339 0112 F5000000 		.4byte	0xf5
 2340 0116 03       		.uleb128 0x3
 2341 0117 F60A0000 		.4byte	.LASF26
 2342 011b 05       		.byte	0x5
 2343 011c 54       		.byte	0x54
 2344 011d 00010000 		.4byte	0x100
 2345 0121 03       		.uleb128 0x3
 2346 0122 760E0000 		.4byte	.LASF27
 2347 0126 05       		.byte	0x5
 2348 0127 75       		.byte	0x75
 2349 0128 00010000 		.4byte	0x100
 2350 012c 03       		.uleb128 0x3
 2351 012d 5C0B0000 		.4byte	.LASF28
 2352 0131 05       		.byte	0x5
 2353 0132 78       		.byte	0x78
 2354 0133 EA000000 		.4byte	0xea
 2355 0137 05       		.uleb128 0x5
 2356 0138 A00A0000 		.4byte	.LASF29
 2357 013c 0C       		.byte	0xc
 2358 013d F701     		.2byte	0x1f7
 2359 013f 2C010000 		.4byte	0x12c
 2360 0143 05       		.uleb128 0x5
 2361 0144 080A0000 		.4byte	.LASF30
 2362 0148 0C       		.byte	0xc
 2363 0149 2C02     		.2byte	0x22c
 2364 014b 00010000 		.4byte	0x100
 2365 014f 02       		.uleb128 0x2
 2366 0150 04       		.byte	0x4
 2367 0151 07       		.byte	0x7
ARM GAS  C:\Users\aditi\AppData\Local\Temp\ccxJli9U.s 			page 84


 2368 0152 41000000 		.4byte	.LASF31
 2369 0156 03       		.uleb128 0x3
 2370 0157 46030000 		.4byte	.LASF32
 2371 015b 0D       		.byte	0xd
 2372 015c 9C       		.byte	0x9c
 2373 015d 37000000 		.4byte	0x37
 2374 0161 06       		.uleb128 0x6
 2375 0162 01       		.byte	0x1
 2376 0163 25000000 		.4byte	0x25
 2377 0167 0D       		.byte	0xd
 2378 0168 CF       		.byte	0xcf
 2379 0169 0A020000 		.4byte	0x20a
 2380 016d 07       		.uleb128 0x7
 2381 016e 500C0000 		.4byte	.LASF33
 2382 0172 00       		.byte	0
 2383 0173 08       		.uleb128 0x8
 2384 0174 52090000 		.4byte	.LASF34
 2385 0178 7F       		.sleb128 -1
 2386 0179 08       		.uleb128 0x8
 2387 017a 0A0F0000 		.4byte	.LASF35
 2388 017e 7E       		.sleb128 -2
 2389 017f 08       		.uleb128 0x8
 2390 0180 6B0F0000 		.4byte	.LASF36
 2391 0184 7D       		.sleb128 -3
 2392 0185 08       		.uleb128 0x8
 2393 0186 010C0000 		.4byte	.LASF37
 2394 018a 7C       		.sleb128 -4
 2395 018b 08       		.uleb128 0x8
 2396 018c C80E0000 		.4byte	.LASF38
 2397 0190 7B       		.sleb128 -5
 2398 0191 08       		.uleb128 0x8
 2399 0192 E50A0000 		.4byte	.LASF39
 2400 0196 7A       		.sleb128 -6
 2401 0197 08       		.uleb128 0x8
 2402 0198 AC0E0000 		.4byte	.LASF40
 2403 019c 79       		.sleb128 -7
 2404 019d 08       		.uleb128 0x8
 2405 019e 1D0C0000 		.4byte	.LASF41
 2406 01a2 78       		.sleb128 -8
 2407 01a3 08       		.uleb128 0x8
 2408 01a4 960E0000 		.4byte	.LASF42
 2409 01a8 77       		.sleb128 -9
 2410 01a9 08       		.uleb128 0x8
 2411 01aa BB000000 		.4byte	.LASF43
 2412 01ae 76       		.sleb128 -10
 2413 01af 08       		.uleb128 0x8
 2414 01b0 88080000 		.4byte	.LASF44
 2415 01b4 75       		.sleb128 -11
 2416 01b5 08       		.uleb128 0x8
 2417 01b6 70020000 		.4byte	.LASF45
 2418 01ba 74       		.sleb128 -12
 2419 01bb 08       		.uleb128 0x8
 2420 01bc 23000000 		.4byte	.LASF46
 2421 01c0 73       		.sleb128 -13
 2422 01c1 08       		.uleb128 0x8
 2423 01c2 D7080000 		.4byte	.LASF47
 2424 01c6 72       		.sleb128 -14
ARM GAS  C:\Users\aditi\AppData\Local\Temp\ccxJli9U.s 			page 85


 2425 01c7 08       		.uleb128 0x8
 2426 01c8 33100000 		.4byte	.LASF48
 2427 01cc 71       		.sleb128 -15
 2428 01cd 08       		.uleb128 0x8
 2429 01ce 4C0A0000 		.4byte	.LASF49
 2430 01d2 70       		.sleb128 -16
 2431 01d3 08       		.uleb128 0x8
 2432 01d4 D70E0000 		.4byte	.LASF50
 2433 01d8 6F       		.sleb128 -17
 2434 01d9 08       		.uleb128 0x8
 2435 01da 43040000 		.4byte	.LASF51
 2436 01de 6E       		.sleb128 -18
 2437 01df 08       		.uleb128 0x8
 2438 01e0 EE0B0000 		.4byte	.LASF52
 2439 01e4 6D       		.sleb128 -19
 2440 01e5 08       		.uleb128 0x8
 2441 01e6 37080000 		.4byte	.LASF53
 2442 01ea 6C       		.sleb128 -20
 2443 01eb 08       		.uleb128 0x8
 2444 01ec 6F0A0000 		.4byte	.LASF54
 2445 01f0 6B       		.sleb128 -21
 2446 01f1 08       		.uleb128 0x8
 2447 01f2 A5040000 		.4byte	.LASF55
 2448 01f6 6A       		.sleb128 -22
 2449 01f7 08       		.uleb128 0x8
 2450 01f8 D30F0000 		.4byte	.LASF56
 2451 01fc 69       		.sleb128 -23
 2452 01fd 08       		.uleb128 0x8
 2453 01fe 540E0000 		.4byte	.LASF57
 2454 0202 68       		.sleb128 -24
 2455 0203 08       		.uleb128 0x8
 2456 0204 A8050000 		.4byte	.LASF58
 2457 0208 67       		.sleb128 -25
 2458 0209 00       		.byte	0
 2459 020a 03       		.uleb128 0x3
 2460 020b 34030000 		.4byte	.LASF59
 2461 020f 0D       		.byte	0xd
 2462 0210 EA       		.byte	0xea
 2463 0211 61010000 		.4byte	0x161
 2464 0215 03       		.uleb128 0x3
 2465 0216 1F100000 		.4byte	.LASF60
 2466 021a 0E       		.byte	0xe
 2467 021b 19       		.byte	0x19
 2468 021c 20020000 		.4byte	0x220
 2469 0220 09       		.uleb128 0x9
 2470 0221 37010000 		.4byte	0x137
 2471 0225 2B020000 		.4byte	0x22b
 2472 0229 0A       		.uleb128 0xa
 2473 022a 00       		.byte	0
 2474 022b 03       		.uleb128 0x3
 2475 022c 55080000 		.4byte	.LASF61
 2476 0230 0E       		.byte	0xe
 2477 0231 21       		.byte	0x21
 2478 0232 43010000 		.4byte	0x143
 2479 0236 03       		.uleb128 0x3
 2480 0237 39030000 		.4byte	.LASF62
 2481 023b 0E       		.byte	0xe
ARM GAS  C:\Users\aditi\AppData\Local\Temp\ccxJli9U.s 			page 86


 2482 023c 2D       		.byte	0x2d
 2483 023d B8000000 		.4byte	0xb8
 2484 0241 06       		.uleb128 0x6
 2485 0242 01       		.byte	0x1
 2486 0243 37000000 		.4byte	0x37
 2487 0247 0F       		.byte	0xf
 2488 0248 59       		.byte	0x59
 2489 0249 66020000 		.4byte	0x266
 2490 024d 07       		.uleb128 0x7
 2491 024e 5F080000 		.4byte	.LASF63
 2492 0252 00       		.byte	0
 2493 0253 07       		.uleb128 0x7
 2494 0254 37010000 		.4byte	.LASF64
 2495 0258 01       		.byte	0x1
 2496 0259 07       		.uleb128 0x7
 2497 025a D5090000 		.4byte	.LASF65
 2498 025e 02       		.byte	0x2
 2499 025f 07       		.uleb128 0x7
 2500 0260 F10C0000 		.4byte	.LASF66
 2501 0264 03       		.byte	0x3
 2502 0265 00       		.byte	0
 2503 0266 03       		.uleb128 0x3
 2504 0267 520D0000 		.4byte	.LASF67
 2505 026b 0F       		.byte	0xf
 2506 026c 5E       		.byte	0x5e
 2507 026d 41020000 		.4byte	0x241
 2508 0271 06       		.uleb128 0x6
 2509 0272 01       		.byte	0x1
 2510 0273 37000000 		.4byte	0x37
 2511 0277 10       		.byte	0x10
 2512 0278 19       		.byte	0x19
 2513 0279 A2020000 		.4byte	0x2a2
 2514 027d 07       		.uleb128 0x7
 2515 027e 18020000 		.4byte	.LASF68
 2516 0282 00       		.byte	0
 2517 0283 07       		.uleb128 0x7
 2518 0284 31050000 		.4byte	.LASF69
 2519 0288 01       		.byte	0x1
 2520 0289 07       		.uleb128 0x7
 2521 028a 810A0000 		.4byte	.LASF70
 2522 028e 02       		.byte	0x2
 2523 028f 07       		.uleb128 0x7
 2524 0290 03060000 		.4byte	.LASF71
 2525 0294 03       		.byte	0x3
 2526 0295 07       		.uleb128 0x7
 2527 0296 650D0000 		.4byte	.LASF72
 2528 029a 04       		.byte	0x4
 2529 029b 07       		.uleb128 0x7
 2530 029c F4080000 		.4byte	.LASF73
 2531 02a0 05       		.byte	0x5
 2532 02a1 00       		.byte	0
 2533 02a2 03       		.uleb128 0x3
 2534 02a3 79070000 		.4byte	.LASF74
 2535 02a7 10       		.byte	0x10
 2536 02a8 20       		.byte	0x20
 2537 02a9 71020000 		.4byte	0x271
 2538 02ad 06       		.uleb128 0x6
ARM GAS  C:\Users\aditi\AppData\Local\Temp\ccxJli9U.s 			page 87


 2539 02ae 01       		.byte	0x1
 2540 02af 37000000 		.4byte	0x37
 2541 02b3 11       		.byte	0x11
 2542 02b4 1A       		.byte	0x1a
 2543 02b5 DE020000 		.4byte	0x2de
 2544 02b9 07       		.uleb128 0x7
 2545 02ba 1E080000 		.4byte	.LASF75
 2546 02be 00       		.byte	0
 2547 02bf 07       		.uleb128 0x7
 2548 02c0 4A080000 		.4byte	.LASF76
 2549 02c4 01       		.byte	0x1
 2550 02c5 07       		.uleb128 0x7
 2551 02c6 110C0000 		.4byte	.LASF77
 2552 02ca 02       		.byte	0x2
 2553 02cb 07       		.uleb128 0x7
 2554 02cc 7E020000 		.4byte	.LASF78
 2555 02d0 03       		.byte	0x3
 2556 02d1 07       		.uleb128 0x7
 2557 02d2 6A030000 		.4byte	.LASF79
 2558 02d6 04       		.byte	0x4
 2559 02d7 07       		.uleb128 0x7
 2560 02d8 430A0000 		.4byte	.LASF80
 2561 02dc 05       		.byte	0x5
 2562 02dd 00       		.byte	0
 2563 02de 03       		.uleb128 0x3
 2564 02df D40B0000 		.4byte	.LASF81
 2565 02e3 11       		.byte	0x11
 2566 02e4 21       		.byte	0x21
 2567 02e5 AD020000 		.4byte	0x2ad
 2568 02e9 0B       		.uleb128 0xb
 2569 02ea 01       		.byte	0x1
 2570 02eb 11       		.byte	0x11
 2571 02ec 27       		.byte	0x27
 2572 02ed FE020000 		.4byte	0x2fe
 2573 02f1 0C       		.uleb128 0xc
 2574 02f2 CF0B0000 		.4byte	.LASF85
 2575 02f6 11       		.byte	0x11
 2576 02f7 29       		.byte	0x29
 2577 02f8 DE020000 		.4byte	0x2de
 2578 02fc 00       		.byte	0
 2579 02fd 00       		.byte	0
 2580 02fe 03       		.uleb128 0x3
 2581 02ff C2060000 		.4byte	.LASF82
 2582 0303 11       		.byte	0x11
 2583 0304 2C       		.byte	0x2c
 2584 0305 E9020000 		.4byte	0x2e9
 2585 0309 03       		.uleb128 0x3
 2586 030a 900D0000 		.4byte	.LASF83
 2587 030e 12       		.byte	0x12
 2588 030f 33       		.byte	0x33
 2589 0310 14030000 		.4byte	0x314
 2590 0314 0D       		.uleb128 0xd
 2591 0315 04       		.byte	0x4
 2592 0316 1A030000 		.4byte	0x31a
 2593 031a 0E       		.uleb128 0xe
 2594 031b 21030000 		.4byte	0x321
 2595 031f 0F       		.uleb128 0xf
ARM GAS  C:\Users\aditi\AppData\Local\Temp\ccxJli9U.s 			page 88


 2596 0320 00       		.byte	0
 2597 0321 03       		.uleb128 0x3
 2598 0322 7D040000 		.4byte	.LASF84
 2599 0326 12       		.byte	0x12
 2600 0327 38       		.byte	0x38
 2601 0328 2C030000 		.4byte	0x32c
 2602 032c 0D       		.uleb128 0xd
 2603 032d 04       		.byte	0x4
 2604 032e 32030000 		.4byte	0x332
 2605 0332 10       		.uleb128 0x10
 2606 0333 56010000 		.4byte	0x156
 2607 0337 3D030000 		.4byte	0x33d
 2608 033b 0F       		.uleb128 0xf
 2609 033c 00       		.byte	0
 2610 033d 0B       		.uleb128 0xb
 2611 033e 0C       		.byte	0xc
 2612 033f 12       		.byte	0x12
 2613 0340 3F       		.byte	0x3f
 2614 0341 76030000 		.4byte	0x376
 2615 0345 0C       		.uleb128 0xc
 2616 0346 CB0A0000 		.4byte	.LASF86
 2617 034a 12       		.byte	0x12
 2618 034b 41       		.byte	0x41
 2619 034c DE020000 		.4byte	0x2de
 2620 0350 00       		.byte	0
 2621 0351 0C       		.uleb128 0xc
 2622 0352 A00B0000 		.4byte	.LASF87
 2623 0356 12       		.byte	0x12
 2624 0357 42       		.byte	0x42
 2625 0358 A2020000 		.4byte	0x2a2
 2626 035c 01       		.byte	0x1
 2627 035d 0C       		.uleb128 0xc
 2628 035e FA000000 		.4byte	.LASF88
 2629 0362 12       		.byte	0x12
 2630 0363 43       		.byte	0x43
 2631 0364 21030000 		.4byte	0x321
 2632 0368 04       		.byte	0x4
 2633 0369 0C       		.uleb128 0xc
 2634 036a EB0E0000 		.4byte	.LASF89
 2635 036e 12       		.byte	0x12
 2636 036f 44       		.byte	0x44
 2637 0370 09030000 		.4byte	0x309
 2638 0374 08       		.byte	0x8
 2639 0375 00       		.byte	0
 2640 0376 03       		.uleb128 0x3
 2641 0377 BD040000 		.4byte	.LASF90
 2642 037b 12       		.byte	0x12
 2643 037c 46       		.byte	0x46
 2644 037d 3D030000 		.4byte	0x33d
 2645 0381 09       		.uleb128 0x9
 2646 0382 76030000 		.4byte	0x376
 2647 0386 8C030000 		.4byte	0x38c
 2648 038a 0A       		.uleb128 0xa
 2649 038b 00       		.byte	0
 2650 038c 0B       		.uleb128 0xb
 2651 038d 0C       		.byte	0xc
 2652 038e 12       		.byte	0x12
ARM GAS  C:\Users\aditi\AppData\Local\Temp\ccxJli9U.s 			page 89


 2653 038f 4D       		.byte	0x4d
 2654 0390 B9030000 		.4byte	0x3b9
 2655 0394 0C       		.uleb128 0xc
 2656 0395 85000000 		.4byte	.LASF91
 2657 0399 12       		.byte	0x12
 2658 039a 4F       		.byte	0x4f
 2659 039b A2020000 		.4byte	0x2a2
 2660 039f 00       		.byte	0
 2661 03a0 0C       		.uleb128 0xc
 2662 03a1 9D000000 		.4byte	.LASF92
 2663 03a5 12       		.byte	0x12
 2664 03a6 50       		.byte	0x50
 2665 03a7 BF030000 		.4byte	0x3bf
 2666 03ab 04       		.byte	0x4
 2667 03ac 0C       		.uleb128 0xc
 2668 03ad 3C0C0000 		.4byte	.LASF93
 2669 03b1 12       		.byte	0x12
 2670 03b2 51       		.byte	0x51
 2671 03b3 C4030000 		.4byte	0x3c4
 2672 03b7 08       		.byte	0x8
 2673 03b8 00       		.byte	0
 2674 03b9 0D       		.uleb128 0xd
 2675 03ba 04       		.byte	0x4
 2676 03bb 81030000 		.4byte	0x381
 2677 03bf 11       		.uleb128 0x11
 2678 03c0 B9030000 		.4byte	0x3b9
 2679 03c4 11       		.uleb128 0x11
 2680 03c5 A2000000 		.4byte	0xa2
 2681 03c9 03       		.uleb128 0x3
 2682 03ca 71050000 		.4byte	.LASF94
 2683 03ce 12       		.byte	0x12
 2684 03cf 52       		.byte	0x52
 2685 03d0 8C030000 		.4byte	0x38c
 2686 03d4 03       		.uleb128 0x3
 2687 03d5 300F0000 		.4byte	.LASF95
 2688 03d9 12       		.byte	0x12
 2689 03da 54       		.byte	0x54
 2690 03db DF030000 		.4byte	0x3df
 2691 03df 09       		.uleb128 0x9
 2692 03e0 C9030000 		.4byte	0x3c9
 2693 03e4 EA030000 		.4byte	0x3ea
 2694 03e8 0A       		.uleb128 0xa
 2695 03e9 00       		.byte	0
 2696 03ea 06       		.uleb128 0x6
 2697 03eb 01       		.byte	0x1
 2698 03ec 37000000 		.4byte	0x37
 2699 03f0 13       		.byte	0x13
 2700 03f1 1A       		.byte	0x1a
 2701 03f2 03040000 		.4byte	0x403
 2702 03f6 07       		.uleb128 0x7
 2703 03f7 1D0A0000 		.4byte	.LASF96
 2704 03fb 00       		.byte	0
 2705 03fc 07       		.uleb128 0x7
 2706 03fd 3E090000 		.4byte	.LASF97
 2707 0401 01       		.byte	0x1
 2708 0402 00       		.byte	0
 2709 0403 03       		.uleb128 0x3
ARM GAS  C:\Users\aditi\AppData\Local\Temp\ccxJli9U.s 			page 90


 2710 0404 1B050000 		.4byte	.LASF98
 2711 0408 13       		.byte	0x13
 2712 0409 1D       		.byte	0x1d
 2713 040a EA030000 		.4byte	0x3ea
 2714 040e 0B       		.uleb128 0xb
 2715 040f 0C       		.byte	0xc
 2716 0410 13       		.byte	0x13
 2717 0411 1F       		.byte	0x1f
 2718 0412 3B040000 		.4byte	0x43b
 2719 0416 0C       		.uleb128 0xc
 2720 0417 5D0F0000 		.4byte	.LASF99
 2721 041b 13       		.byte	0x13
 2722 041c 20       		.byte	0x20
 2723 041d A2020000 		.4byte	0x2a2
 2724 0421 00       		.byte	0
 2725 0422 0C       		.uleb128 0xc
 2726 0423 8F000000 		.4byte	.LASF100
 2727 0427 13       		.byte	0x13
 2728 0428 21       		.byte	0x21
 2729 0429 3B040000 		.4byte	0x43b
 2730 042d 04       		.byte	0x4
 2731 042e 0C       		.uleb128 0xc
 2732 042f 80060000 		.4byte	.LASF101
 2733 0433 13       		.byte	0x13
 2734 0434 22       		.byte	0x22
 2735 0435 97000000 		.4byte	0x97
 2736 0439 08       		.byte	0x8
 2737 043a 00       		.byte	0
 2738 043b 0D       		.uleb128 0xd
 2739 043c 04       		.byte	0x4
 2740 043d D4030000 		.4byte	0x3d4
 2741 0441 03       		.uleb128 0x3
 2742 0442 72030000 		.4byte	.LASF102
 2743 0446 13       		.byte	0x13
 2744 0447 24       		.byte	0x24
 2745 0448 0E040000 		.4byte	0x40e
 2746 044c 0B       		.uleb128 0xb
 2747 044d 24       		.byte	0x24
 2748 044e 13       		.byte	0x13
 2749 044f 2A       		.byte	0x2a
 2750 0450 91040000 		.4byte	0x491
 2751 0454 0C       		.uleb128 0xc
 2752 0455 0A050000 		.4byte	.LASF103
 2753 0459 13       		.byte	0x13
 2754 045a 2C       		.byte	0x2c
 2755 045b A2020000 		.4byte	0x2a2
 2756 045f 00       		.byte	0
 2757 0460 0C       		.uleb128 0xc
 2758 0461 8F000000 		.4byte	.LASF100
 2759 0465 13       		.byte	0x13
 2760 0466 2D       		.byte	0x2d
 2761 0467 3B040000 		.4byte	0x43b
 2762 046b 04       		.byte	0x4
 2763 046c 0C       		.uleb128 0xc
 2764 046d E0010000 		.4byte	.LASF104
 2765 0471 13       		.byte	0x13
 2766 0472 2E       		.byte	0x2e
ARM GAS  C:\Users\aditi\AppData\Local\Temp\ccxJli9U.s 			page 91


 2767 0473 03040000 		.4byte	0x403
 2768 0477 08       		.byte	0x8
 2769 0478 0C       		.uleb128 0xc
 2770 0479 00000000 		.4byte	.LASF105
 2771 047d 13       		.byte	0x13
 2772 047e 2F       		.byte	0x2f
 2773 047f 41040000 		.4byte	0x441
 2774 0483 0C       		.byte	0xc
 2775 0484 0C       		.uleb128 0xc
 2776 0485 6B0B0000 		.4byte	.LASF106
 2777 0489 13       		.byte	0x13
 2778 048a 30       		.byte	0x30
 2779 048b 41040000 		.4byte	0x441
 2780 048f 18       		.byte	0x18
 2781 0490 00       		.byte	0
 2782 0491 03       		.uleb128 0x3
 2783 0492 06010000 		.4byte	.LASF107
 2784 0496 13       		.byte	0x13
 2785 0497 33       		.byte	0x33
 2786 0498 4C040000 		.4byte	0x44c
 2787 049c 06       		.uleb128 0x6
 2788 049d 02       		.byte	0x2
 2789 049e 50000000 		.4byte	0x50
 2790 04a2 14       		.byte	0x14
 2791 04a3 5C       		.byte	0x5c
 2792 04a4 3A050000 		.4byte	0x53a
 2793 04a8 12       		.uleb128 0x12
 2794 04a9 2D100000 		.4byte	.LASF108
 2795 04ad FFFF     		.2byte	0xffff
 2796 04af 07       		.uleb128 0x7
 2797 04b0 00010000 		.4byte	.LASF109
 2798 04b4 00       		.byte	0
 2799 04b5 12       		.uleb128 0x12
 2800 04b6 6A0A0000 		.4byte	.LASF110
 2801 04ba 00F8     		.2byte	0xf800
 2802 04bc 12       		.uleb128 0x12
 2803 04bd 05050000 		.4byte	.LASF111
 2804 04c1 1FF8     		.2byte	0xf81f
 2805 04c3 12       		.uleb128 0x12
 2806 04c4 A20D0000 		.4byte	.LASF112
 2807 04c8 FF07     		.2byte	0x7ff
 2808 04ca 12       		.uleb128 0x12
 2809 04cb F4000000 		.4byte	.LASF113
 2810 04cf E0FF     		.2byte	0xffe0
 2811 04d1 13       		.uleb128 0x13
 2812 04d2 52454400 		.ascii	"RED\000"
 2813 04d6 1F       		.byte	0x1f
 2814 04d7 12       		.uleb128 0x12
 2815 04d8 2F010000 		.4byte	.LASF114
 2816 04dc 1FF8     		.2byte	0xf81f
 2817 04de 12       		.uleb128 0x12
 2818 04df B7040000 		.4byte	.LASF115
 2819 04e3 E007     		.2byte	0x7e0
 2820 04e5 12       		.uleb128 0x12
 2821 04e6 35000000 		.4byte	.LASF116
 2822 04ea E0FF     		.2byte	0xffe0
 2823 04ec 12       		.uleb128 0x12
ARM GAS  C:\Users\aditi\AppData\Local\Temp\ccxJli9U.s 			page 92


 2824 04ed 81030000 		.4byte	.LASF117
 2825 04f1 FF07     		.2byte	0x7ff
 2826 04f3 12       		.uleb128 0x12
 2827 04f4 460B0000 		.4byte	.LASF118
 2828 04f8 3D02     		.2byte	0x23d
 2829 04fa 12       		.uleb128 0x12
 2830 04fb 560B0000 		.4byte	.LASF119
 2831 04ff 3FE0     		.2byte	0xe03f
 2832 0501 12       		.uleb128 0x12
 2833 0502 9B0B0000 		.4byte	.LASF120
 2834 0506 210C     		.2byte	0xc21
 2835 0508 12       		.uleb128 0x12
 2836 0509 85090000 		.4byte	.LASF121
 2837 050d 89F3     		.2byte	0xf389
 2838 050f 12       		.uleb128 0x12
 2839 0510 4C0B0000 		.4byte	.LASF122
 2840 0514 BE3E     		.2byte	0x3ebe
 2841 0516 12       		.uleb128 0x12
 2842 0517 B9060000 		.4byte	.LASF123
 2843 051b 2A1A     		.2byte	0x1a2a
 2844 051d 12       		.uleb128 0x12
 2845 051e 72040000 		.4byte	.LASF124
 2846 0522 21F8     		.2byte	0xf821
 2847 0524 12       		.uleb128 0x12
 2848 0525 8C070000 		.4byte	.LASF125
 2849 0529 6318     		.2byte	0x1863
 2850 052b 12       		.uleb128 0x12
 2851 052c 66020000 		.4byte	.LASF126
 2852 0530 658A     		.2byte	0x8a65
 2853 0532 12       		.uleb128 0x12
 2854 0533 65090000 		.4byte	.LASF127
 2855 0537 D448     		.2byte	0x48d4
 2856 0539 00       		.byte	0
 2857 053a 03       		.uleb128 0x3
 2858 053b 2F0A0000 		.4byte	.LASF128
 2859 053f 03       		.byte	0x3
 2860 0540 27       		.byte	0x27
 2861 0541 45050000 		.4byte	0x545
 2862 0545 0D       		.uleb128 0xd
 2863 0546 04       		.byte	0x4
 2864 0547 4B050000 		.4byte	0x54b
 2865 054b 14       		.uleb128 0x14
 2866 054c 0A020000 		.4byte	0x20a
 2867 0550 5A050000 		.4byte	0x55a
 2868 0554 15       		.uleb128 0x15
 2869 0555 60050000 		.4byte	0x560
 2870 0559 00       		.byte	0
 2871 055a 0D       		.uleb128 0xd
 2872 055b 04       		.byte	0x4
 2873 055c FE020000 		.4byte	0x2fe
 2874 0560 11       		.uleb128 0x11
 2875 0561 5A050000 		.4byte	0x55a
 2876 0565 03       		.uleb128 0x3
 2877 0566 860B0000 		.4byte	.LASF129
 2878 056a 03       		.byte	0x3
 2879 056b 2D       		.byte	0x2d
 2880 056c 70050000 		.4byte	0x570
ARM GAS  C:\Users\aditi\AppData\Local\Temp\ccxJli9U.s 			page 93


 2881 0570 0D       		.uleb128 0xd
 2882 0571 04       		.byte	0x4
 2883 0572 76050000 		.4byte	0x576
 2884 0576 14       		.uleb128 0x14
 2885 0577 0A020000 		.4byte	0x20a
 2886 057b 85050000 		.4byte	0x585
 2887 057f 15       		.uleb128 0x15
 2888 0580 90050000 		.4byte	0x590
 2889 0584 00       		.byte	0
 2890 0585 0D       		.uleb128 0xd
 2891 0586 04       		.byte	0x4
 2892 0587 8B050000 		.4byte	0x58b
 2893 058b 11       		.uleb128 0x11
 2894 058c FE020000 		.4byte	0x2fe
 2895 0590 11       		.uleb128 0x11
 2896 0591 85050000 		.4byte	0x585
 2897 0595 16       		.uleb128 0x16
 2898 0596 E8070000 		.4byte	.LASF141
 2899 059a 28       		.byte	0x28
 2900 059b 03       		.byte	0x3
 2901 059c 37       		.byte	0x37
 2902 059d 1A060000 		.4byte	0x61a
 2903 05a1 0C       		.uleb128 0xc
 2904 05a2 77060000 		.4byte	.LASF130
 2905 05a6 03       		.byte	0x3
 2906 05a7 3C       		.byte	0x3c
 2907 05a8 1A060000 		.4byte	0x61a
 2908 05ac 00       		.byte	0
 2909 05ad 0C       		.uleb128 0xc
 2910 05ae EA080000 		.4byte	.LASF131
 2911 05b2 03       		.byte	0x3
 2912 05b3 41       		.byte	0x41
 2913 05b4 1F060000 		.4byte	0x61f
 2914 05b8 04       		.byte	0x4
 2915 05b9 0C       		.uleb128 0xc
 2916 05ba E1000000 		.4byte	.LASF132
 2917 05be 03       		.byte	0x3
 2918 05bf 46       		.byte	0x46
 2919 05c0 24060000 		.4byte	0x624
 2920 05c4 08       		.byte	0x8
 2921 05c5 0C       		.uleb128 0xc
 2922 05c6 5B090000 		.4byte	.LASF133
 2923 05ca 03       		.byte	0x3
 2924 05cb 4C       		.byte	0x4c
 2925 05cc 24060000 		.4byte	0x624
 2926 05d0 0C       		.byte	0xc
 2927 05d1 0C       		.uleb128 0xc
 2928 05d2 D2060000 		.4byte	.LASF134
 2929 05d6 03       		.byte	0x3
 2930 05d7 51       		.byte	0x51
 2931 05d8 29060000 		.4byte	0x629
 2932 05dc 10       		.byte	0x10
 2933 05dd 0C       		.uleb128 0xc
 2934 05de 54010000 		.4byte	.LASF135
 2935 05e2 03       		.byte	0x3
 2936 05e3 56       		.byte	0x56
 2937 05e4 34060000 		.4byte	0x634
ARM GAS  C:\Users\aditi\AppData\Local\Temp\ccxJli9U.s 			page 94


 2938 05e8 14       		.byte	0x14
 2939 05e9 0C       		.uleb128 0xc
 2940 05ea 750B0000 		.4byte	.LASF136
 2941 05ee 03       		.byte	0x3
 2942 05ef 5B       		.byte	0x5b
 2943 05f0 29060000 		.4byte	0x629
 2944 05f4 18       		.byte	0x18
 2945 05f5 0C       		.uleb128 0xc
 2946 05f6 62010000 		.4byte	.LASF137
 2947 05fa 03       		.byte	0x3
 2948 05fb 60       		.byte	0x60
 2949 05fc 34060000 		.4byte	0x634
 2950 0600 1C       		.byte	0x1c
 2951 0601 0C       		.uleb128 0xc
 2952 0602 270B0000 		.4byte	.LASF138
 2953 0606 03       		.byte	0x3
 2954 0607 66       		.byte	0x66
 2955 0608 39060000 		.4byte	0x639
 2956 060c 20       		.byte	0x20
 2957 060d 0C       		.uleb128 0xc
 2958 060e 60070000 		.4byte	.LASF139
 2959 0612 03       		.byte	0x3
 2960 0613 6B       		.byte	0x6b
 2961 0614 3E060000 		.4byte	0x63e
 2962 0618 24       		.byte	0x24
 2963 0619 00       		.byte	0
 2964 061a 11       		.uleb128 0x11
 2965 061b 3A050000 		.4byte	0x53a
 2966 061f 11       		.uleb128 0x11
 2967 0620 65050000 		.4byte	0x565
 2968 0624 11       		.uleb128 0x11
 2969 0625 43010000 		.4byte	0x143
 2970 0629 11       		.uleb128 0x11
 2971 062a D8000000 		.4byte	0xd8
 2972 062e 0D       		.uleb128 0xd
 2973 062f 04       		.byte	0x4
 2974 0630 15020000 		.4byte	0x215
 2975 0634 11       		.uleb128 0x11
 2976 0635 2E060000 		.4byte	0x62e
 2977 0639 11       		.uleb128 0x11
 2978 063a 56010000 		.4byte	0x156
 2979 063e 11       		.uleb128 0x11
 2980 063f 36020000 		.4byte	0x236
 2981 0643 03       		.uleb128 0x3
 2982 0644 F7070000 		.4byte	.LASF140
 2983 0648 03       		.byte	0x3
 2984 0649 6E       		.byte	0x6e
 2985 064a 4E060000 		.4byte	0x64e
 2986 064e 11       		.uleb128 0x11
 2987 064f 95050000 		.4byte	0x595
 2988 0653 16       		.uleb128 0x16
 2989 0654 93010000 		.4byte	.LASF142
 2990 0658 0C       		.byte	0xc
 2991 0659 03       		.byte	0x3
 2992 065a 7A       		.byte	0x7a
 2993 065b 90060000 		.4byte	0x690
 2994 065f 0C       		.uleb128 0xc
ARM GAS  C:\Users\aditi\AppData\Local\Temp\ccxJli9U.s 			page 95


 2995 0660 0A0D0000 		.4byte	.LASF143
 2996 0664 03       		.byte	0x3
 2997 0665 80       		.byte	0x80
 2998 0666 FE020000 		.4byte	0x2fe
 2999 066a 00       		.byte	0
 3000 066b 0C       		.uleb128 0xc
 3001 066c D0080000 		.4byte	.LASF144
 3002 0670 03       		.byte	0x3
 3003 0671 85       		.byte	0x85
 3004 0672 66020000 		.4byte	0x266
 3005 0676 01       		.byte	0x1
 3006 0677 17       		.uleb128 0x17
 3007 0678 61676500 		.ascii	"age\000"
 3008 067c 03       		.byte	0x3
 3009 067d 8A       		.byte	0x8a
 3010 067e B8000000 		.4byte	0xb8
 3011 0682 04       		.byte	0x4
 3012 0683 0C       		.uleb128 0xc
 3013 0684 650E0000 		.4byte	.LASF145
 3014 0688 03       		.byte	0x3
 3015 0689 8F       		.byte	0x8f
 3016 068a 96060000 		.4byte	0x696
 3017 068e 08       		.byte	0x8
 3018 068f 00       		.byte	0
 3019 0690 0D       		.uleb128 0xd
 3020 0691 04       		.byte	0x4
 3021 0692 43060000 		.4byte	0x643
 3022 0696 11       		.uleb128 0x11
 3023 0697 90060000 		.4byte	0x690
 3024 069b 03       		.uleb128 0x3
 3025 069c 9E010000 		.4byte	.LASF146
 3026 06a0 03       		.byte	0x3
 3027 06a1 92       		.byte	0x92
 3028 06a2 53060000 		.4byte	0x653
 3029 06a6 03       		.uleb128 0x3
 3030 06a7 7F010000 		.4byte	.LASF147
 3031 06ab 02       		.byte	0x2
 3032 06ac 27       		.byte	0x27
 3033 06ad B1060000 		.4byte	0x6b1
 3034 06b1 0D       		.uleb128 0xd
 3035 06b2 04       		.byte	0x4
 3036 06b3 B7060000 		.4byte	0x6b7
 3037 06b7 14       		.uleb128 0x14
 3038 06b8 0A020000 		.4byte	0x20a
 3039 06bc C6060000 		.4byte	0x6c6
 3040 06c0 15       		.uleb128 0x15
 3041 06c1 CC060000 		.4byte	0x6cc
 3042 06c5 00       		.byte	0
 3043 06c6 0D       		.uleb128 0xd
 3044 06c7 04       		.byte	0x4
 3045 06c8 91040000 		.4byte	0x491
 3046 06cc 11       		.uleb128 0x11
 3047 06cd C6060000 		.4byte	0x6c6
 3048 06d1 03       		.uleb128 0x3
 3049 06d2 1F030000 		.4byte	.LASF148
 3050 06d6 02       		.byte	0x2
 3051 06d7 2D       		.byte	0x2d
ARM GAS  C:\Users\aditi\AppData\Local\Temp\ccxJli9U.s 			page 96


 3052 06d8 DC060000 		.4byte	0x6dc
 3053 06dc 0D       		.uleb128 0xd
 3054 06dd 04       		.byte	0x4
 3055 06de E2060000 		.4byte	0x6e2
 3056 06e2 14       		.uleb128 0x14
 3057 06e3 0A020000 		.4byte	0x20a
 3058 06e7 F1060000 		.4byte	0x6f1
 3059 06eb 15       		.uleb128 0x15
 3060 06ec FC060000 		.4byte	0x6fc
 3061 06f0 00       		.byte	0
 3062 06f1 0D       		.uleb128 0xd
 3063 06f2 04       		.byte	0x4
 3064 06f3 F7060000 		.4byte	0x6f7
 3065 06f7 11       		.uleb128 0x11
 3066 06f8 91040000 		.4byte	0x491
 3067 06fc 11       		.uleb128 0x11
 3068 06fd F1060000 		.4byte	0x6f1
 3069 0701 16       		.uleb128 0x16
 3070 0702 32070000 		.4byte	.LASF149
 3071 0706 28       		.byte	0x28
 3072 0707 02       		.byte	0x2
 3073 0708 37       		.byte	0x37
 3074 0709 86070000 		.4byte	0x786
 3075 070d 0C       		.uleb128 0xc
 3076 070e 77060000 		.4byte	.LASF130
 3077 0712 02       		.byte	0x2
 3078 0713 3C       		.byte	0x3c
 3079 0714 86070000 		.4byte	0x786
 3080 0718 00       		.byte	0
 3081 0719 0C       		.uleb128 0xc
 3082 071a EA080000 		.4byte	.LASF131
 3083 071e 02       		.byte	0x2
 3084 071f 41       		.byte	0x41
 3085 0720 8B070000 		.4byte	0x78b
 3086 0724 04       		.byte	0x4
 3087 0725 0C       		.uleb128 0xc
 3088 0726 E1000000 		.4byte	.LASF132
 3089 072a 02       		.byte	0x2
 3090 072b 46       		.byte	0x46
 3091 072c 24060000 		.4byte	0x624
 3092 0730 08       		.byte	0x8
 3093 0731 0C       		.uleb128 0xc
 3094 0732 5B090000 		.4byte	.LASF133
 3095 0736 02       		.byte	0x2
 3096 0737 4C       		.byte	0x4c
 3097 0738 24060000 		.4byte	0x624
 3098 073c 0C       		.byte	0xc
 3099 073d 0C       		.uleb128 0xc
 3100 073e D2060000 		.4byte	.LASF134
 3101 0742 02       		.byte	0x2
 3102 0743 51       		.byte	0x51
 3103 0744 29060000 		.4byte	0x629
 3104 0748 10       		.byte	0x10
 3105 0749 0C       		.uleb128 0xc
 3106 074a 54010000 		.4byte	.LASF135
 3107 074e 02       		.byte	0x2
 3108 074f 56       		.byte	0x56
ARM GAS  C:\Users\aditi\AppData\Local\Temp\ccxJli9U.s 			page 97


 3109 0750 34060000 		.4byte	0x634
 3110 0754 14       		.byte	0x14
 3111 0755 0C       		.uleb128 0xc
 3112 0756 750B0000 		.4byte	.LASF136
 3113 075a 02       		.byte	0x2
 3114 075b 5B       		.byte	0x5b
 3115 075c 29060000 		.4byte	0x629
 3116 0760 18       		.byte	0x18
 3117 0761 0C       		.uleb128 0xc
 3118 0762 62010000 		.4byte	.LASF137
 3119 0766 02       		.byte	0x2
 3120 0767 60       		.byte	0x60
 3121 0768 34060000 		.4byte	0x634
 3122 076c 1C       		.byte	0x1c
 3123 076d 0C       		.uleb128 0xc
 3124 076e 270B0000 		.4byte	.LASF138
 3125 0772 02       		.byte	0x2
 3126 0773 66       		.byte	0x66
 3127 0774 39060000 		.4byte	0x639
 3128 0778 20       		.byte	0x20
 3129 0779 0C       		.uleb128 0xc
 3130 077a 60070000 		.4byte	.LASF139
 3131 077e 02       		.byte	0x2
 3132 077f 6B       		.byte	0x6b
 3133 0780 3E060000 		.4byte	0x63e
 3134 0784 24       		.byte	0x24
 3135 0785 00       		.byte	0
 3136 0786 11       		.uleb128 0x11
 3137 0787 A6060000 		.4byte	0x6a6
 3138 078b 11       		.uleb128 0x11
 3139 078c D1060000 		.4byte	0x6d1
 3140 0790 03       		.uleb128 0x3
 3141 0791 41070000 		.4byte	.LASF150
 3142 0795 02       		.byte	0x2
 3143 0796 6E       		.byte	0x6e
 3144 0797 9B070000 		.4byte	0x79b
 3145 079b 11       		.uleb128 0x11
 3146 079c 01070000 		.4byte	0x701
 3147 07a0 16       		.uleb128 0x16
 3148 07a1 B90B0000 		.4byte	.LASF151
 3149 07a5 30       		.byte	0x30
 3150 07a6 02       		.byte	0x2
 3151 07a7 7A       		.byte	0x7a
 3152 07a8 DD070000 		.4byte	0x7dd
 3153 07ac 0C       		.uleb128 0xc
 3154 07ad 0A0D0000 		.4byte	.LASF143
 3155 07b1 02       		.byte	0x2
 3156 07b2 80       		.byte	0x80
 3157 07b3 91040000 		.4byte	0x491
 3158 07b7 00       		.byte	0
 3159 07b8 0C       		.uleb128 0xc
 3160 07b9 D0080000 		.4byte	.LASF144
 3161 07bd 02       		.byte	0x2
 3162 07be 85       		.byte	0x85
 3163 07bf 66020000 		.4byte	0x266
 3164 07c3 24       		.byte	0x24
 3165 07c4 17       		.uleb128 0x17
ARM GAS  C:\Users\aditi\AppData\Local\Temp\ccxJli9U.s 			page 98


 3166 07c5 61676500 		.ascii	"age\000"
 3167 07c9 02       		.byte	0x2
 3168 07ca 8A       		.byte	0x8a
 3169 07cb B8000000 		.4byte	0xb8
 3170 07cf 28       		.byte	0x28
 3171 07d0 0C       		.uleb128 0xc
 3172 07d1 650E0000 		.4byte	.LASF145
 3173 07d5 02       		.byte	0x2
 3174 07d6 8F       		.byte	0x8f
 3175 07d7 E3070000 		.4byte	0x7e3
 3176 07db 2C       		.byte	0x2c
 3177 07dc 00       		.byte	0
 3178 07dd 0D       		.uleb128 0xd
 3179 07de 04       		.byte	0x4
 3180 07df 90070000 		.4byte	0x790
 3181 07e3 11       		.uleb128 0x11
 3182 07e4 DD070000 		.4byte	0x7dd
 3183 07e8 03       		.uleb128 0x3
 3184 07e9 C40B0000 		.4byte	.LASF152
 3185 07ed 02       		.byte	0x2
 3186 07ee 92       		.byte	0x92
 3187 07ef A0070000 		.4byte	0x7a0
 3188 07f3 0B       		.uleb128 0xb
 3189 07f4 02       		.byte	0x2
 3190 07f5 15       		.byte	0x15
 3191 07f6 1A       		.byte	0x1a
 3192 07f7 14080000 		.4byte	0x814
 3193 07fb 0C       		.uleb128 0xc
 3194 07fc 01070000 		.4byte	.LASF153
 3195 0800 15       		.byte	0x15
 3196 0801 1B       		.byte	0x1b
 3197 0802 97000000 		.4byte	0x97
 3198 0806 00       		.byte	0
 3199 0807 0C       		.uleb128 0xc
 3200 0808 320C0000 		.4byte	.LASF154
 3201 080c 15       		.byte	0x15
 3202 080d 1C       		.byte	0x1c
 3203 080e 97000000 		.4byte	0x97
 3204 0812 01       		.byte	0x1
 3205 0813 00       		.byte	0
 3206 0814 03       		.uleb128 0x3
 3207 0815 69070000 		.4byte	.LASF155
 3208 0819 15       		.byte	0x15
 3209 081a 1D       		.byte	0x1d
 3210 081b F3070000 		.4byte	0x7f3
 3211 081f 0B       		.uleb128 0xb
 3212 0820 04       		.byte	0x4
 3213 0821 15       		.byte	0x15
 3214 0822 22       		.byte	0x22
 3215 0823 40080000 		.4byte	0x840
 3216 0827 0C       		.uleb128 0xc
 3217 0828 900F0000 		.4byte	.LASF156
 3218 082c 15       		.byte	0x15
 3219 082d 24       		.byte	0x24
 3220 082e 14080000 		.4byte	0x814
 3221 0832 00       		.byte	0
 3222 0833 0C       		.uleb128 0xc
ARM GAS  C:\Users\aditi\AppData\Local\Temp\ccxJli9U.s 			page 99


 3223 0834 630B0000 		.4byte	.LASF157
 3224 0838 15       		.byte	0x15
 3225 0839 25       		.byte	0x25
 3226 083a 14080000 		.4byte	0x814
 3227 083e 02       		.byte	0x2
 3228 083f 00       		.byte	0
 3229 0840 03       		.uleb128 0x3
 3230 0841 E4060000 		.4byte	.LASF158
 3231 0845 15       		.byte	0x15
 3232 0846 28       		.byte	0x28
 3233 0847 1F080000 		.4byte	0x81f
 3234 084b 03       		.uleb128 0x3
 3235 084c 9F030000 		.4byte	.LASF159
 3236 0850 04       		.byte	0x4
 3237 0851 27       		.byte	0x27
 3238 0852 56080000 		.4byte	0x856
 3239 0856 0D       		.uleb128 0xd
 3240 0857 04       		.byte	0x4
 3241 0858 5C080000 		.4byte	0x85c
 3242 085c 14       		.uleb128 0x14
 3243 085d 0A020000 		.4byte	0x20a
 3244 0861 6B080000 		.4byte	0x86b
 3245 0865 15       		.uleb128 0x15
 3246 0866 71080000 		.4byte	0x871
 3247 086a 00       		.byte	0
 3248 086b 0D       		.uleb128 0xd
 3249 086c 04       		.byte	0x4
 3250 086d 40080000 		.4byte	0x840
 3251 0871 11       		.uleb128 0x11
 3252 0872 6B080000 		.4byte	0x86b
 3253 0876 03       		.uleb128 0x3
 3254 0877 93020000 		.4byte	.LASF160
 3255 087b 04       		.byte	0x4
 3256 087c 2D       		.byte	0x2d
 3257 087d 81080000 		.4byte	0x881
 3258 0881 0D       		.uleb128 0xd
 3259 0882 04       		.byte	0x4
 3260 0883 87080000 		.4byte	0x887
 3261 0887 14       		.uleb128 0x14
 3262 0888 0A020000 		.4byte	0x20a
 3263 088c 96080000 		.4byte	0x896
 3264 0890 15       		.uleb128 0x15
 3265 0891 A1080000 		.4byte	0x8a1
 3266 0895 00       		.byte	0
 3267 0896 0D       		.uleb128 0xd
 3268 0897 04       		.byte	0x4
 3269 0898 9C080000 		.4byte	0x89c
 3270 089c 11       		.uleb128 0x11
 3271 089d 40080000 		.4byte	0x840
 3272 08a1 11       		.uleb128 0x11
 3273 08a2 96080000 		.4byte	0x896
 3274 08a6 16       		.uleb128 0x16
 3275 08a7 320E0000 		.4byte	.LASF161
 3276 08ab 28       		.byte	0x28
 3277 08ac 04       		.byte	0x4
 3278 08ad 37       		.byte	0x37
 3279 08ae 2B090000 		.4byte	0x92b
ARM GAS  C:\Users\aditi\AppData\Local\Temp\ccxJli9U.s 			page 100


 3280 08b2 0C       		.uleb128 0xc
 3281 08b3 77060000 		.4byte	.LASF130
 3282 08b7 04       		.byte	0x4
 3283 08b8 3C       		.byte	0x3c
 3284 08b9 2B090000 		.4byte	0x92b
 3285 08bd 00       		.byte	0
 3286 08be 0C       		.uleb128 0xc
 3287 08bf EA080000 		.4byte	.LASF131
 3288 08c3 04       		.byte	0x4
 3289 08c4 41       		.byte	0x41
 3290 08c5 30090000 		.4byte	0x930
 3291 08c9 04       		.byte	0x4
 3292 08ca 0C       		.uleb128 0xc
 3293 08cb E1000000 		.4byte	.LASF132
 3294 08cf 04       		.byte	0x4
 3295 08d0 46       		.byte	0x46
 3296 08d1 24060000 		.4byte	0x624
 3297 08d5 08       		.byte	0x8
 3298 08d6 0C       		.uleb128 0xc
 3299 08d7 5B090000 		.4byte	.LASF133
 3300 08db 04       		.byte	0x4
 3301 08dc 4C       		.byte	0x4c
 3302 08dd 24060000 		.4byte	0x624
 3303 08e1 0C       		.byte	0xc
 3304 08e2 0C       		.uleb128 0xc
 3305 08e3 D2060000 		.4byte	.LASF134
 3306 08e7 04       		.byte	0x4
 3307 08e8 51       		.byte	0x51
 3308 08e9 29060000 		.4byte	0x629
 3309 08ed 10       		.byte	0x10
 3310 08ee 0C       		.uleb128 0xc
 3311 08ef 54010000 		.4byte	.LASF135
 3312 08f3 04       		.byte	0x4
 3313 08f4 56       		.byte	0x56
 3314 08f5 34060000 		.4byte	0x634
 3315 08f9 14       		.byte	0x14
 3316 08fa 0C       		.uleb128 0xc
 3317 08fb 750B0000 		.4byte	.LASF136
 3318 08ff 04       		.byte	0x4
 3319 0900 5B       		.byte	0x5b
 3320 0901 29060000 		.4byte	0x629
 3321 0905 18       		.byte	0x18
 3322 0906 0C       		.uleb128 0xc
 3323 0907 62010000 		.4byte	.LASF137
 3324 090b 04       		.byte	0x4
 3325 090c 60       		.byte	0x60
 3326 090d 34060000 		.4byte	0x634
 3327 0911 1C       		.byte	0x1c
 3328 0912 0C       		.uleb128 0xc
 3329 0913 270B0000 		.4byte	.LASF138
 3330 0917 04       		.byte	0x4
 3331 0918 66       		.byte	0x66
 3332 0919 39060000 		.4byte	0x639
 3333 091d 20       		.byte	0x20
 3334 091e 0C       		.uleb128 0xc
 3335 091f 60070000 		.4byte	.LASF139
 3336 0923 04       		.byte	0x4
ARM GAS  C:\Users\aditi\AppData\Local\Temp\ccxJli9U.s 			page 101


 3337 0924 6B       		.byte	0x6b
 3338 0925 3E060000 		.4byte	0x63e
 3339 0929 24       		.byte	0x24
 3340 092a 00       		.byte	0
 3341 092b 11       		.uleb128 0x11
 3342 092c 4B080000 		.4byte	0x84b
 3343 0930 11       		.uleb128 0x11
 3344 0931 76080000 		.4byte	0x876
 3345 0935 03       		.uleb128 0x3
 3346 0936 430E0000 		.4byte	.LASF162
 3347 093a 04       		.byte	0x4
 3348 093b 6E       		.byte	0x6e
 3349 093c 40090000 		.4byte	0x940
 3350 0940 11       		.uleb128 0x11
 3351 0941 A6080000 		.4byte	0x8a6
 3352 0945 16       		.uleb128 0x16
 3353 0946 5D060000 		.4byte	.LASF163
 3354 094a 10       		.byte	0x10
 3355 094b 04       		.byte	0x4
 3356 094c 7A       		.byte	0x7a
 3357 094d 82090000 		.4byte	0x982
 3358 0951 0C       		.uleb128 0xc
 3359 0952 0A0D0000 		.4byte	.LASF143
 3360 0956 04       		.byte	0x4
 3361 0957 80       		.byte	0x80
 3362 0958 40080000 		.4byte	0x840
 3363 095c 00       		.byte	0
 3364 095d 0C       		.uleb128 0xc
 3365 095e D0080000 		.4byte	.LASF144
 3366 0962 04       		.byte	0x4
 3367 0963 85       		.byte	0x85
 3368 0964 66020000 		.4byte	0x266
 3369 0968 04       		.byte	0x4
 3370 0969 17       		.uleb128 0x17
 3371 096a 61676500 		.ascii	"age\000"
 3372 096e 04       		.byte	0x4
 3373 096f 8A       		.byte	0x8a
 3374 0970 B8000000 		.4byte	0xb8
 3375 0974 08       		.byte	0x8
 3376 0975 0C       		.uleb128 0xc
 3377 0976 650E0000 		.4byte	.LASF145
 3378 097a 04       		.byte	0x4
 3379 097b 8F       		.byte	0x8f
 3380 097c 88090000 		.4byte	0x988
 3381 0980 0C       		.byte	0xc
 3382 0981 00       		.byte	0
 3383 0982 0D       		.uleb128 0xd
 3384 0983 04       		.byte	0x4
 3385 0984 35090000 		.4byte	0x935
 3386 0988 11       		.uleb128 0x11
 3387 0989 82090000 		.4byte	0x982
 3388 098d 03       		.uleb128 0x3
 3389 098e 6A060000 		.4byte	.LASF164
 3390 0992 04       		.byte	0x4
 3391 0993 92       		.byte	0x92
 3392 0994 45090000 		.4byte	0x945
 3393 0998 18       		.uleb128 0x18
ARM GAS  C:\Users\aditi\AppData\Local\Temp\ccxJli9U.s 			page 102


 3394 0999 93100000 		.4byte	.LASF165
 3395 099d 02       		.byte	0x2
 3396 099e 0601     		.2byte	0x106
 3397 09a0 91040000 		.4byte	0x491
 3398 09a4 03       		.byte	0x3
 3399 09a5 B6090000 		.4byte	0x9b6
 3400 09a9 19       		.uleb128 0x19
 3401 09aa 56060000 		.4byte	.LASF167
 3402 09ae 02       		.byte	0x2
 3403 09af 0601     		.2byte	0x106
 3404 09b1 C1090000 		.4byte	0x9c1
 3405 09b5 00       		.byte	0
 3406 09b6 0D       		.uleb128 0xd
 3407 09b7 04       		.byte	0x4
 3408 09b8 BC090000 		.4byte	0x9bc
 3409 09bc 11       		.uleb128 0x11
 3410 09bd E8070000 		.4byte	0x7e8
 3411 09c1 11       		.uleb128 0x11
 3412 09c2 B6090000 		.4byte	0x9b6
 3413 09c6 18       		.uleb128 0x18
 3414 09c7 9A080000 		.4byte	.LASF166
 3415 09cb 02       		.byte	0x2
 3416 09cc 2901     		.2byte	0x129
 3417 09ce 0A020000 		.4byte	0x20a
 3418 09d2 03       		.byte	0x3
 3419 09d3 220A0000 		.4byte	0xa22
 3420 09d7 19       		.uleb128 0x19
 3421 09d8 56060000 		.4byte	.LASF167
 3422 09dc 02       		.byte	0x2
 3423 09dd 2901     		.2byte	0x129
 3424 09df 280A0000 		.4byte	0xa28
 3425 09e3 19       		.uleb128 0x19
 3426 09e4 0A0D0000 		.4byte	.LASF143
 3427 09e8 02       		.byte	0x2
 3428 09e9 2901     		.2byte	0x129
 3429 09eb F7060000 		.4byte	0x6f7
 3430 09ef 1A       		.uleb128 0x1a
 3431 09f0 72657400 		.ascii	"ret\000"
 3432 09f4 02       		.byte	0x2
 3433 09f5 2C01     		.2byte	0x12c
 3434 09f7 0A020000 		.4byte	0x20a
 3435 09fb 1B       		.uleb128 0x1b
 3436 09fc B6080000 		.4byte	.LASF168
 3437 0a00 02       		.byte	0x2
 3438 0a01 2D01     		.2byte	0x12d
 3439 0a03 D8000000 		.4byte	0xd8
 3440 0a07 1B       		.uleb128 0x1b
 3441 0a08 F6060000 		.4byte	.LASF169
 3442 0a0c 02       		.byte	0x2
 3443 0a0d 3701     		.2byte	0x137
 3444 0a0f 2E060000 		.4byte	0x62e
 3445 0a13 1C       		.uleb128 0x1c
 3446 0a14 1B       		.uleb128 0x1b
 3447 0a15 87070000 		.4byte	.LASF170
 3448 0a19 02       		.byte	0x2
 3449 0a1a 3C01     		.2byte	0x13c
 3450 0a1c 37010000 		.4byte	0x137
ARM GAS  C:\Users\aditi\AppData\Local\Temp\ccxJli9U.s 			page 103


 3451 0a20 00       		.byte	0
 3452 0a21 00       		.byte	0
 3453 0a22 0D       		.uleb128 0xd
 3454 0a23 04       		.byte	0x4
 3455 0a24 E8070000 		.4byte	0x7e8
 3456 0a28 11       		.uleb128 0x11
 3457 0a29 220A0000 		.4byte	0xa22
 3458 0a2d 18       		.uleb128 0x18
 3459 0a2e 26080000 		.4byte	.LASF171
 3460 0a32 03       		.byte	0x3
 3461 0a33 2901     		.2byte	0x129
 3462 0a35 0A020000 		.4byte	0x20a
 3463 0a39 03       		.byte	0x3
 3464 0a3a 890A0000 		.4byte	0xa89
 3465 0a3e 19       		.uleb128 0x19
 3466 0a3f 56060000 		.4byte	.LASF167
 3467 0a43 03       		.byte	0x3
 3468 0a44 2901     		.2byte	0x129
 3469 0a46 8F0A0000 		.4byte	0xa8f
 3470 0a4a 19       		.uleb128 0x19
 3471 0a4b 0A0D0000 		.4byte	.LASF143
 3472 0a4f 03       		.byte	0x3
 3473 0a50 2901     		.2byte	0x129
 3474 0a52 8B050000 		.4byte	0x58b
 3475 0a56 1A       		.uleb128 0x1a
 3476 0a57 72657400 		.ascii	"ret\000"
 3477 0a5b 03       		.byte	0x3
 3478 0a5c 2C01     		.2byte	0x12c
 3479 0a5e 0A020000 		.4byte	0x20a
 3480 0a62 1B       		.uleb128 0x1b
 3481 0a63 B6080000 		.4byte	.LASF168
 3482 0a67 03       		.byte	0x3
 3483 0a68 2D01     		.2byte	0x12d
 3484 0a6a D8000000 		.4byte	0xd8
 3485 0a6e 1B       		.uleb128 0x1b
 3486 0a6f F6060000 		.4byte	.LASF169
 3487 0a73 03       		.byte	0x3
 3488 0a74 3701     		.2byte	0x137
 3489 0a76 2E060000 		.4byte	0x62e
 3490 0a7a 1C       		.uleb128 0x1c
 3491 0a7b 1B       		.uleb128 0x1b
 3492 0a7c 87070000 		.4byte	.LASF170
 3493 0a80 03       		.byte	0x3
 3494 0a81 3C01     		.2byte	0x13c
 3495 0a83 37010000 		.4byte	0x137
 3496 0a87 00       		.byte	0
 3497 0a88 00       		.byte	0
 3498 0a89 0D       		.uleb128 0xd
 3499 0a8a 04       		.byte	0x4
 3500 0a8b 9B060000 		.4byte	0x69b
 3501 0a8f 11       		.uleb128 0x11
 3502 0a90 890A0000 		.4byte	0xa89
 3503 0a94 18       		.uleb128 0x18
 3504 0a95 47100000 		.4byte	.LASF172
 3505 0a99 03       		.byte	0x3
 3506 0a9a 0601     		.2byte	0x106
 3507 0a9c FE020000 		.4byte	0x2fe
ARM GAS  C:\Users\aditi\AppData\Local\Temp\ccxJli9U.s 			page 104


 3508 0aa0 03       		.byte	0x3
 3509 0aa1 B20A0000 		.4byte	0xab2
 3510 0aa5 19       		.uleb128 0x19
 3511 0aa6 56060000 		.4byte	.LASF167
 3512 0aaa 03       		.byte	0x3
 3513 0aab 0601     		.2byte	0x106
 3514 0aad BD0A0000 		.4byte	0xabd
 3515 0ab1 00       		.byte	0
 3516 0ab2 0D       		.uleb128 0xd
 3517 0ab3 04       		.byte	0x4
 3518 0ab4 B80A0000 		.4byte	0xab8
 3519 0ab8 11       		.uleb128 0x11
 3520 0ab9 9B060000 		.4byte	0x69b
 3521 0abd 11       		.uleb128 0x11
 3522 0abe B20A0000 		.4byte	0xab2
 3523 0ac2 18       		.uleb128 0x18
 3524 0ac3 C9000000 		.4byte	.LASF173
 3525 0ac7 04       		.byte	0x4
 3526 0ac8 7201     		.2byte	0x172
 3527 0aca 0A020000 		.4byte	0x20a
 3528 0ace 03       		.byte	0x3
 3529 0acf EC0A0000 		.4byte	0xaec
 3530 0ad3 19       		.uleb128 0x19
 3531 0ad4 56060000 		.4byte	.LASF167
 3532 0ad8 04       		.byte	0x4
 3533 0ad9 7201     		.2byte	0x172
 3534 0adb F70A0000 		.4byte	0xaf7
 3535 0adf 1A       		.uleb128 0x1a
 3536 0ae0 72657400 		.ascii	"ret\000"
 3537 0ae4 04       		.byte	0x4
 3538 0ae5 7401     		.2byte	0x174
 3539 0ae7 0A020000 		.4byte	0x20a
 3540 0aeb 00       		.byte	0
 3541 0aec 0D       		.uleb128 0xd
 3542 0aed 04       		.byte	0x4
 3543 0aee F20A0000 		.4byte	0xaf2
 3544 0af2 11       		.uleb128 0x11
 3545 0af3 8D090000 		.4byte	0x98d
 3546 0af7 11       		.uleb128 0x11
 3547 0af8 EC0A0000 		.4byte	0xaec
 3548 0afc 18       		.uleb128 0x18
 3549 0afd 31060000 		.4byte	.LASF174
 3550 0b01 04       		.byte	0x4
 3551 0b02 2901     		.2byte	0x129
 3552 0b04 0A020000 		.4byte	0x20a
 3553 0b08 03       		.byte	0x3
 3554 0b09 580B0000 		.4byte	0xb58
 3555 0b0d 19       		.uleb128 0x19
 3556 0b0e 56060000 		.4byte	.LASF167
 3557 0b12 04       		.byte	0x4
 3558 0b13 2901     		.2byte	0x129
 3559 0b15 5E0B0000 		.4byte	0xb5e
 3560 0b19 19       		.uleb128 0x19
 3561 0b1a 0A0D0000 		.4byte	.LASF143
 3562 0b1e 04       		.byte	0x4
 3563 0b1f 2901     		.2byte	0x129
 3564 0b21 9C080000 		.4byte	0x89c
ARM GAS  C:\Users\aditi\AppData\Local\Temp\ccxJli9U.s 			page 105


 3565 0b25 1A       		.uleb128 0x1a
 3566 0b26 72657400 		.ascii	"ret\000"
 3567 0b2a 04       		.byte	0x4
 3568 0b2b 2C01     		.2byte	0x12c
 3569 0b2d 0A020000 		.4byte	0x20a
 3570 0b31 1B       		.uleb128 0x1b
 3571 0b32 B6080000 		.4byte	.LASF168
 3572 0b36 04       		.byte	0x4
 3573 0b37 2D01     		.2byte	0x12d
 3574 0b39 D8000000 		.4byte	0xd8
 3575 0b3d 1B       		.uleb128 0x1b
 3576 0b3e F6060000 		.4byte	.LASF169
 3577 0b42 04       		.byte	0x4
 3578 0b43 3701     		.2byte	0x137
 3579 0b45 2E060000 		.4byte	0x62e
 3580 0b49 1C       		.uleb128 0x1c
 3581 0b4a 1B       		.uleb128 0x1b
 3582 0b4b 87070000 		.4byte	.LASF170
 3583 0b4f 04       		.byte	0x4
 3584 0b50 3C01     		.2byte	0x13c
 3585 0b52 37010000 		.4byte	0x137
 3586 0b56 00       		.byte	0
 3587 0b57 00       		.byte	0
 3588 0b58 0D       		.uleb128 0xd
 3589 0b59 04       		.byte	0x4
 3590 0b5a 8D090000 		.4byte	0x98d
 3591 0b5e 11       		.uleb128 0x11
 3592 0b5f 580B0000 		.4byte	0xb58
 3593 0b63 1D       		.uleb128 0x1d
 3594 0b64 88060000 		.4byte	.LASF176
 3595 0b68 06       		.byte	0x6
 3596 0b69 55       		.byte	0x55
 3597 0b6a 03       		.byte	0x3
 3598 0b6b 1E       		.uleb128 0x1e
 3599 0b6c D70C0000 		.4byte	.LASF248
 3600 0b70 05       		.byte	0x5
 3601 0b71 5701     		.2byte	0x157
 3602 0b73 03       		.byte	0x3
 3603 0b74 850B0000 		.4byte	0xb85
 3604 0b78 19       		.uleb128 0x19
 3605 0b79 DB010000 		.4byte	.LASF175
 3606 0b7d 05       		.byte	0x5
 3607 0b7e 5801     		.2byte	0x158
 3608 0b80 21010000 		.4byte	0x121
 3609 0b84 00       		.byte	0
 3610 0b85 1F       		.uleb128 0x1f
 3611 0b86 50030000 		.4byte	.LASF209
 3612 0b8a 05       		.byte	0x5
 3613 0b8b 2F01     		.2byte	0x12f
 3614 0b8d 21010000 		.4byte	0x121
 3615 0b91 03       		.byte	0x3
 3616 0b92 A30B0000 		.4byte	0xba3
 3617 0b96 1B       		.uleb128 0x1b
 3618 0b97 DB010000 		.4byte	.LASF175
 3619 0b9b 05       		.byte	0x5
 3620 0b9c 3401     		.2byte	0x134
 3621 0b9e 00010000 		.4byte	0x100
ARM GAS  C:\Users\aditi\AppData\Local\Temp\ccxJli9U.s 			page 106


 3622 0ba2 00       		.byte	0
 3623 0ba3 1D       		.uleb128 0x1d
 3624 0ba4 58100000 		.4byte	.LASF177
 3625 0ba8 05       		.byte	0x5
 3626 0ba9 C8       		.byte	0xc8
 3627 0baa 03       		.byte	0x3
 3628 0bab 20       		.uleb128 0x20
 3629 0bac D80D0000 		.4byte	.LASF249
 3630 0bb0 06       		.byte	0x6
 3631 0bb1 42       		.byte	0x42
 3632 0bb2 16010000 		.4byte	0x116
 3633 0bb6 03       		.byte	0x3
 3634 0bb7 1D       		.uleb128 0x1d
 3635 0bb8 3D020000 		.4byte	.LASF178
 3636 0bbc 06       		.byte	0x6
 3637 0bbd 54       		.byte	0x54
 3638 0bbe 03       		.byte	0x3
 3639 0bbf 1D       		.uleb128 0x1d
 3640 0bc0 6C090000 		.4byte	.LASF179
 3641 0bc4 06       		.byte	0x6
 3642 0bc5 64       		.byte	0x64
 3643 0bc6 03       		.byte	0x3
 3644 0bc7 1D       		.uleb128 0x1d
 3645 0bc8 7C100000 		.4byte	.LASF180
 3646 0bcc 05       		.byte	0x5
 3647 0bcd B4       		.byte	0xb4
 3648 0bce 03       		.byte	0x3
 3649 0bcf 1D       		.uleb128 0x1d
 3650 0bd0 0B070000 		.4byte	.LASF181
 3651 0bd4 07       		.byte	0x7
 3652 0bd5 42       		.byte	0x42
 3653 0bd6 03       		.byte	0x3
 3654 0bd7 21       		.uleb128 0x21
 3655 0bd8 180F0000 		.4byte	.LASF185
 3656 0bdc 01       		.byte	0x1
 3657 0bdd 7801     		.2byte	0x178
 3658 0bdf 00000000 		.4byte	.LFB147
 3659 0be3 B8000000 		.4byte	.LFE147-.LFB147
 3660 0be7 01       		.uleb128 0x1
 3661 0be8 9C       		.byte	0x9c
 3662 0be9 8B0C0000 		.4byte	0xc8b
 3663 0bed 22       		.uleb128 0x22
 3664 0bee 38090000 		.4byte	.LASF183
 3665 0bf2 01       		.byte	0x1
 3666 0bf3 7D01     		.2byte	0x17d
 3667 0bf5 91040000 		.4byte	0x491
 3668 0bf9 02       		.uleb128 0x2
 3669 0bfa 91       		.byte	0x91
 3670 0bfb 44       		.sleb128 -60
 3671 0bfc 23       		.uleb128 0x23
 3672 0bfd 98090000 		.4byte	0x998
 3673 0c01 0A000000 		.4byte	.LBB79
 3674 0c05 10000000 		.4byte	.LBE79-.LBB79
 3675 0c09 01       		.byte	0x1
 3676 0c0a 7D01     		.2byte	0x17d
 3677 0c0c 160C0000 		.4byte	0xc16
 3678 0c10 24       		.uleb128 0x24
ARM GAS  C:\Users\aditi\AppData\Local\Temp\ccxJli9U.s 			page 107


 3679 0c11 A9090000 		.4byte	0x9a9
 3680 0c15 00       		.byte	0
 3681 0c16 23       		.uleb128 0x23
 3682 0c17 C6090000 		.4byte	0x9c6
 3683 0c1b 6A000000 		.4byte	.LBB81
 3684 0c1f 42000000 		.4byte	.LBE81-.LBB81
 3685 0c23 01       		.byte	0x1
 3686 0c24 9301     		.2byte	0x193
 3687 0c26 770C0000 		.4byte	0xc77
 3688 0c2a 25       		.uleb128 0x25
 3689 0c2b E3090000 		.4byte	0x9e3
 3690 0c2f 03       		.uleb128 0x3
 3691 0c30 91       		.byte	0x91
 3692 0c31 A07F     		.sleb128 -96
 3693 0c33 24       		.uleb128 0x24
 3694 0c34 D7090000 		.4byte	0x9d7
 3695 0c38 26       		.uleb128 0x26
 3696 0c39 6A000000 		.4byte	.LBB82
 3697 0c3d 42000000 		.4byte	.LBE82-.LBB82
 3698 0c41 27       		.uleb128 0x27
 3699 0c42 EF090000 		.4byte	0x9ef
 3700 0c46 00       		.byte	0
 3701 0c47 28       		.uleb128 0x28
 3702 0c48 FB090000 		.4byte	0x9fb
 3703 0c4c 00000000 		.4byte	.LLST0
 3704 0c50 28       		.uleb128 0x28
 3705 0c51 070A0000 		.4byte	0xa07
 3706 0c55 36000000 		.4byte	.LLST1
 3707 0c59 26       		.uleb128 0x26
 3708 0c5a 92000000 		.4byte	.LBB83
 3709 0c5e 0A000000 		.4byte	.LBE83-.LBB83
 3710 0c62 28       		.uleb128 0x28
 3711 0c63 140A0000 		.4byte	0xa14
 3712 0c67 49000000 		.4byte	.LLST2
 3713 0c6b 29       		.uleb128 0x29
 3714 0c6c 9C000000 		.4byte	.LVL6
 3715 0c70 CA1B0000 		.4byte	0x1bca
 3716 0c74 00       		.byte	0
 3717 0c75 00       		.byte	0
 3718 0c76 00       		.byte	0
 3719 0c77 2A       		.uleb128 0x2a
 3720 0c78 0A000000 		.4byte	.LVL0
 3721 0c7c D61B0000 		.4byte	0x1bd6
 3722 0c80 2B       		.uleb128 0x2b
 3723 0c81 01       		.uleb128 0x1
 3724 0c82 50       		.byte	0x50
 3725 0c83 05       		.uleb128 0x5
 3726 0c84 03       		.byte	0x3
 3727 0c85 00000000 		.4byte	.LC0
 3728 0c89 00       		.byte	0
 3729 0c8a 00       		.byte	0
 3730 0c8b 2C       		.uleb128 0x2c
 3731 0c8c A70D0000 		.4byte	.LASF250
 3732 0c90 01       		.byte	0x1
 3733 0c91 4201     		.2byte	0x142
 3734 0c93 00000000 		.4byte	.LFB144
 3735 0c97 F4010000 		.4byte	.LFE144-.LFB144
ARM GAS  C:\Users\aditi\AppData\Local\Temp\ccxJli9U.s 			page 108


 3736 0c9b 01       		.uleb128 0x1
 3737 0c9c 9C       		.byte	0x9c
 3738 0c9d 100F0000 		.4byte	0xf10
 3739 0ca1 2D       		.uleb128 0x2d
 3740 0ca2 657600   		.ascii	"ev\000"
 3741 0ca5 01       		.byte	0x1
 3742 0ca6 4201     		.2byte	0x142
 3743 0ca8 DE020000 		.4byte	0x2de
 3744 0cac 62000000 		.4byte	.LLST3
 3745 0cb0 2E       		.uleb128 0x2e
 3746 0cb1 44060000 		.4byte	.LASF182
 3747 0cb5 01       		.byte	0x1
 3748 0cb6 4201     		.2byte	0x142
 3749 0cb8 03040000 		.4byte	0x403
 3750 0cbc 83000000 		.4byte	.LLST4
 3751 0cc0 22       		.uleb128 0x22
 3752 0cc1 38090000 		.4byte	.LASF183
 3753 0cc5 01       		.byte	0x1
 3754 0cc6 4501     		.2byte	0x145
 3755 0cc8 91040000 		.4byte	0x491
 3756 0ccc 03       		.uleb128 0x3
 3757 0ccd 91       		.byte	0x91
 3758 0cce BC7F     		.sleb128 -68
 3759 0cd0 23       		.uleb128 0x23
 3760 0cd1 98090000 		.4byte	0x998
 3761 0cd5 0A000000 		.4byte	.LBB84
 3762 0cd9 1C000000 		.4byte	.LBE84-.LBB84
 3763 0cdd 01       		.byte	0x1
 3764 0cde 4501     		.2byte	0x145
 3765 0ce0 EA0C0000 		.4byte	0xcea
 3766 0ce4 24       		.uleb128 0x24
 3767 0ce5 A9090000 		.4byte	0x9a9
 3768 0ce9 00       		.byte	0
 3769 0cea 23       		.uleb128 0x23
 3770 0ceb C6090000 		.4byte	0x9c6
 3771 0cef 46000000 		.4byte	.LBB86
 3772 0cf3 4E000000 		.4byte	.LBE86-.LBB86
 3773 0cf7 01       		.byte	0x1
 3774 0cf8 4B01     		.2byte	0x14b
 3775 0cfa 4B0D0000 		.4byte	0xd4b
 3776 0cfe 25       		.uleb128 0x25
 3777 0cff E3090000 		.4byte	0x9e3
 3778 0d03 03       		.uleb128 0x3
 3779 0d04 91       		.byte	0x91
 3780 0d05 887E     		.sleb128 -248
 3781 0d07 24       		.uleb128 0x24
 3782 0d08 D7090000 		.4byte	0x9d7
 3783 0d0c 26       		.uleb128 0x26
 3784 0d0d 46000000 		.4byte	.LBB87
 3785 0d11 4E000000 		.4byte	.LBE87-.LBB87
 3786 0d15 27       		.uleb128 0x27
 3787 0d16 EF090000 		.4byte	0x9ef
 3788 0d1a 00       		.byte	0
 3789 0d1b 28       		.uleb128 0x28
 3790 0d1c FB090000 		.4byte	0x9fb
 3791 0d20 A4000000 		.4byte	.LLST5
 3792 0d24 28       		.uleb128 0x28
ARM GAS  C:\Users\aditi\AppData\Local\Temp\ccxJli9U.s 			page 109


 3793 0d25 070A0000 		.4byte	0xa07
 3794 0d29 DA000000 		.4byte	.LLST6
 3795 0d2d 26       		.uleb128 0x26
 3796 0d2e 7A000000 		.4byte	.LBB88
 3797 0d32 0A000000 		.4byte	.LBE88-.LBB88
 3798 0d36 28       		.uleb128 0x28
 3799 0d37 140A0000 		.4byte	0xa14
 3800 0d3b ED000000 		.4byte	.LLST7
 3801 0d3f 29       		.uleb128 0x29
 3802 0d40 84000000 		.4byte	.LVL20
 3803 0d44 CA1B0000 		.4byte	0x1bca
 3804 0d48 00       		.byte	0
 3805 0d49 00       		.byte	0
 3806 0d4a 00       		.byte	0
 3807 0d4b 2F       		.uleb128 0x2f
 3808 0d4c 98000000 		.4byte	.LBB89
 3809 0d50 A2000000 		.4byte	.LBE89-.LBB89
 3810 0d54 2F0E0000 		.4byte	0xe2f
 3811 0d58 22       		.uleb128 0x22
 3812 0d59 AB080000 		.4byte	.LASF184
 3813 0d5d 01       		.byte	0x1
 3814 0d5e 5301     		.2byte	0x153
 3815 0d60 A2020000 		.4byte	0x2a2
 3816 0d64 03       		.uleb128 0x3
 3817 0d65 91       		.byte	0x91
 3818 0d66 987F     		.sleb128 -104
 3819 0d68 23       		.uleb128 0x23
 3820 0d69 98090000 		.4byte	0x998
 3821 0d6d B8000000 		.4byte	.LBB90
 3822 0d71 14000000 		.4byte	.LBE90-.LBB90
 3823 0d75 01       		.byte	0x1
 3824 0d76 5701     		.2byte	0x157
 3825 0d78 820D0000 		.4byte	0xd82
 3826 0d7c 24       		.uleb128 0x24
 3827 0d7d A9090000 		.4byte	0x9a9
 3828 0d81 00       		.byte	0
 3829 0d82 23       		.uleb128 0x23
 3830 0d83 C6090000 		.4byte	0x9c6
 3831 0d87 F2000000 		.4byte	.LBB92
 3832 0d8b 48000000 		.4byte	.LBE92-.LBB92
 3833 0d8f 01       		.byte	0x1
 3834 0d90 5B01     		.2byte	0x15b
 3835 0d92 E60D0000 		.4byte	0xde6
 3836 0d96 25       		.uleb128 0x25
 3837 0d97 E3090000 		.4byte	0x9e3
 3838 0d9b 03       		.uleb128 0x3
 3839 0d9c 91       		.byte	0x91
 3840 0d9d AC7E     		.sleb128 -212
 3841 0d9f 24       		.uleb128 0x24
 3842 0da0 D7090000 		.4byte	0x9d7
 3843 0da4 26       		.uleb128 0x26
 3844 0da5 F2000000 		.4byte	.LBB93
 3845 0da9 48000000 		.4byte	.LBE93-.LBB93
 3846 0dad 28       		.uleb128 0x28
 3847 0dae EF090000 		.4byte	0x9ef
 3848 0db2 06010000 		.4byte	.LLST8
 3849 0db6 28       		.uleb128 0x28
ARM GAS  C:\Users\aditi\AppData\Local\Temp\ccxJli9U.s 			page 110


 3850 0db7 FB090000 		.4byte	0x9fb
 3851 0dbb 1A010000 		.4byte	.LLST9
 3852 0dbf 28       		.uleb128 0x28
 3853 0dc0 070A0000 		.4byte	0xa07
 3854 0dc4 50010000 		.4byte	.LLST10
 3855 0dc8 26       		.uleb128 0x26
 3856 0dc9 1E010000 		.4byte	.LBB94
 3857 0dcd 0A000000 		.4byte	.LBE94-.LBB94
 3858 0dd1 28       		.uleb128 0x28
 3859 0dd2 140A0000 		.4byte	0xa14
 3860 0dd6 63010000 		.4byte	.LLST11
 3861 0dda 29       		.uleb128 0x29
 3862 0ddb 28010000 		.4byte	.LVL32
 3863 0ddf CA1B0000 		.4byte	0x1bca
 3864 0de3 00       		.byte	0
 3865 0de4 00       		.byte	0
 3866 0de5 00       		.byte	0
 3867 0de6 30       		.uleb128 0x30
 3868 0de7 9E000000 		.4byte	.LVL25
 3869 0deb D61B0000 		.4byte	0x1bd6
 3870 0def FD0D0000 		.4byte	0xdfd
 3871 0df3 2B       		.uleb128 0x2b
 3872 0df4 01       		.uleb128 0x1
 3873 0df5 50       		.byte	0x50
 3874 0df6 05       		.uleb128 0x5
 3875 0df7 03       		.byte	0x3
 3876 0df8 20000000 		.4byte	.LC1
 3877 0dfc 00       		.byte	0
 3878 0dfd 2A       		.uleb128 0x2a
 3879 0dfe B8000000 		.4byte	.LVL26
 3880 0e02 E11B0000 		.4byte	0x1be1
 3881 0e06 2B       		.uleb128 0x2b
 3882 0e07 01       		.uleb128 0x1
 3883 0e08 50       		.byte	0x50
 3884 0e09 05       		.uleb128 0x5
 3885 0e0a 03       		.byte	0x3
 3886 0e0b 00000000 		.4byte	.LANCHOR0
 3887 0e0f 2B       		.uleb128 0x2b
 3888 0e10 01       		.uleb128 0x1
 3889 0e11 51       		.byte	0x51
 3890 0e12 01       		.uleb128 0x1
 3891 0e13 33       		.byte	0x33
 3892 0e14 2B       		.uleb128 0x2b
 3893 0e15 01       		.uleb128 0x1
 3894 0e16 52       		.byte	0x52
 3895 0e17 01       		.uleb128 0x1
 3896 0e18 30       		.byte	0x30
 3897 0e19 2B       		.uleb128 0x2b
 3898 0e1a 01       		.uleb128 0x1
 3899 0e1b 53       		.byte	0x53
 3900 0e1c 01       		.uleb128 0x1
 3901 0e1d 30       		.byte	0x30
 3902 0e1e 2B       		.uleb128 0x2b
 3903 0e1f 02       		.uleb128 0x2
 3904 0e20 7D       		.byte	0x7d
 3905 0e21 00       		.sleb128 0
 3906 0e22 02       		.uleb128 0x2
ARM GAS  C:\Users\aditi\AppData\Local\Temp\ccxJli9U.s 			page 111


 3907 0e23 77       		.byte	0x77
 3908 0e24 00       		.sleb128 0
 3909 0e25 2B       		.uleb128 0x2b
 3910 0e26 02       		.uleb128 0x2
 3911 0e27 7D       		.byte	0x7d
 3912 0e28 04       		.sleb128 4
 3913 0e29 03       		.uleb128 0x3
 3914 0e2a 91       		.byte	0x91
 3915 0e2b 987F     		.sleb128 -104
 3916 0e2d 00       		.byte	0
 3917 0e2e 00       		.byte	0
 3918 0e2f 26       		.uleb128 0x26
 3919 0e30 3E010000 		.4byte	.LBB95
 3920 0e34 9E000000 		.4byte	.LBE95-.LBB95
 3921 0e38 22       		.uleb128 0x22
 3922 0e39 AB080000 		.4byte	.LASF184
 3923 0e3d 01       		.byte	0x1
 3924 0e3e 6001     		.2byte	0x160
 3925 0e40 A2020000 		.4byte	0x2a2
 3926 0e44 03       		.uleb128 0x3
 3927 0e45 91       		.byte	0x91
 3928 0e46 D07E     		.sleb128 -176
 3929 0e48 23       		.uleb128 0x23
 3930 0e49 98090000 		.4byte	0x998
 3931 0e4d 5E010000 		.4byte	.LBB96
 3932 0e51 14000000 		.4byte	.LBE96-.LBB96
 3933 0e55 01       		.byte	0x1
 3934 0e56 6401     		.2byte	0x164
 3935 0e58 620E0000 		.4byte	0xe62
 3936 0e5c 24       		.uleb128 0x24
 3937 0e5d A9090000 		.4byte	0x9a9
 3938 0e61 00       		.byte	0
 3939 0e62 23       		.uleb128 0x23
 3940 0e63 C6090000 		.4byte	0x9c6
 3941 0e67 98010000 		.4byte	.LBB98
 3942 0e6b 44000000 		.4byte	.LBE98-.LBB98
 3943 0e6f 01       		.byte	0x1
 3944 0e70 6801     		.2byte	0x168
 3945 0e72 C60E0000 		.4byte	0xec6
 3946 0e76 25       		.uleb128 0x25
 3947 0e77 E3090000 		.4byte	0x9e3
 3948 0e7b 03       		.uleb128 0x3
 3949 0e7c 91       		.byte	0x91
 3950 0e7d F47E     		.sleb128 -140
 3951 0e7f 24       		.uleb128 0x24
 3952 0e80 D7090000 		.4byte	0x9d7
 3953 0e84 26       		.uleb128 0x26
 3954 0e85 98010000 		.4byte	.LBB99
 3955 0e89 44000000 		.4byte	.LBE99-.LBB99
 3956 0e8d 28       		.uleb128 0x28
 3957 0e8e EF090000 		.4byte	0x9ef
 3958 0e92 7C010000 		.4byte	.LLST12
 3959 0e96 28       		.uleb128 0x28
 3960 0e97 FB090000 		.4byte	0x9fb
 3961 0e9b 90010000 		.4byte	.LLST13
 3962 0e9f 28       		.uleb128 0x28
 3963 0ea0 070A0000 		.4byte	0xa07
ARM GAS  C:\Users\aditi\AppData\Local\Temp\ccxJli9U.s 			page 112


 3964 0ea4 C6010000 		.4byte	.LLST14
 3965 0ea8 26       		.uleb128 0x26
 3966 0ea9 C2010000 		.4byte	.LBB100
 3967 0ead 0A000000 		.4byte	.LBE100-.LBB100
 3968 0eb1 28       		.uleb128 0x28
 3969 0eb2 140A0000 		.4byte	0xa14
 3970 0eb6 D9010000 		.4byte	.LLST15
 3971 0eba 29       		.uleb128 0x29
 3972 0ebb CC010000 		.4byte	.LVL44
 3973 0ebf CA1B0000 		.4byte	0x1bca
 3974 0ec3 00       		.byte	0
 3975 0ec4 00       		.byte	0
 3976 0ec5 00       		.byte	0
 3977 0ec6 30       		.uleb128 0x30
 3978 0ec7 44010000 		.4byte	.LVL37
 3979 0ecb D61B0000 		.4byte	0x1bd6
 3980 0ecf DD0E0000 		.4byte	0xedd
 3981 0ed3 2B       		.uleb128 0x2b
 3982 0ed4 01       		.uleb128 0x1
 3983 0ed5 50       		.byte	0x50
 3984 0ed6 05       		.uleb128 0x5
 3985 0ed7 03       		.byte	0x3
 3986 0ed8 44000000 		.4byte	.LC2
 3987 0edc 00       		.byte	0
 3988 0edd 2A       		.uleb128 0x2a
 3989 0ede 5E010000 		.4byte	.LVL38
 3990 0ee2 E11B0000 		.4byte	0x1be1
 3991 0ee6 2B       		.uleb128 0x2b
 3992 0ee7 01       		.uleb128 0x1
 3993 0ee8 50       		.byte	0x50
 3994 0ee9 05       		.uleb128 0x5
 3995 0eea 03       		.byte	0x3
 3996 0eeb 00000000 		.4byte	.LANCHOR0
 3997 0eef 2B       		.uleb128 0x2b
 3998 0ef0 01       		.uleb128 0x1
 3999 0ef1 51       		.byte	0x51
 4000 0ef2 01       		.uleb128 0x1
 4001 0ef3 33       		.byte	0x33
 4002 0ef4 2B       		.uleb128 0x2b
 4003 0ef5 01       		.uleb128 0x1
 4004 0ef6 52       		.byte	0x52
 4005 0ef7 01       		.uleb128 0x1
 4006 0ef8 30       		.byte	0x30
 4007 0ef9 2B       		.uleb128 0x2b
 4008 0efa 01       		.uleb128 0x1
 4009 0efb 53       		.byte	0x53
 4010 0efc 01       		.uleb128 0x1
 4011 0efd 30       		.byte	0x30
 4012 0efe 2B       		.uleb128 0x2b
 4013 0eff 02       		.uleb128 0x2
 4014 0f00 7D       		.byte	0x7d
 4015 0f01 00       		.sleb128 0
 4016 0f02 02       		.uleb128 0x2
 4017 0f03 77       		.byte	0x77
 4018 0f04 00       		.sleb128 0
 4019 0f05 2B       		.uleb128 0x2b
 4020 0f06 02       		.uleb128 0x2
ARM GAS  C:\Users\aditi\AppData\Local\Temp\ccxJli9U.s 			page 113


 4021 0f07 7D       		.byte	0x7d
 4022 0f08 04       		.sleb128 4
 4023 0f09 03       		.uleb128 0x3
 4024 0f0a 91       		.byte	0x91
 4025 0f0b D07E     		.sleb128 -176
 4026 0f0d 00       		.byte	0
 4027 0f0e 00       		.byte	0
 4028 0f0f 00       		.byte	0
 4029 0f10 21       		.uleb128 0x21
 4030 0f11 380D0000 		.4byte	.LASF186
 4031 0f15 01       		.byte	0x1
 4032 0f16 BD01     		.2byte	0x1bd
 4033 0f18 00000000 		.4byte	.LFB154
 4034 0f1c 18000000 		.4byte	.LFE154-.LFB154
 4035 0f20 01       		.uleb128 0x1
 4036 0f21 9C       		.byte	0x9c
 4037 0f22 520F0000 		.4byte	0xf52
 4038 0f26 30       		.uleb128 0x30
 4039 0f27 08000000 		.4byte	.LVL49
 4040 0f2b D61B0000 		.4byte	0x1bd6
 4041 0f2f 3D0F0000 		.4byte	0xf3d
 4042 0f33 2B       		.uleb128 0x2b
 4043 0f34 01       		.uleb128 0x1
 4044 0f35 50       		.byte	0x50
 4045 0f36 05       		.uleb128 0x5
 4046 0f37 03       		.byte	0x3
 4047 0f38 6C000000 		.4byte	.LC3
 4048 0f3c 00       		.byte	0
 4049 0f3d 2A       		.uleb128 0x2a
 4050 0f3e 10000000 		.4byte	.LVL50
 4051 0f42 8B0C0000 		.4byte	0xc8b
 4052 0f46 2B       		.uleb128 0x2b
 4053 0f47 01       		.uleb128 0x1
 4054 0f48 50       		.byte	0x50
 4055 0f49 01       		.uleb128 0x1
 4056 0f4a 35       		.byte	0x35
 4057 0f4b 2B       		.uleb128 0x2b
 4058 0f4c 01       		.uleb128 0x1
 4059 0f4d 51       		.byte	0x51
 4060 0f4e 01       		.uleb128 0x1
 4061 0f4f 31       		.byte	0x31
 4062 0f50 00       		.byte	0
 4063 0f51 00       		.byte	0
 4064 0f52 21       		.uleb128 0x21
 4065 0f53 BF0D0000 		.4byte	.LASF187
 4066 0f57 01       		.byte	0x1
 4067 0f58 B701     		.2byte	0x1b7
 4068 0f5a 00000000 		.4byte	.LFB153
 4069 0f5e 18000000 		.4byte	.LFE153-.LFB153
 4070 0f62 01       		.uleb128 0x1
 4071 0f63 9C       		.byte	0x9c
 4072 0f64 940F0000 		.4byte	0xf94
 4073 0f68 30       		.uleb128 0x30
 4074 0f69 08000000 		.4byte	.LVL51
 4075 0f6d D61B0000 		.4byte	0x1bd6
 4076 0f71 7F0F0000 		.4byte	0xf7f
 4077 0f75 2B       		.uleb128 0x2b
ARM GAS  C:\Users\aditi\AppData\Local\Temp\ccxJli9U.s 			page 114


 4078 0f76 01       		.uleb128 0x1
 4079 0f77 50       		.byte	0x50
 4080 0f78 05       		.uleb128 0x5
 4081 0f79 03       		.byte	0x3
 4082 0f7a 94000000 		.4byte	.LC4
 4083 0f7e 00       		.byte	0
 4084 0f7f 2A       		.uleb128 0x2a
 4085 0f80 10000000 		.4byte	.LVL52
 4086 0f84 8B0C0000 		.4byte	0xc8b
 4087 0f88 2B       		.uleb128 0x2b
 4088 0f89 01       		.uleb128 0x1
 4089 0f8a 50       		.byte	0x50
 4090 0f8b 01       		.uleb128 0x1
 4091 0f8c 33       		.byte	0x33
 4092 0f8d 2B       		.uleb128 0x2b
 4093 0f8e 01       		.uleb128 0x1
 4094 0f8f 51       		.byte	0x51
 4095 0f90 01       		.uleb128 0x1
 4096 0f91 31       		.byte	0x31
 4097 0f92 00       		.byte	0
 4098 0f93 00       		.byte	0
 4099 0f94 21       		.uleb128 0x21
 4100 0f95 EE040000 		.4byte	.LASF188
 4101 0f99 01       		.byte	0x1
 4102 0f9a B101     		.2byte	0x1b1
 4103 0f9c 00000000 		.4byte	.LFB152
 4104 0fa0 18000000 		.4byte	.LFE152-.LFB152
 4105 0fa4 01       		.uleb128 0x1
 4106 0fa5 9C       		.byte	0x9c
 4107 0fa6 D60F0000 		.4byte	0xfd6
 4108 0faa 30       		.uleb128 0x30
 4109 0fab 08000000 		.4byte	.LVL53
 4110 0faf D61B0000 		.4byte	0x1bd6
 4111 0fb3 C10F0000 		.4byte	0xfc1
 4112 0fb7 2B       		.uleb128 0x2b
 4113 0fb8 01       		.uleb128 0x1
 4114 0fb9 50       		.byte	0x50
 4115 0fba 05       		.uleb128 0x5
 4116 0fbb 03       		.byte	0x3
 4117 0fbc BC000000 		.4byte	.LC5
 4118 0fc0 00       		.byte	0
 4119 0fc1 2A       		.uleb128 0x2a
 4120 0fc2 10000000 		.4byte	.LVL54
 4121 0fc6 8B0C0000 		.4byte	0xc8b
 4122 0fca 2B       		.uleb128 0x2b
 4123 0fcb 01       		.uleb128 0x1
 4124 0fcc 50       		.byte	0x50
 4125 0fcd 01       		.uleb128 0x1
 4126 0fce 32       		.byte	0x32
 4127 0fcf 2B       		.uleb128 0x2b
 4128 0fd0 01       		.uleb128 0x1
 4129 0fd1 51       		.byte	0x51
 4130 0fd2 01       		.uleb128 0x1
 4131 0fd3 31       		.byte	0x31
 4132 0fd4 00       		.byte	0
 4133 0fd5 00       		.byte	0
 4134 0fd6 21       		.uleb128 0x21
ARM GAS  C:\Users\aditi\AppData\Local\Temp\ccxJli9U.s 			page 115


 4135 0fd7 CB020000 		.4byte	.LASF189
 4136 0fdb 01       		.byte	0x1
 4137 0fdc 7201     		.2byte	0x172
 4138 0fde 00000000 		.4byte	.LFB146
 4139 0fe2 18000000 		.4byte	.LFE146-.LFB146
 4140 0fe6 01       		.uleb128 0x1
 4141 0fe7 9C       		.byte	0x9c
 4142 0fe8 18100000 		.4byte	0x1018
 4143 0fec 30       		.uleb128 0x30
 4144 0fed 08000000 		.4byte	.LVL55
 4145 0ff1 D61B0000 		.4byte	0x1bd6
 4146 0ff5 03100000 		.4byte	0x1003
 4147 0ff9 2B       		.uleb128 0x2b
 4148 0ffa 01       		.uleb128 0x1
 4149 0ffb 50       		.byte	0x50
 4150 0ffc 05       		.uleb128 0x5
 4151 0ffd 03       		.byte	0x3
 4152 0ffe E0000000 		.4byte	.LC6
 4153 1002 00       		.byte	0
 4154 1003 2A       		.uleb128 0x2a
 4155 1004 10000000 		.4byte	.LVL56
 4156 1008 8B0C0000 		.4byte	0xc8b
 4157 100c 2B       		.uleb128 0x2b
 4158 100d 01       		.uleb128 0x1
 4159 100e 50       		.byte	0x50
 4160 100f 01       		.uleb128 0x1
 4161 1010 31       		.byte	0x31
 4162 1011 2B       		.uleb128 0x2b
 4163 1012 01       		.uleb128 0x1
 4164 1013 51       		.byte	0x51
 4165 1014 01       		.uleb128 0x1
 4166 1015 31       		.byte	0x31
 4167 1016 00       		.byte	0
 4168 1017 00       		.byte	0
 4169 1018 21       		.uleb128 0x21
 4170 1019 CC070000 		.4byte	.LASF190
 4171 101d 01       		.byte	0x1
 4172 101e AB01     		.2byte	0x1ab
 4173 1020 00000000 		.4byte	.LFB151
 4174 1024 18000000 		.4byte	.LFE151-.LFB151
 4175 1028 01       		.uleb128 0x1
 4176 1029 9C       		.byte	0x9c
 4177 102a 5A100000 		.4byte	0x105a
 4178 102e 30       		.uleb128 0x30
 4179 102f 08000000 		.4byte	.LVL57
 4180 1033 D61B0000 		.4byte	0x1bd6
 4181 1037 45100000 		.4byte	0x1045
 4182 103b 2B       		.uleb128 0x2b
 4183 103c 01       		.uleb128 0x1
 4184 103d 50       		.byte	0x50
 4185 103e 05       		.uleb128 0x5
 4186 103f 03       		.byte	0x3
 4187 1040 04010000 		.4byte	.LC7
 4188 1044 00       		.byte	0
 4189 1045 2A       		.uleb128 0x2a
 4190 1046 10000000 		.4byte	.LVL58
 4191 104a 8B0C0000 		.4byte	0xc8b
ARM GAS  C:\Users\aditi\AppData\Local\Temp\ccxJli9U.s 			page 116


 4192 104e 2B       		.uleb128 0x2b
 4193 104f 01       		.uleb128 0x1
 4194 1050 50       		.byte	0x50
 4195 1051 01       		.uleb128 0x1
 4196 1052 35       		.byte	0x35
 4197 1053 2B       		.uleb128 0x2b
 4198 1054 01       		.uleb128 0x1
 4199 1055 51       		.byte	0x51
 4200 1056 01       		.uleb128 0x1
 4201 1057 30       		.byte	0x30
 4202 1058 00       		.byte	0
 4203 1059 00       		.byte	0
 4204 105a 21       		.uleb128 0x21
 4205 105b 08000000 		.4byte	.LASF191
 4206 105f 01       		.byte	0x1
 4207 1060 A501     		.2byte	0x1a5
 4208 1062 00000000 		.4byte	.LFB150
 4209 1066 18000000 		.4byte	.LFE150-.LFB150
 4210 106a 01       		.uleb128 0x1
 4211 106b 9C       		.byte	0x9c
 4212 106c 9C100000 		.4byte	0x109c
 4213 1070 30       		.uleb128 0x30
 4214 1071 08000000 		.4byte	.LVL59
 4215 1075 D61B0000 		.4byte	0x1bd6
 4216 1079 87100000 		.4byte	0x1087
 4217 107d 2B       		.uleb128 0x2b
 4218 107e 01       		.uleb128 0x1
 4219 107f 50       		.byte	0x50
 4220 1080 05       		.uleb128 0x5
 4221 1081 03       		.byte	0x3
 4222 1082 30010000 		.4byte	.LC8
 4223 1086 00       		.byte	0
 4224 1087 2A       		.uleb128 0x2a
 4225 1088 10000000 		.4byte	.LVL60
 4226 108c 8B0C0000 		.4byte	0xc8b
 4227 1090 2B       		.uleb128 0x2b
 4228 1091 01       		.uleb128 0x1
 4229 1092 50       		.byte	0x50
 4230 1093 01       		.uleb128 0x1
 4231 1094 33       		.byte	0x33
 4232 1095 2B       		.uleb128 0x2b
 4233 1096 01       		.uleb128 0x1
 4234 1097 51       		.byte	0x51
 4235 1098 01       		.uleb128 0x1
 4236 1099 30       		.byte	0x30
 4237 109a 00       		.byte	0
 4238 109b 00       		.byte	0
 4239 109c 21       		.uleb128 0x21
 4240 109d 16010000 		.4byte	.LASF192
 4241 10a1 01       		.byte	0x1
 4242 10a2 9E01     		.2byte	0x19e
 4243 10a4 00000000 		.4byte	.LFB149
 4244 10a8 18000000 		.4byte	.LFE149-.LFB149
 4245 10ac 01       		.uleb128 0x1
 4246 10ad 9C       		.byte	0x9c
 4247 10ae DE100000 		.4byte	0x10de
 4248 10b2 30       		.uleb128 0x30
ARM GAS  C:\Users\aditi\AppData\Local\Temp\ccxJli9U.s 			page 117


 4249 10b3 08000000 		.4byte	.LVL61
 4250 10b7 D61B0000 		.4byte	0x1bd6
 4251 10bb C9100000 		.4byte	0x10c9
 4252 10bf 2B       		.uleb128 0x2b
 4253 10c0 01       		.uleb128 0x1
 4254 10c1 50       		.byte	0x50
 4255 10c2 05       		.uleb128 0x5
 4256 10c3 03       		.byte	0x3
 4257 10c4 58010000 		.4byte	.LC9
 4258 10c8 00       		.byte	0
 4259 10c9 2A       		.uleb128 0x2a
 4260 10ca 10000000 		.4byte	.LVL62
 4261 10ce 8B0C0000 		.4byte	0xc8b
 4262 10d2 2B       		.uleb128 0x2b
 4263 10d3 01       		.uleb128 0x1
 4264 10d4 50       		.byte	0x50
 4265 10d5 01       		.uleb128 0x1
 4266 10d6 32       		.byte	0x32
 4267 10d7 2B       		.uleb128 0x2b
 4268 10d8 01       		.uleb128 0x1
 4269 10d9 51       		.byte	0x51
 4270 10da 01       		.uleb128 0x1
 4271 10db 30       		.byte	0x30
 4272 10dc 00       		.byte	0
 4273 10dd 00       		.byte	0
 4274 10de 21       		.uleb128 0x21
 4275 10df AF0A0000 		.4byte	.LASF193
 4276 10e3 01       		.byte	0x1
 4277 10e4 9701     		.2byte	0x197
 4278 10e6 00000000 		.4byte	.LFB148
 4279 10ea 20000000 		.4byte	.LFE148-.LFB148
 4280 10ee 01       		.uleb128 0x1
 4281 10ef 9C       		.byte	0x9c
 4282 10f0 38110000 		.4byte	0x1138
 4283 10f4 30       		.uleb128 0x30
 4284 10f5 08000000 		.4byte	.LVL63
 4285 10f9 D61B0000 		.4byte	0x1bd6
 4286 10fd 0B110000 		.4byte	0x110b
 4287 1101 2B       		.uleb128 0x2b
 4288 1102 01       		.uleb128 0x1
 4289 1103 50       		.byte	0x50
 4290 1104 05       		.uleb128 0x5
 4291 1105 03       		.byte	0x3
 4292 1106 80010000 		.4byte	.LC10
 4293 110a 00       		.byte	0
 4294 110b 30       		.uleb128 0x30
 4295 110c 10000000 		.4byte	.LVL64
 4296 1110 8B0C0000 		.4byte	0xc8b
 4297 1114 23110000 		.4byte	0x1123
 4298 1118 2B       		.uleb128 0x2b
 4299 1119 01       		.uleb128 0x1
 4300 111a 50       		.byte	0x50
 4301 111b 01       		.uleb128 0x1
 4302 111c 31       		.byte	0x31
 4303 111d 2B       		.uleb128 0x2b
 4304 111e 01       		.uleb128 0x1
 4305 111f 51       		.byte	0x51
ARM GAS  C:\Users\aditi\AppData\Local\Temp\ccxJli9U.s 			page 118


 4306 1120 01       		.uleb128 0x1
 4307 1121 30       		.byte	0x30
 4308 1122 00       		.byte	0
 4309 1123 2A       		.uleb128 0x2a
 4310 1124 18000000 		.4byte	.LVL65
 4311 1128 8B0C0000 		.4byte	0xc8b
 4312 112c 2B       		.uleb128 0x2b
 4313 112d 01       		.uleb128 0x1
 4314 112e 50       		.byte	0x50
 4315 112f 01       		.uleb128 0x1
 4316 1130 31       		.byte	0x31
 4317 1131 2B       		.uleb128 0x2b
 4318 1132 01       		.uleb128 0x1
 4319 1133 51       		.byte	0x51
 4320 1134 01       		.uleb128 0x1
 4321 1135 31       		.byte	0x31
 4322 1136 00       		.byte	0
 4323 1137 00       		.byte	0
 4324 1138 21       		.uleb128 0x21
 4325 1139 1F090000 		.4byte	.LASF194
 4326 113d 01       		.byte	0x1
 4327 113e 6C01     		.2byte	0x16c
 4328 1140 00000000 		.4byte	.LFB145
 4329 1144 18000000 		.4byte	.LFE145-.LFB145
 4330 1148 01       		.uleb128 0x1
 4331 1149 9C       		.byte	0x9c
 4332 114a 7A110000 		.4byte	0x117a
 4333 114e 30       		.uleb128 0x30
 4334 114f 08000000 		.4byte	.LVL66
 4335 1153 D61B0000 		.4byte	0x1bd6
 4336 1157 65110000 		.4byte	0x1165
 4337 115b 2B       		.uleb128 0x2b
 4338 115c 01       		.uleb128 0x1
 4339 115d 50       		.byte	0x50
 4340 115e 05       		.uleb128 0x5
 4341 115f 03       		.byte	0x3
 4342 1160 AC010000 		.4byte	.LC11
 4343 1164 00       		.byte	0
 4344 1165 2A       		.uleb128 0x2a
 4345 1166 10000000 		.4byte	.LVL67
 4346 116a 8B0C0000 		.4byte	0xc8b
 4347 116e 2B       		.uleb128 0x2b
 4348 116f 01       		.uleb128 0x1
 4349 1170 50       		.byte	0x50
 4350 1171 01       		.uleb128 0x1
 4351 1172 31       		.byte	0x31
 4352 1173 2B       		.uleb128 0x2b
 4353 1174 01       		.uleb128 0x1
 4354 1175 51       		.byte	0x51
 4355 1176 01       		.uleb128 0x1
 4356 1177 30       		.byte	0x30
 4357 1178 00       		.byte	0
 4358 1179 00       		.byte	0
 4359 117a 21       		.uleb128 0x21
 4360 117b D10A0000 		.4byte	.LASF195
 4361 117f 01       		.byte	0x1
 4362 1180 C301     		.2byte	0x1c3
ARM GAS  C:\Users\aditi\AppData\Local\Temp\ccxJli9U.s 			page 119


 4363 1182 00000000 		.4byte	.LFB155
 4364 1186 98000000 		.4byte	.LFE155-.LFB155
 4365 118a 01       		.uleb128 0x1
 4366 118b 9C       		.byte	0x9c
 4367 118c DF120000 		.4byte	0x12df
 4368 1190 22       		.uleb128 0x22
 4369 1191 38090000 		.4byte	.LASF183
 4370 1195 01       		.byte	0x1
 4371 1196 C801     		.2byte	0x1c8
 4372 1198 91040000 		.4byte	0x491
 4373 119c 02       		.uleb128 0x2
 4374 119d 91       		.byte	0x91
 4375 119e 4C       		.sleb128 -52
 4376 119f 23       		.uleb128 0x23
 4377 11a0 98090000 		.4byte	0x998
 4378 11a4 0A000000 		.4byte	.LBB101
 4379 11a8 10000000 		.4byte	.LBE101-.LBB101
 4380 11ac 01       		.byte	0x1
 4381 11ad C801     		.2byte	0x1c8
 4382 11af B9110000 		.4byte	0x11b9
 4383 11b3 24       		.uleb128 0x24
 4384 11b4 A9090000 		.4byte	0x9a9
 4385 11b8 00       		.byte	0
 4386 11b9 30       		.uleb128 0x30
 4387 11ba 0A000000 		.4byte	.LVL68
 4388 11be D61B0000 		.4byte	0x1bd6
 4389 11c2 D0110000 		.4byte	0x11d0
 4390 11c6 2B       		.uleb128 0x2b
 4391 11c7 01       		.uleb128 0x1
 4392 11c8 50       		.byte	0x50
 4393 11c9 05       		.uleb128 0x5
 4394 11ca 03       		.byte	0x3
 4395 11cb D4010000 		.4byte	.LC12
 4396 11cf 00       		.byte	0
 4397 11d0 30       		.uleb128 0x30
 4398 11d1 28000000 		.4byte	.LVL70
 4399 11d5 EC1B0000 		.4byte	0x1bec
 4400 11d9 E9110000 		.4byte	0x11e9
 4401 11dd 2B       		.uleb128 0x2b
 4402 11de 01       		.uleb128 0x1
 4403 11df 50       		.byte	0x50
 4404 11e0 01       		.uleb128 0x1
 4405 11e1 48       		.byte	0x48
 4406 11e2 2B       		.uleb128 0x2b
 4407 11e3 01       		.uleb128 0x1
 4408 11e4 51       		.byte	0x51
 4409 11e5 02       		.uleb128 0x2
 4410 11e6 08       		.byte	0x8
 4411 11e7 49       		.byte	0x49
 4412 11e8 00       		.byte	0
 4413 11e9 30       		.uleb128 0x30
 4414 11ea 3A000000 		.4byte	.LVL71
 4415 11ee F81B0000 		.4byte	0x1bf8
 4416 11f2 14120000 		.4byte	0x1214
 4417 11f6 2B       		.uleb128 0x2b
 4418 11f7 01       		.uleb128 0x1
 4419 11f8 50       		.byte	0x50
ARM GAS  C:\Users\aditi\AppData\Local\Temp\ccxJli9U.s 			page 120


 4420 11f9 01       		.uleb128 0x1
 4421 11fa 48       		.byte	0x48
 4422 11fb 2B       		.uleb128 0x2b
 4423 11fc 01       		.uleb128 0x1
 4424 11fd 51       		.byte	0x51
 4425 11fe 02       		.uleb128 0x2
 4426 11ff 08       		.byte	0x8
 4427 1200 49       		.byte	0x49
 4428 1201 2B       		.uleb128 0x2b
 4429 1202 01       		.uleb128 0x1
 4430 1203 52       		.byte	0x52
 4431 1204 02       		.uleb128 0x2
 4432 1205 08       		.byte	0x8
 4433 1206 24       		.byte	0x24
 4434 1207 2B       		.uleb128 0x2b
 4435 1208 01       		.uleb128 0x1
 4436 1209 53       		.byte	0x53
 4437 120a 01       		.uleb128 0x1
 4438 120b 4B       		.byte	0x4b
 4439 120c 2B       		.uleb128 0x2b
 4440 120d 02       		.uleb128 0x2
 4441 120e 7D       		.byte	0x7d
 4442 120f 00       		.sleb128 0
 4443 1210 02       		.uleb128 0x2
 4444 1211 09       		.byte	0x9
 4445 1212 FF       		.byte	0xff
 4446 1213 00       		.byte	0
 4447 1214 30       		.uleb128 0x30
 4448 1215 42000000 		.4byte	.LVL72
 4449 1219 EC1B0000 		.4byte	0x1bec
 4450 121d 2E120000 		.4byte	0x122e
 4451 1221 2B       		.uleb128 0x2b
 4452 1222 01       		.uleb128 0x1
 4453 1223 50       		.byte	0x50
 4454 1224 02       		.uleb128 0x2
 4455 1225 08       		.byte	0x8
 4456 1226 44       		.byte	0x44
 4457 1227 2B       		.uleb128 0x2b
 4458 1228 01       		.uleb128 0x1
 4459 1229 51       		.byte	0x51
 4460 122a 02       		.uleb128 0x2
 4461 122b 08       		.byte	0x8
 4462 122c 49       		.byte	0x49
 4463 122d 00       		.byte	0
 4464 122e 30       		.uleb128 0x30
 4465 122f 52000000 		.4byte	.LVL73
 4466 1233 F81B0000 		.4byte	0x1bf8
 4467 1237 59120000 		.4byte	0x1259
 4468 123b 2B       		.uleb128 0x2b
 4469 123c 01       		.uleb128 0x1
 4470 123d 50       		.byte	0x50
 4471 123e 02       		.uleb128 0x2
 4472 123f 08       		.byte	0x8
 4473 1240 44       		.byte	0x44
 4474 1241 2B       		.uleb128 0x2b
 4475 1242 01       		.uleb128 0x1
 4476 1243 51       		.byte	0x51
ARM GAS  C:\Users\aditi\AppData\Local\Temp\ccxJli9U.s 			page 121


 4477 1244 02       		.uleb128 0x2
 4478 1245 08       		.byte	0x8
 4479 1246 49       		.byte	0x49
 4480 1247 2B       		.uleb128 0x2b
 4481 1248 01       		.uleb128 0x1
 4482 1249 52       		.byte	0x52
 4483 124a 02       		.uleb128 0x2
 4484 124b 08       		.byte	0x8
 4485 124c 24       		.byte	0x24
 4486 124d 2B       		.uleb128 0x2b
 4487 124e 01       		.uleb128 0x1
 4488 124f 53       		.byte	0x53
 4489 1250 01       		.uleb128 0x1
 4490 1251 4B       		.byte	0x4b
 4491 1252 2B       		.uleb128 0x2b
 4492 1253 02       		.uleb128 0x2
 4493 1254 7D       		.byte	0x7d
 4494 1255 00       		.sleb128 0
 4495 1256 01       		.uleb128 0x1
 4496 1257 30       		.byte	0x30
 4497 1258 00       		.byte	0
 4498 1259 30       		.uleb128 0x30
 4499 125a 60000000 		.4byte	.LVL74
 4500 125e EC1B0000 		.4byte	0x1bec
 4501 1262 72120000 		.4byte	0x1272
 4502 1266 2B       		.uleb128 0x2b
 4503 1267 01       		.uleb128 0x1
 4504 1268 50       		.byte	0x50
 4505 1269 01       		.uleb128 0x1
 4506 126a 48       		.byte	0x48
 4507 126b 2B       		.uleb128 0x2b
 4508 126c 01       		.uleb128 0x1
 4509 126d 51       		.byte	0x51
 4510 126e 02       		.uleb128 0x2
 4511 126f 08       		.byte	0x8
 4512 1270 49       		.byte	0x49
 4513 1271 00       		.byte	0
 4514 1272 30       		.uleb128 0x30
 4515 1273 70000000 		.4byte	.LVL75
 4516 1277 F81B0000 		.4byte	0x1bf8
 4517 127b 9C120000 		.4byte	0x129c
 4518 127f 2B       		.uleb128 0x2b
 4519 1280 01       		.uleb128 0x1
 4520 1281 50       		.byte	0x50
 4521 1282 01       		.uleb128 0x1
 4522 1283 48       		.byte	0x48
 4523 1284 2B       		.uleb128 0x2b
 4524 1285 01       		.uleb128 0x1
 4525 1286 51       		.byte	0x51
 4526 1287 02       		.uleb128 0x2
 4527 1288 08       		.byte	0x8
 4528 1289 49       		.byte	0x49
 4529 128a 2B       		.uleb128 0x2b
 4530 128b 01       		.uleb128 0x1
 4531 128c 52       		.byte	0x52
 4532 128d 02       		.uleb128 0x2
 4533 128e 08       		.byte	0x8
ARM GAS  C:\Users\aditi\AppData\Local\Temp\ccxJli9U.s 			page 122


 4534 128f 24       		.byte	0x24
 4535 1290 2B       		.uleb128 0x2b
 4536 1291 01       		.uleb128 0x1
 4537 1292 53       		.byte	0x53
 4538 1293 01       		.uleb128 0x1
 4539 1294 4B       		.byte	0x4b
 4540 1295 2B       		.uleb128 0x2b
 4541 1296 02       		.uleb128 0x2
 4542 1297 7D       		.byte	0x7d
 4543 1298 00       		.sleb128 0
 4544 1299 01       		.uleb128 0x1
 4545 129a 30       		.byte	0x30
 4546 129b 00       		.byte	0
 4547 129c 30       		.uleb128 0x30
 4548 129d 78000000 		.4byte	.LVL76
 4549 12a1 EC1B0000 		.4byte	0x1bec
 4550 12a5 B6120000 		.4byte	0x12b6
 4551 12a9 2B       		.uleb128 0x2b
 4552 12aa 01       		.uleb128 0x1
 4553 12ab 50       		.byte	0x50
 4554 12ac 02       		.uleb128 0x2
 4555 12ad 08       		.byte	0x8
 4556 12ae 44       		.byte	0x44
 4557 12af 2B       		.uleb128 0x2b
 4558 12b0 01       		.uleb128 0x1
 4559 12b1 51       		.byte	0x51
 4560 12b2 02       		.uleb128 0x2
 4561 12b3 08       		.byte	0x8
 4562 12b4 49       		.byte	0x49
 4563 12b5 00       		.byte	0
 4564 12b6 2A       		.uleb128 0x2a
 4565 12b7 8A000000 		.4byte	.LVL77
 4566 12bb F81B0000 		.4byte	0x1bf8
 4567 12bf 2B       		.uleb128 0x2b
 4568 12c0 01       		.uleb128 0x1
 4569 12c1 50       		.byte	0x50
 4570 12c2 02       		.uleb128 0x2
 4571 12c3 08       		.byte	0x8
 4572 12c4 44       		.byte	0x44
 4573 12c5 2B       		.uleb128 0x2b
 4574 12c6 01       		.uleb128 0x1
 4575 12c7 51       		.byte	0x51
 4576 12c8 02       		.uleb128 0x2
 4577 12c9 08       		.byte	0x8
 4578 12ca 49       		.byte	0x49
 4579 12cb 2B       		.uleb128 0x2b
 4580 12cc 01       		.uleb128 0x1
 4581 12cd 52       		.byte	0x52
 4582 12ce 02       		.uleb128 0x2
 4583 12cf 08       		.byte	0x8
 4584 12d0 24       		.byte	0x24
 4585 12d1 2B       		.uleb128 0x2b
 4586 12d2 01       		.uleb128 0x1
 4587 12d3 53       		.byte	0x53
 4588 12d4 01       		.uleb128 0x1
 4589 12d5 4B       		.byte	0x4b
 4590 12d6 2B       		.uleb128 0x2b
ARM GAS  C:\Users\aditi\AppData\Local\Temp\ccxJli9U.s 			page 123


 4591 12d7 02       		.uleb128 0x2
 4592 12d8 7D       		.byte	0x7d
 4593 12d9 00       		.sleb128 0
 4594 12da 02       		.uleb128 0x2
 4595 12db 09       		.byte	0x9
 4596 12dc FF       		.byte	0xff
 4597 12dd 00       		.byte	0
 4598 12de 00       		.byte	0
 4599 12df 21       		.uleb128 0x21
 4600 12e0 8E040000 		.4byte	.LASF196
 4601 12e4 01       		.byte	0x1
 4602 12e5 0B02     		.2byte	0x20b
 4603 12e7 00000000 		.4byte	.LFB157
 4604 12eb 40000000 		.4byte	.LFE157-.LFB157
 4605 12ef 01       		.uleb128 0x1
 4606 12f0 9C       		.byte	0x9c
 4607 12f1 93130000 		.4byte	0x1393
 4608 12f5 30       		.uleb128 0x30
 4609 12f6 0A000000 		.4byte	.LVL78
 4610 12fa D61B0000 		.4byte	0x1bd6
 4611 12fe 0C130000 		.4byte	0x130c
 4612 1302 2B       		.uleb128 0x2b
 4613 1303 01       		.uleb128 0x1
 4614 1304 50       		.byte	0x50
 4615 1305 05       		.uleb128 0x5
 4616 1306 03       		.byte	0x3
 4617 1307 F8010000 		.4byte	.LC13
 4618 130b 00       		.byte	0
 4619 130c 30       		.uleb128 0x30
 4620 130d 12000000 		.4byte	.LVL79
 4621 1311 EC1B0000 		.4byte	0x1bec
 4622 1315 25130000 		.4byte	0x1325
 4623 1319 2B       		.uleb128 0x2b
 4624 131a 01       		.uleb128 0x1
 4625 131b 50       		.byte	0x50
 4626 131c 01       		.uleb128 0x1
 4627 131d 48       		.byte	0x48
 4628 131e 2B       		.uleb128 0x2b
 4629 131f 01       		.uleb128 0x1
 4630 1320 51       		.byte	0x51
 4631 1321 02       		.uleb128 0x2
 4632 1322 08       		.byte	0x8
 4633 1323 49       		.byte	0x49
 4634 1324 00       		.byte	0
 4635 1325 30       		.uleb128 0x30
 4636 1326 22000000 		.4byte	.LVL80
 4637 132a F81B0000 		.4byte	0x1bf8
 4638 132e 50130000 		.4byte	0x1350
 4639 1332 2B       		.uleb128 0x2b
 4640 1333 01       		.uleb128 0x1
 4641 1334 50       		.byte	0x50
 4642 1335 01       		.uleb128 0x1
 4643 1336 48       		.byte	0x48
 4644 1337 2B       		.uleb128 0x2b
 4645 1338 01       		.uleb128 0x1
 4646 1339 51       		.byte	0x51
 4647 133a 02       		.uleb128 0x2
ARM GAS  C:\Users\aditi\AppData\Local\Temp\ccxJli9U.s 			page 124


 4648 133b 08       		.byte	0x8
 4649 133c 49       		.byte	0x49
 4650 133d 2B       		.uleb128 0x2b
 4651 133e 01       		.uleb128 0x1
 4652 133f 52       		.byte	0x52
 4653 1340 02       		.uleb128 0x2
 4654 1341 08       		.byte	0x8
 4655 1342 24       		.byte	0x24
 4656 1343 2B       		.uleb128 0x2b
 4657 1344 01       		.uleb128 0x1
 4658 1345 53       		.byte	0x53
 4659 1346 01       		.uleb128 0x1
 4660 1347 4B       		.byte	0x4b
 4661 1348 2B       		.uleb128 0x2b
 4662 1349 02       		.uleb128 0x2
 4663 134a 7D       		.byte	0x7d
 4664 134b 00       		.sleb128 0
 4665 134c 02       		.uleb128 0x2
 4666 134d 74       		.byte	0x74
 4667 134e 00       		.sleb128 0
 4668 134f 00       		.byte	0
 4669 1350 30       		.uleb128 0x30
 4670 1351 2A000000 		.4byte	.LVL81
 4671 1355 EC1B0000 		.4byte	0x1bec
 4672 1359 6A130000 		.4byte	0x136a
 4673 135d 2B       		.uleb128 0x2b
 4674 135e 01       		.uleb128 0x1
 4675 135f 50       		.byte	0x50
 4676 1360 02       		.uleb128 0x2
 4677 1361 08       		.byte	0x8
 4678 1362 44       		.byte	0x44
 4679 1363 2B       		.uleb128 0x2b
 4680 1364 01       		.uleb128 0x1
 4681 1365 51       		.byte	0x51
 4682 1366 02       		.uleb128 0x2
 4683 1367 08       		.byte	0x8
 4684 1368 49       		.byte	0x49
 4685 1369 00       		.byte	0
 4686 136a 2A       		.uleb128 0x2a
 4687 136b 38000000 		.4byte	.LVL82
 4688 136f F81B0000 		.4byte	0x1bf8
 4689 1373 2B       		.uleb128 0x2b
 4690 1374 01       		.uleb128 0x1
 4691 1375 50       		.byte	0x50
 4692 1376 02       		.uleb128 0x2
 4693 1377 08       		.byte	0x8
 4694 1378 44       		.byte	0x44
 4695 1379 2B       		.uleb128 0x2b
 4696 137a 01       		.uleb128 0x1
 4697 137b 51       		.byte	0x51
 4698 137c 02       		.uleb128 0x2
 4699 137d 08       		.byte	0x8
 4700 137e 49       		.byte	0x49
 4701 137f 2B       		.uleb128 0x2b
 4702 1380 01       		.uleb128 0x1
 4703 1381 52       		.byte	0x52
 4704 1382 02       		.uleb128 0x2
ARM GAS  C:\Users\aditi\AppData\Local\Temp\ccxJli9U.s 			page 125


 4705 1383 08       		.byte	0x8
 4706 1384 24       		.byte	0x24
 4707 1385 2B       		.uleb128 0x2b
 4708 1386 01       		.uleb128 0x1
 4709 1387 53       		.byte	0x53
 4710 1388 01       		.uleb128 0x1
 4711 1389 4B       		.byte	0x4b
 4712 138a 2B       		.uleb128 0x2b
 4713 138b 02       		.uleb128 0x2
 4714 138c 7D       		.byte	0x7d
 4715 138d 00       		.sleb128 0
 4716 138e 02       		.uleb128 0x2
 4717 138f 74       		.byte	0x74
 4718 1390 00       		.sleb128 0
 4719 1391 00       		.byte	0
 4720 1392 00       		.byte	0
 4721 1393 21       		.uleb128 0x21
 4722 1394 01020000 		.4byte	.LASF197
 4723 1398 01       		.byte	0x1
 4724 1399 E201     		.2byte	0x1e2
 4725 139b 00000000 		.4byte	.LFB156
 4726 139f D8000000 		.4byte	.LFE156-.LFB156
 4727 13a3 01       		.uleb128 0x1
 4728 13a4 9C       		.byte	0x9c
 4729 13a5 9D140000 		.4byte	0x149d
 4730 13a9 22       		.uleb128 0x22
 4731 13aa 5C020000 		.4byte	.LASF198
 4732 13ae 01       		.byte	0x1
 4733 13af E701     		.2byte	0x1e7
 4734 13b1 91040000 		.4byte	0x491
 4735 13b5 02       		.uleb128 0x2
 4736 13b6 91       		.byte	0x91
 4737 13b7 44       		.sleb128 -60
 4738 13b8 23       		.uleb128 0x23
 4739 13b9 98090000 		.4byte	0x998
 4740 13bd 0A000000 		.4byte	.LBB103
 4741 13c1 10000000 		.4byte	.LBE103-.LBB103
 4742 13c5 01       		.byte	0x1
 4743 13c6 E701     		.2byte	0x1e7
 4744 13c8 D2130000 		.4byte	0x13d2
 4745 13cc 24       		.uleb128 0x24
 4746 13cd A9090000 		.4byte	0x9a9
 4747 13d1 00       		.byte	0
 4748 13d2 23       		.uleb128 0x23
 4749 13d3 C6090000 		.4byte	0x9c6
 4750 13d7 82000000 		.4byte	.LBB105
 4751 13db 42000000 		.4byte	.LBE105-.LBB105
 4752 13df 01       		.byte	0x1
 4753 13e0 0802     		.2byte	0x208
 4754 13e2 33140000 		.4byte	0x1433
 4755 13e6 25       		.uleb128 0x25
 4756 13e7 E3090000 		.4byte	0x9e3
 4757 13eb 03       		.uleb128 0x3
 4758 13ec 91       		.byte	0x91
 4759 13ed A07F     		.sleb128 -96
 4760 13ef 24       		.uleb128 0x24
 4761 13f0 D7090000 		.4byte	0x9d7
ARM GAS  C:\Users\aditi\AppData\Local\Temp\ccxJli9U.s 			page 126


 4762 13f4 26       		.uleb128 0x26
 4763 13f5 82000000 		.4byte	.LBB106
 4764 13f9 42000000 		.4byte	.LBE106-.LBB106
 4765 13fd 27       		.uleb128 0x27
 4766 13fe EF090000 		.4byte	0x9ef
 4767 1402 00       		.byte	0
 4768 1403 28       		.uleb128 0x28
 4769 1404 FB090000 		.4byte	0x9fb
 4770 1408 F2010000 		.4byte	.LLST16
 4771 140c 28       		.uleb128 0x28
 4772 140d 070A0000 		.4byte	0xa07
 4773 1411 28020000 		.4byte	.LLST17
 4774 1415 26       		.uleb128 0x26
 4775 1416 AA000000 		.4byte	.LBB107
 4776 141a 0A000000 		.4byte	.LBE107-.LBB107
 4777 141e 28       		.uleb128 0x28
 4778 141f 140A0000 		.4byte	0xa14
 4779 1423 3B020000 		.4byte	.LLST18
 4780 1427 29       		.uleb128 0x29
 4781 1428 B4000000 		.4byte	.LVL93
 4782 142c CA1B0000 		.4byte	0x1bca
 4783 1430 00       		.byte	0
 4784 1431 00       		.byte	0
 4785 1432 00       		.byte	0
 4786 1433 30       		.uleb128 0x30
 4787 1434 0A000000 		.4byte	.LVL83
 4788 1438 D61B0000 		.4byte	0x1bd6
 4789 143c 4A140000 		.4byte	0x144a
 4790 1440 2B       		.uleb128 0x2b
 4791 1441 01       		.uleb128 0x1
 4792 1442 50       		.byte	0x50
 4793 1443 05       		.uleb128 0x5
 4794 1444 03       		.byte	0x3
 4795 1445 1C020000 		.4byte	.LC14
 4796 1449 00       		.byte	0
 4797 144a 30       		.uleb128 0x30
 4798 144b 36000000 		.4byte	.LVL85
 4799 144f D61B0000 		.4byte	0x1bd6
 4800 1453 61140000 		.4byte	0x1461
 4801 1457 2B       		.uleb128 0x2b
 4802 1458 01       		.uleb128 0x1
 4803 1459 50       		.byte	0x50
 4804 145a 05       		.uleb128 0x5
 4805 145b 03       		.byte	0x3
 4806 145c 40020000 		.4byte	.LC15
 4807 1460 00       		.byte	0
 4808 1461 30       		.uleb128 0x30
 4809 1462 3C000000 		.4byte	.LVL86
 4810 1466 031C0000 		.4byte	0x1c03
 4811 146a 75140000 		.4byte	0x1475
 4812 146e 2B       		.uleb128 0x2b
 4813 146f 01       		.uleb128 0x1
 4814 1470 50       		.byte	0x50
 4815 1471 02       		.uleb128 0x2
 4816 1472 74       		.byte	0x74
 4817 1473 00       		.sleb128 0
 4818 1474 00       		.byte	0
ARM GAS  C:\Users\aditi\AppData\Local\Temp\ccxJli9U.s 			page 127


 4819 1475 30       		.uleb128 0x30
 4820 1476 60000000 		.4byte	.LVL87
 4821 147a D61B0000 		.4byte	0x1bd6
 4822 147e 8C140000 		.4byte	0x148c
 4823 1482 2B       		.uleb128 0x2b
 4824 1483 01       		.uleb128 0x1
 4825 1484 50       		.byte	0x50
 4826 1485 05       		.uleb128 0x5
 4827 1486 03       		.byte	0x3
 4828 1487 50020000 		.4byte	.LC16
 4829 148b 00       		.byte	0
 4830 148c 2A       		.uleb128 0x2a
 4831 148d 66000000 		.4byte	.LVL88
 4832 1491 031C0000 		.4byte	0x1c03
 4833 1495 2B       		.uleb128 0x2b
 4834 1496 01       		.uleb128 0x1
 4835 1497 50       		.byte	0x50
 4836 1498 02       		.uleb128 0x2
 4837 1499 74       		.byte	0x74
 4838 149a 00       		.sleb128 0
 4839 149b 00       		.byte	0
 4840 149c 00       		.byte	0
 4841 149d 31       		.uleb128 0x31
 4842 149e 78080000 		.4byte	.LASF202
 4843 14a2 01       		.byte	0x1
 4844 14a3 BB       		.byte	0xbb
 4845 14a4 00000000 		.4byte	.LFB141
 4846 14a8 28010000 		.4byte	.LFE141-.LFB141
 4847 14ac 01       		.uleb128 0x1
 4848 14ad 9C       		.byte	0x9c
 4849 14ae 35160000 		.4byte	0x1635
 4850 14b2 32       		.uleb128 0x32
 4851 14b3 657600   		.ascii	"ev\000"
 4852 14b6 01       		.byte	0x1
 4853 14b7 BB       		.byte	0xbb
 4854 14b8 2B020000 		.4byte	0x22b
 4855 14bc 54020000 		.4byte	.LLST19
 4856 14c0 33       		.uleb128 0x33
 4857 14c1 23060000 		.4byte	.LASF199
 4858 14c5 01       		.byte	0x1
 4859 14c6 BE       		.byte	0xbe
 4860 14c7 A2000000 		.4byte	0xa2
 4861 14cb 05       		.uleb128 0x5
 4862 14cc 03       		.byte	0x3
 4863 14cd 00000000 		.4byte	runnableCount.7689
 4864 14d1 34       		.uleb128 0x34
 4865 14d2 70100000 		.4byte	.LASF200
 4866 14d6 01       		.byte	0x1
 4867 14d7 C0       		.byte	0xc0
 4868 14d8 FE020000 		.4byte	0x2fe
 4869 14dc 35       		.uleb128 0x35
 4870 14dd 2D0A0000 		.4byte	0xa2d
 4871 14e1 1E000000 		.4byte	.LBB108
 4872 14e5 34000000 		.4byte	.LBE108-.LBB108
 4873 14e9 01       		.byte	0x1
 4874 14ea CC       		.byte	0xcc
 4875 14eb 3B150000 		.4byte	0x153b
ARM GAS  C:\Users\aditi\AppData\Local\Temp\ccxJli9U.s 			page 128


 4876 14ef 24       		.uleb128 0x24
 4877 14f0 4A0A0000 		.4byte	0xa4a
 4878 14f4 24       		.uleb128 0x24
 4879 14f5 3E0A0000 		.4byte	0xa3e
 4880 14f9 26       		.uleb128 0x26
 4881 14fa 1E000000 		.4byte	.LBB109
 4882 14fe 34000000 		.4byte	.LBE109-.LBB109
 4883 1502 28       		.uleb128 0x28
 4884 1503 560A0000 		.4byte	0xa56
 4885 1507 8E020000 		.4byte	.LLST20
 4886 150b 28       		.uleb128 0x28
 4887 150c 620A0000 		.4byte	0xa62
 4888 1510 A2020000 		.4byte	.LLST21
 4889 1514 28       		.uleb128 0x28
 4890 1515 6E0A0000 		.4byte	0xa6e
 4891 1519 D8020000 		.4byte	.LLST22
 4892 151d 26       		.uleb128 0x26
 4893 151e 38000000 		.4byte	.LBB110
 4894 1522 0A000000 		.4byte	.LBE110-.LBB110
 4895 1526 28       		.uleb128 0x28
 4896 1527 7B0A0000 		.4byte	0xa7b
 4897 152b EB020000 		.4byte	.LLST23
 4898 152f 29       		.uleb128 0x29
 4899 1530 42000000 		.4byte	.LVL103
 4900 1534 CA1B0000 		.4byte	0x1bca
 4901 1538 00       		.byte	0
 4902 1539 00       		.byte	0
 4903 153a 00       		.byte	0
 4904 153b 35       		.uleb128 0x35
 4905 153c 2D0A0000 		.4byte	0xa2d
 4906 1540 76000000 		.4byte	.LBB111
 4907 1544 32000000 		.4byte	.LBE111-.LBB111
 4908 1548 01       		.byte	0x1
 4909 1549 D8       		.byte	0xd8
 4910 154a 9A150000 		.4byte	0x159a
 4911 154e 24       		.uleb128 0x24
 4912 154f 4A0A0000 		.4byte	0xa4a
 4913 1553 24       		.uleb128 0x24
 4914 1554 3E0A0000 		.4byte	0xa3e
 4915 1558 26       		.uleb128 0x26
 4916 1559 76000000 		.4byte	.LBB112
 4917 155d 32000000 		.4byte	.LBE112-.LBB112
 4918 1561 28       		.uleb128 0x28
 4919 1562 560A0000 		.4byte	0xa56
 4920 1566 04030000 		.4byte	.LLST24
 4921 156a 28       		.uleb128 0x28
 4922 156b 620A0000 		.4byte	0xa62
 4923 156f 18030000 		.4byte	.LLST25
 4924 1573 28       		.uleb128 0x28
 4925 1574 6E0A0000 		.4byte	0xa6e
 4926 1578 4E030000 		.4byte	.LLST26
 4927 157c 26       		.uleb128 0x26
 4928 157d 8E000000 		.4byte	.LBB113
 4929 1581 0A000000 		.4byte	.LBE113-.LBB113
 4930 1585 28       		.uleb128 0x28
 4931 1586 7B0A0000 		.4byte	0xa7b
 4932 158a 61030000 		.4byte	.LLST27
ARM GAS  C:\Users\aditi\AppData\Local\Temp\ccxJli9U.s 			page 129


 4933 158e 29       		.uleb128 0x29
 4934 158f 98000000 		.4byte	.LVL111
 4935 1593 CA1B0000 		.4byte	0x1bca
 4936 1597 00       		.byte	0
 4937 1598 00       		.byte	0
 4938 1599 00       		.byte	0
 4939 159a 2F       		.uleb128 0x2f
 4940 159b B8000000 		.4byte	.LBB114
 4941 159f 70000000 		.4byte	.LBE114-.LBB114
 4942 15a3 14160000 		.4byte	0x1614
 4943 15a7 33       		.uleb128 0x33
 4944 15a8 EA020000 		.4byte	.LASF201
 4945 15ac 01       		.byte	0x1
 4946 15ad DE       		.byte	0xde
 4947 15ae 97000000 		.4byte	0x97
 4948 15b2 05       		.uleb128 0x5
 4949 15b3 03       		.byte	0x3
 4950 15b4 03000000 		.4byte	countVar.7691
 4951 15b8 36       		.uleb128 0x36
 4952 15b9 2D0A0000 		.4byte	0xa2d
 4953 15bd DE000000 		.4byte	.LBB115
 4954 15c1 4A000000 		.4byte	.LBE115-.LBB115
 4955 15c5 01       		.byte	0x1
 4956 15c6 E5       		.byte	0xe5
 4957 15c7 24       		.uleb128 0x24
 4958 15c8 4A0A0000 		.4byte	0xa4a
 4959 15cc 24       		.uleb128 0x24
 4960 15cd 3E0A0000 		.4byte	0xa3e
 4961 15d1 26       		.uleb128 0x26
 4962 15d2 DE000000 		.4byte	.LBB116
 4963 15d6 4A000000 		.4byte	.LBE116-.LBB116
 4964 15da 28       		.uleb128 0x28
 4965 15db 560A0000 		.4byte	0xa56
 4966 15df 7A030000 		.4byte	.LLST28
 4967 15e3 28       		.uleb128 0x28
 4968 15e4 620A0000 		.4byte	0xa62
 4969 15e8 8E030000 		.4byte	.LLST29
 4970 15ec 28       		.uleb128 0x28
 4971 15ed 6E0A0000 		.4byte	0xa6e
 4972 15f1 C4030000 		.4byte	.LLST30
 4973 15f5 26       		.uleb128 0x26
 4974 15f6 F6000000 		.4byte	.LBB117
 4975 15fa 0A000000 		.4byte	.LBE117-.LBB117
 4976 15fe 28       		.uleb128 0x28
 4977 15ff 7B0A0000 		.4byte	0xa7b
 4978 1603 D7030000 		.4byte	.LLST31
 4979 1607 29       		.uleb128 0x29
 4980 1608 00010000 		.4byte	.LVL120
 4981 160c CA1B0000 		.4byte	0x1bca
 4982 1610 00       		.byte	0
 4983 1611 00       		.byte	0
 4984 1612 00       		.byte	0
 4985 1613 00       		.byte	0
 4986 1614 30       		.uleb128 0x30
 4987 1615 76000000 		.4byte	.LVL108
 4988 1619 D61B0000 		.4byte	0x1bd6
 4989 161d 2B160000 		.4byte	0x162b
ARM GAS  C:\Users\aditi\AppData\Local\Temp\ccxJli9U.s 			page 130


 4990 1621 2B       		.uleb128 0x2b
 4991 1622 01       		.uleb128 0x1
 4992 1623 50       		.byte	0x50
 4993 1624 05       		.uleb128 0x5
 4994 1625 03       		.byte	0x3
 4995 1626 60020000 		.4byte	.LC17
 4996 162a 00       		.byte	0
 4997 162b 29       		.uleb128 0x29
 4998 162c B4000000 		.4byte	.LVL116
 4999 1630 0E1C0000 		.4byte	0x1c0e
 5000 1634 00       		.byte	0
 5001 1635 31       		.uleb128 0x31
 5002 1636 A7060000 		.4byte	.LASF203
 5003 163a 01       		.byte	0x1
 5004 163b FF       		.byte	0xff
 5005 163c 00000000 		.4byte	.LFB142
 5006 1640 58000000 		.4byte	.LFE142-.LFB142
 5007 1644 01       		.uleb128 0x1
 5008 1645 9C       		.byte	0x9c
 5009 1646 12170000 		.4byte	0x1712
 5010 164a 32       		.uleb128 0x32
 5011 164b 657600   		.ascii	"ev\000"
 5012 164e 01       		.byte	0x1
 5013 164f FF       		.byte	0xff
 5014 1650 2B020000 		.4byte	0x22b
 5015 1654 F0030000 		.4byte	.LLST32
 5016 1658 1B       		.uleb128 0x1b
 5017 1659 020B0000 		.4byte	.LASF204
 5018 165d 01       		.byte	0x1
 5019 165e 0501     		.2byte	0x105
 5020 1660 FE020000 		.4byte	0x2fe
 5021 1664 22       		.uleb128 0x22
 5022 1665 5C020000 		.4byte	.LASF198
 5023 1669 01       		.byte	0x1
 5024 166a 0801     		.2byte	0x108
 5025 166c 91040000 		.4byte	0x491
 5026 1670 02       		.uleb128 0x2
 5027 1671 91       		.byte	0x91
 5028 1672 44       		.sleb128 -60
 5029 1673 1B       		.uleb128 0x1b
 5030 1674 8E050000 		.4byte	.LASF205
 5031 1678 01       		.byte	0x1
 5032 1679 0B01     		.2byte	0x10b
 5033 167b 0A020000 		.4byte	0x20a
 5034 167f 23       		.uleb128 0x23
 5035 1680 940A0000 		.4byte	0xa94
 5036 1684 0A000000 		.4byte	.LBB118
 5037 1688 04000000 		.4byte	.LBE118-.LBB118
 5038 168c 01       		.byte	0x1
 5039 168d 0501     		.2byte	0x105
 5040 168f 99160000 		.4byte	0x1699
 5041 1693 24       		.uleb128 0x24
 5042 1694 A50A0000 		.4byte	0xaa5
 5043 1698 00       		.byte	0
 5044 1699 23       		.uleb128 0x23
 5045 169a 98090000 		.4byte	0x998
 5046 169e 0E000000 		.4byte	.LBB120
ARM GAS  C:\Users\aditi\AppData\Local\Temp\ccxJli9U.s 			page 131


 5047 16a2 12000000 		.4byte	.LBE120-.LBB120
 5048 16a6 01       		.byte	0x1
 5049 16a7 0801     		.2byte	0x108
 5050 16a9 B3160000 		.4byte	0x16b3
 5051 16ad 24       		.uleb128 0x24
 5052 16ae A9090000 		.4byte	0x9a9
 5053 16b2 00       		.byte	0
 5054 16b3 30       		.uleb128 0x30
 5055 16b4 0A000000 		.4byte	.LVL127
 5056 16b8 D61B0000 		.4byte	0x1bd6
 5057 16bc CA160000 		.4byte	0x16ca
 5058 16c0 2B       		.uleb128 0x2b
 5059 16c1 01       		.uleb128 0x1
 5060 16c2 50       		.byte	0x50
 5061 16c3 05       		.uleb128 0x5
 5062 16c4 03       		.byte	0x3
 5063 16c5 78020000 		.4byte	.LC18
 5064 16c9 00       		.byte	0
 5065 16ca 30       		.uleb128 0x30
 5066 16cb 32000000 		.4byte	.LVL130
 5067 16cf E11B0000 		.4byte	0x1be1
 5068 16d3 FE160000 		.4byte	0x16fe
 5069 16d7 2B       		.uleb128 0x2b
 5070 16d8 01       		.uleb128 0x1
 5071 16d9 50       		.byte	0x50
 5072 16da 05       		.uleb128 0x5
 5073 16db 03       		.byte	0x3
 5074 16dc 24000000 		.4byte	.LANCHOR0+36
 5075 16e0 2B       		.uleb128 0x2b
 5076 16e1 01       		.uleb128 0x1
 5077 16e2 51       		.byte	0x51
 5078 16e3 01       		.uleb128 0x1
 5079 16e4 33       		.byte	0x33
 5080 16e5 2B       		.uleb128 0x2b
 5081 16e6 01       		.uleb128 0x1
 5082 16e7 52       		.byte	0x52
 5083 16e8 01       		.uleb128 0x1
 5084 16e9 30       		.byte	0x30
 5085 16ea 2B       		.uleb128 0x2b
 5086 16eb 01       		.uleb128 0x1
 5087 16ec 53       		.byte	0x53
 5088 16ed 01       		.uleb128 0x1
 5089 16ee 30       		.byte	0x30
 5090 16ef 2B       		.uleb128 0x2b
 5091 16f0 02       		.uleb128 0x2
 5092 16f1 7D       		.byte	0x7d
 5093 16f2 00       		.sleb128 0
 5094 16f3 02       		.uleb128 0x2
 5095 16f4 77       		.byte	0x77
 5096 16f5 00       		.sleb128 0
 5097 16f6 2B       		.uleb128 0x2b
 5098 16f7 02       		.uleb128 0x2
 5099 16f8 7D       		.byte	0x7d
 5100 16f9 04       		.sleb128 4
 5101 16fa 02       		.uleb128 0x2
 5102 16fb 74       		.byte	0x74
 5103 16fc 60       		.sleb128 -32
ARM GAS  C:\Users\aditi\AppData\Local\Temp\ccxJli9U.s 			page 132


 5104 16fd 00       		.byte	0
 5105 16fe 2A       		.uleb128 0x2a
 5106 16ff 38000000 		.4byte	.LVL131
 5107 1703 D61B0000 		.4byte	0x1bd6
 5108 1707 2B       		.uleb128 0x2b
 5109 1708 01       		.uleb128 0x1
 5110 1709 50       		.byte	0x50
 5111 170a 05       		.uleb128 0x5
 5112 170b 03       		.byte	0x3
 5113 170c 90020000 		.4byte	.LC19
 5114 1710 00       		.byte	0
 5115 1711 00       		.byte	0
 5116 1712 37       		.uleb128 0x37
 5117 1713 C50C0000 		.4byte	.LASF206
 5118 1717 01       		.byte	0x1
 5119 1718 2701     		.2byte	0x127
 5120 171a 00000000 		.4byte	.LFB143
 5121 171e A0000000 		.4byte	.LFE143-.LFB143
 5122 1722 01       		.uleb128 0x1
 5123 1723 9C       		.byte	0x9c
 5124 1724 F9170000 		.4byte	0x17f9
 5125 1728 2D       		.uleb128 0x2d
 5126 1729 657600   		.ascii	"ev\000"
 5127 172c 01       		.byte	0x1
 5128 172d 2701     		.2byte	0x127
 5129 172f 2B020000 		.4byte	0x22b
 5130 1733 11040000 		.4byte	.LLST33
 5131 1737 22       		.uleb128 0x22
 5132 1738 38090000 		.4byte	.LASF183
 5133 173c 01       		.byte	0x1
 5134 173d 2C01     		.2byte	0x12c
 5135 173f 91040000 		.4byte	0x491
 5136 1743 02       		.uleb128 0x2
 5137 1744 91       		.byte	0x91
 5138 1745 4C       		.sleb128 -52
 5139 1746 22       		.uleb128 0x22
 5140 1747 EC000000 		.4byte	.LASF207
 5141 174b 01       		.byte	0x1
 5142 174c 2F01     		.2byte	0x12f
 5143 174e 40080000 		.4byte	0x840
 5144 1752 02       		.uleb128 0x2
 5145 1753 91       		.byte	0x91
 5146 1754 48       		.sleb128 -56
 5147 1755 23       		.uleb128 0x23
 5148 1756 98090000 		.4byte	0x998
 5149 175a 04000000 		.4byte	.LBB122
 5150 175e 10000000 		.4byte	.LBE122-.LBB122
 5151 1762 01       		.byte	0x1
 5152 1763 2C01     		.2byte	0x12c
 5153 1765 6F170000 		.4byte	0x176f
 5154 1769 24       		.uleb128 0x24
 5155 176a A9090000 		.4byte	0x9a9
 5156 176e 00       		.byte	0
 5157 176f 23       		.uleb128 0x23
 5158 1770 FC0A0000 		.4byte	0xafc
 5159 1774 4E000000 		.4byte	.LBB124
 5160 1778 32000000 		.4byte	.LBE124-.LBB124
ARM GAS  C:\Users\aditi\AppData\Local\Temp\ccxJli9U.s 			page 133


 5161 177c 01       		.byte	0x1
 5162 177d 3901     		.2byte	0x139
 5163 177f CF170000 		.4byte	0x17cf
 5164 1783 25       		.uleb128 0x25
 5165 1784 190B0000 		.4byte	0xb19
 5166 1788 02       		.uleb128 0x2
 5167 1789 91       		.byte	0x91
 5168 178a 44       		.sleb128 -60
 5169 178b 24       		.uleb128 0x24
 5170 178c 0D0B0000 		.4byte	0xb0d
 5171 1790 26       		.uleb128 0x26
 5172 1791 4E000000 		.4byte	.LBB125
 5173 1795 32000000 		.4byte	.LBE125-.LBB125
 5174 1799 27       		.uleb128 0x27
 5175 179a 250B0000 		.4byte	0xb25
 5176 179e 00       		.byte	0
 5177 179f 28       		.uleb128 0x28
 5178 17a0 310B0000 		.4byte	0xb31
 5179 17a4 32040000 		.4byte	.LLST34
 5180 17a8 28       		.uleb128 0x28
 5181 17a9 3D0B0000 		.4byte	0xb3d
 5182 17ad 68040000 		.4byte	.LLST35
 5183 17b1 26       		.uleb128 0x26
 5184 17b2 66000000 		.4byte	.LBB126
 5185 17b6 0A000000 		.4byte	.LBE126-.LBB126
 5186 17ba 28       		.uleb128 0x28
 5187 17bb 4A0B0000 		.4byte	0xb4a
 5188 17bf 7B040000 		.4byte	.LLST36
 5189 17c3 29       		.uleb128 0x29
 5190 17c4 70000000 		.4byte	.LVL140
 5191 17c8 CA1B0000 		.4byte	0x1bca
 5192 17cc 00       		.byte	0
 5193 17cd 00       		.byte	0
 5194 17ce 00       		.byte	0
 5195 17cf 38       		.uleb128 0x38
 5196 17d0 C20A0000 		.4byte	0xac2
 5197 17d4 80000000 		.4byte	.LBB127
 5198 17d8 10000000 		.4byte	.LBE127-.LBB127
 5199 17dc 01       		.byte	0x1
 5200 17dd 3A01     		.2byte	0x13a
 5201 17df 24       		.uleb128 0x24
 5202 17e0 D30A0000 		.4byte	0xad3
 5203 17e4 26       		.uleb128 0x26
 5204 17e5 80000000 		.4byte	.LBB128
 5205 17e9 10000000 		.4byte	.LBE128-.LBB128
 5206 17ed 28       		.uleb128 0x28
 5207 17ee DF0A0000 		.4byte	0xadf
 5208 17f2 94040000 		.4byte	.LLST37
 5209 17f6 00       		.byte	0
 5210 17f7 00       		.byte	0
 5211 17f8 00       		.byte	0
 5212 17f9 39       		.uleb128 0x39
 5213 17fa 860E0000 		.4byte	.LASF208
 5214 17fe 01       		.byte	0x1
 5215 17ff 1C02     		.2byte	0x21c
 5216 1801 00000000 		.4byte	.LFB159
 5217 1805 60000000 		.4byte	.LFE159-.LFB159
ARM GAS  C:\Users\aditi\AppData\Local\Temp\ccxJli9U.s 			page 134


 5218 1809 01       		.uleb128 0x1
 5219 180a 9C       		.byte	0x9c
 5220 180b 8F180000 		.4byte	0x188f
 5221 180f 3A       		.uleb128 0x3a
 5222 1810 020B0000 		.4byte	.LASF204
 5223 1814 01       		.byte	0x1
 5224 1815 1F02     		.2byte	0x21f
 5225 1817 FE020000 		.4byte	0x2fe
 5226 181b A9040000 		.4byte	.LLST38
 5227 181f 23       		.uleb128 0x23
 5228 1820 2D0A0000 		.4byte	0xa2d
 5229 1824 22000000 		.4byte	.LBB129
 5230 1828 3E000000 		.4byte	.LBE129-.LBB129
 5231 182c 01       		.byte	0x1
 5232 182d 2E02     		.2byte	0x22e
 5233 182f 7C180000 		.4byte	0x187c
 5234 1833 24       		.uleb128 0x24
 5235 1834 4A0A0000 		.4byte	0xa4a
 5236 1838 24       		.uleb128 0x24
 5237 1839 3E0A0000 		.4byte	0xa3e
 5238 183d 26       		.uleb128 0x26
 5239 183e 22000000 		.4byte	.LBB130
 5240 1842 3E000000 		.4byte	.LBE130-.LBB130
 5241 1846 27       		.uleb128 0x27
 5242 1847 560A0000 		.4byte	0xa56
 5243 184b 00       		.byte	0
 5244 184c 28       		.uleb128 0x28
 5245 184d 620A0000 		.4byte	0xa62
 5246 1851 D2040000 		.4byte	.LLST39
 5247 1855 28       		.uleb128 0x28
 5248 1856 6E0A0000 		.4byte	0xa6e
 5249 185a 08050000 		.4byte	.LLST40
 5250 185e 26       		.uleb128 0x26
 5251 185f 3A000000 		.4byte	.LBB131
 5252 1863 0A000000 		.4byte	.LBE131-.LBB131
 5253 1867 28       		.uleb128 0x28
 5254 1868 7B0A0000 		.4byte	0xa7b
 5255 186c 1B050000 		.4byte	.LLST41
 5256 1870 29       		.uleb128 0x29
 5257 1871 44000000 		.4byte	.LVL153
 5258 1875 CA1B0000 		.4byte	0x1bca
 5259 1879 00       		.byte	0
 5260 187a 00       		.byte	0
 5261 187b 00       		.byte	0
 5262 187c 29       		.uleb128 0x29
 5263 187d 06000000 		.4byte	.LVL146
 5264 1881 191C0000 		.4byte	0x1c19
 5265 1885 29       		.uleb128 0x29
 5266 1886 14000000 		.4byte	.LVL148
 5267 188a 0E1C0000 		.4byte	0x1c0e
 5268 188e 00       		.byte	0
 5269 188f 1F       		.uleb128 0x1f
 5270 1890 58040000 		.4byte	.LASF210
 5271 1894 05       		.byte	0x5
 5272 1895 6F01     		.2byte	0x16f
 5273 1897 21010000 		.4byte	0x121
 5274 189b 03       		.byte	0x3
ARM GAS  C:\Users\aditi\AppData\Local\Temp\ccxJli9U.s 			page 135


 5275 189c B9180000 		.4byte	0x18b9
 5276 18a0 1B       		.uleb128 0x1b
 5277 18a1 3E0B0000 		.4byte	.LASF211
 5278 18a5 05       		.byte	0x5
 5279 18a6 7401     		.2byte	0x174
 5280 18a8 00010000 		.4byte	0x100
 5281 18ac 1B       		.uleb128 0x1b
 5282 18ad DB010000 		.4byte	.LASF175
 5283 18b1 05       		.byte	0x5
 5284 18b2 7501     		.2byte	0x175
 5285 18b4 21010000 		.4byte	0x121
 5286 18b8 00       		.byte	0
 5287 18b9 39       		.uleb128 0x39
 5288 18ba 520F0000 		.4byte	.LASF212
 5289 18be 01       		.byte	0x1
 5290 18bf 1C02     		.2byte	0x21c
 5291 18c1 00000000 		.4byte	.LFB158
 5292 18c5 98000000 		.4byte	.LFE158-.LFB158
 5293 18c9 01       		.uleb128 0x1
 5294 18ca 9C       		.byte	0x9c
 5295 18cb 241A0000 		.4byte	0x1a24
 5296 18cf 3B       		.uleb128 0x3b
 5297 18d0 69706C00 		.ascii	"ipl\000"
 5298 18d4 01       		.byte	0x1
 5299 18d5 1C02     		.2byte	0x21c
 5300 18d7 00010000 		.4byte	0x100
 5301 18db 34050000 		.4byte	.LLST42
 5302 18df 3C       		.uleb128 0x3c
 5303 18e0 A30B0000 		.4byte	0xba3
 5304 18e4 0A000000 		.4byte	.LBB156
 5305 18e8 02000000 		.4byte	.LBE156-.LBB156
 5306 18ec 01       		.byte	0x1
 5307 18ed 1C02     		.2byte	0x21c
 5308 18ef 23       		.uleb128 0x23
 5309 18f0 850B0000 		.4byte	0xb85
 5310 18f4 0C000000 		.4byte	.LBB158
 5311 18f8 04000000 		.4byte	.LBE158-.LBB158
 5312 18fc 01       		.byte	0x1
 5313 18fd 1C02     		.2byte	0x21c
 5314 18ff 13190000 		.4byte	0x1913
 5315 1903 26       		.uleb128 0x26
 5316 1904 0C000000 		.4byte	.LBB159
 5317 1908 04000000 		.4byte	.LBE159-.LBB159
 5318 190c 3D       		.uleb128 0x3d
 5319 190d 960B0000 		.4byte	0xb96
 5320 1911 00       		.byte	0
 5321 1912 00       		.byte	0
 5322 1913 23       		.uleb128 0x23
 5323 1914 8F180000 		.4byte	0x188f
 5324 1918 10000000 		.4byte	.LBB160
 5325 191c 3A000000 		.4byte	.LBE160-.LBB160
 5326 1920 01       		.byte	0x1
 5327 1921 1C02     		.2byte	0x21c
 5328 1923 44190000 		.4byte	0x1944
 5329 1927 26       		.uleb128 0x26
 5330 1928 10000000 		.4byte	.LBB161
 5331 192c 3A000000 		.4byte	.LBE161-.LBB161
ARM GAS  C:\Users\aditi\AppData\Local\Temp\ccxJli9U.s 			page 136


 5332 1930 28       		.uleb128 0x28
 5333 1931 A0180000 		.4byte	0x18a0
 5334 1935 48050000 		.4byte	.LLST43
 5335 1939 28       		.uleb128 0x28
 5336 193a AC180000 		.4byte	0x18ac
 5337 193e 71050000 		.4byte	.LLST44
 5338 1942 00       		.byte	0
 5339 1943 00       		.byte	0
 5340 1944 23       		.uleb128 0x23
 5341 1945 6B0B0000 		.4byte	0xb6b
 5342 1949 4A000000 		.4byte	.LBB162
 5343 194d 04000000 		.4byte	.LBE162-.LBB162
 5344 1951 01       		.byte	0x1
 5345 1952 1C02     		.2byte	0x21c
 5346 1954 5E190000 		.4byte	0x195e
 5347 1958 24       		.uleb128 0x24
 5348 1959 780B0000 		.4byte	0xb78
 5349 195d 00       		.byte	0
 5350 195e 3C       		.uleb128 0x3c
 5351 195f 630B0000 		.4byte	0xb63
 5352 1963 4E000000 		.4byte	.LBB164
 5353 1967 08000000 		.4byte	.LBE164-.LBB164
 5354 196b 01       		.byte	0x1
 5355 196c 1C02     		.2byte	0x21c
 5356 196e 3C       		.uleb128 0x3c
 5357 196f C70B0000 		.4byte	0xbc7
 5358 1973 5E000000 		.4byte	.LBB166
 5359 1977 02000000 		.4byte	.LBE166-.LBB166
 5360 197b 01       		.byte	0x1
 5361 197c 1C02     		.2byte	0x21c
 5362 197e 3C       		.uleb128 0x3c
 5363 197f A30B0000 		.4byte	0xba3
 5364 1983 64000000 		.4byte	.LBB168
 5365 1987 02000000 		.4byte	.LBE168-.LBB168
 5366 198b 01       		.byte	0x1
 5367 198c 1C02     		.2byte	0x21c
 5368 198e 23       		.uleb128 0x23
 5369 198f 6B0B0000 		.4byte	0xb6b
 5370 1993 66000000 		.4byte	.LBB170
 5371 1997 04000000 		.4byte	.LBE170-.LBB170
 5372 199b 01       		.byte	0x1
 5373 199c 1C02     		.2byte	0x21c
 5374 199e AC190000 		.4byte	0x19ac
 5375 19a2 3E       		.uleb128 0x3e
 5376 19a3 780B0000 		.4byte	0xb78
 5377 19a7 B3050000 		.4byte	.LLST45
 5378 19ab 00       		.byte	0
 5379 19ac 23       		.uleb128 0x23
 5380 19ad BF0B0000 		.4byte	0xbbf
 5381 19b1 6A000000 		.4byte	.LBB172
 5382 19b5 04000000 		.4byte	.LBE172-.LBB172
 5383 19b9 01       		.byte	0x1
 5384 19ba 1C02     		.2byte	0x21c
 5385 19bc CA190000 		.4byte	0x19ca
 5386 19c0 29       		.uleb128 0x29
 5387 19c1 6E000000 		.4byte	.LVL174
 5388 19c5 241C0000 		.4byte	0x1c24
ARM GAS  C:\Users\aditi\AppData\Local\Temp\ccxJli9U.s 			page 137


 5389 19c9 00       		.byte	0
 5390 19ca 3C       		.uleb128 0x3c
 5391 19cb B70B0000 		.4byte	0xbb7
 5392 19cf 6E000000 		.4byte	.LBB174
 5393 19d3 08000000 		.4byte	.LBE174-.LBB174
 5394 19d7 01       		.byte	0x1
 5395 19d8 1C02     		.2byte	0x21c
 5396 19da 23       		.uleb128 0x23
 5397 19db CF0B0000 		.4byte	0xbcf
 5398 19df 7C000000 		.4byte	.LBB176
 5399 19e3 04000000 		.4byte	.LBE176-.LBB176
 5400 19e7 01       		.byte	0x1
 5401 19e8 1C02     		.2byte	0x21c
 5402 19ea F8190000 		.4byte	0x19f8
 5403 19ee 29       		.uleb128 0x29
 5404 19ef 80000000 		.4byte	.LVL176
 5405 19f3 2F1C0000 		.4byte	0x1c2f
 5406 19f7 00       		.byte	0
 5407 19f8 3C       		.uleb128 0x3c
 5408 19f9 C70B0000 		.4byte	0xbc7
 5409 19fd 80000000 		.4byte	.LBB178
 5410 1a01 02000000 		.4byte	.LBE178-.LBB178
 5411 1a05 01       		.byte	0x1
 5412 1a06 1C02     		.2byte	0x21c
 5413 1a08 29       		.uleb128 0x29
 5414 1a09 5E000000 		.4byte	.LVL170
 5415 1a0d 3A1C0000 		.4byte	0x1c3a
 5416 1a11 29       		.uleb128 0x29
 5417 1a12 64000000 		.4byte	.LVL171
 5418 1a16 F9170000 		.4byte	0x17f9
 5419 1a1a 29       		.uleb128 0x29
 5420 1a1b 7C000000 		.4byte	.LVL175
 5421 1a1f 451C0000 		.4byte	0x1c45
 5422 1a23 00       		.byte	0
 5423 1a24 33       		.uleb128 0x33
 5424 1a25 FC0E0000 		.4byte	.LASF213
 5425 1a29 01       		.byte	0x1
 5426 1a2a 1A       		.byte	0x1a
 5427 1a2b 97000000 		.4byte	0x97
 5428 1a2f 05       		.uleb128 0x5
 5429 1a30 03       		.byte	0x3
 5430 1a31 02000000 		.4byte	interruptFlag
 5431 1a35 09       		.uleb128 0x9
 5432 1a36 451A0000 		.4byte	0x1a45
 5433 1a3a 451A0000 		.4byte	0x1a45
 5434 1a3e 3F       		.uleb128 0x3f
 5435 1a3f 4F010000 		.4byte	0x14f
 5436 1a43 01       		.byte	0x1
 5437 1a44 00       		.byte	0
 5438 1a45 11       		.uleb128 0x11
 5439 1a46 76030000 		.4byte	0x376
 5440 1a4a 33       		.uleb128 0x33
 5441 1a4b 100D0000 		.4byte	.LASF214
 5442 1a4f 01       		.byte	0x1
 5443 1a50 6E       		.byte	0x6e
 5444 1a51 5B1A0000 		.4byte	0x1a5b
 5445 1a55 05       		.uleb128 0x5
ARM GAS  C:\Users\aditi\AppData\Local\Temp\ccxJli9U.s 			page 138


 5446 1a56 03       		.byte	0x3
 5447 1a57 F8000000 		.4byte	STATE_CLOCK_C_IS_DISPLAYING_Transitions
 5448 1a5b 11       		.uleb128 0x11
 5449 1a5c 351A0000 		.4byte	0x1a35
 5450 1a60 09       		.uleb128 0x9
 5451 1a61 451A0000 		.4byte	0x1a45
 5452 1a65 701A0000 		.4byte	0x1a70
 5453 1a69 3F       		.uleb128 0x3f
 5454 1a6a 4F010000 		.4byte	0x14f
 5455 1a6e 03       		.byte	0x3
 5456 1a6f 00       		.byte	0
 5457 1a70 33       		.uleb128 0x33
 5458 1a71 960F0000 		.4byte	.LASF215
 5459 1a75 01       		.byte	0x1
 5460 1a76 75       		.byte	0x75
 5461 1a77 811A0000 		.4byte	0x1a81
 5462 1a7b 05       		.uleb128 0x5
 5463 1a7c 03       		.byte	0x3
 5464 1a7d C8000000 		.4byte	STATE_CLOCK_C_IS_EDITINGHOURS_Transitions
 5465 1a81 11       		.uleb128 0x11
 5466 1a82 601A0000 		.4byte	0x1a60
 5467 1a86 33       		.uleb128 0x33
 5468 1a87 990C0000 		.4byte	.LASF216
 5469 1a8b 01       		.byte	0x1
 5470 1a8c 7E       		.byte	0x7e
 5471 1a8d 971A0000 		.4byte	0x1a97
 5472 1a91 05       		.uleb128 0x5
 5473 1a92 03       		.byte	0x3
 5474 1a93 98000000 		.4byte	STATE_CLOCK_C_IS_EDITINGMINUTES_Transitions
 5475 1a97 11       		.uleb128 0x11
 5476 1a98 601A0000 		.4byte	0x1a60
 5477 1a9c 40       		.uleb128 0x40
 5478 1a9d 06080000 		.4byte	.LASF217
 5479 1aa1 16       		.byte	0x16
 5480 1aa2 40       		.byte	0x40
 5481 1aa3 00010000 		.4byte	0x100
 5482 1aa7 40       		.uleb128 0x40
 5483 1aa8 99090000 		.4byte	.LASF218
 5484 1aac 16       		.byte	0x16
 5485 1aad 47       		.byte	0x47
 5486 1aae 0B010000 		.4byte	0x10b
 5487 1ab2 40       		.uleb128 0x40
 5488 1ab3 72000000 		.4byte	.LASF219
 5489 1ab7 16       		.byte	0x16
 5490 1ab8 4A       		.byte	0x4a
 5491 1ab9 00010000 		.4byte	0x100
 5492 1abd 40       		.uleb128 0x40
 5493 1abe 000E0000 		.4byte	.LASF220
 5494 1ac2 17       		.byte	0x17
 5495 1ac3 48       		.byte	0x48
 5496 1ac4 2C010000 		.4byte	0x12c
 5497 1ac8 40       		.uleb128 0x40
 5498 1ac9 B7070000 		.4byte	.LASF221
 5499 1acd 18       		.byte	0x18
 5500 1ace 44       		.byte	0x44
 5501 1acf 00010000 		.4byte	0x100
 5502 1ad3 41       		.uleb128 0x41
ARM GAS  C:\Users\aditi\AppData\Local\Temp\ccxJli9U.s 			page 139


 5503 1ad4 5D0A0000 		.4byte	.LASF222
 5504 1ad8 19       		.byte	0x19
 5505 1ad9 1207     		.2byte	0x712
 5506 1adb DF1A0000 		.4byte	0x1adf
 5507 1adf 42       		.uleb128 0x42
 5508 1ae0 AD000000 		.4byte	0xad
 5509 1ae4 40       		.uleb128 0x40
 5510 1ae5 50070000 		.4byte	.LASF223
 5511 1ae9 1A       		.byte	0x1a
 5512 1aea 27       		.byte	0x27
 5513 1aeb 9B060000 		.4byte	0x69b
 5514 1aef 40       		.uleb128 0x40
 5515 1af0 6F010000 		.4byte	.LASF224
 5516 1af4 1A       		.byte	0x1a
 5517 1af5 36       		.byte	0x36
 5518 1af6 E8070000 		.4byte	0x7e8
 5519 1afa 40       		.uleb128 0x40
 5520 1afb EE0D0000 		.4byte	.LASF225
 5521 1aff 1A       		.byte	0x1a
 5522 1b00 45       		.byte	0x45
 5523 1b01 8D090000 		.4byte	0x98d
 5524 1b05 09       		.uleb128 0x9
 5525 1b06 151B0000 		.4byte	0x1b15
 5526 1b0a 151B0000 		.4byte	0x1b15
 5527 1b0e 3F       		.uleb128 0x3f
 5528 1b0f 4F010000 		.4byte	0x14f
 5529 1b13 02       		.byte	0x2
 5530 1b14 00       		.byte	0
 5531 1b15 11       		.uleb128 0x11
 5532 1b16 C9030000 		.4byte	0x3c9
 5533 1b1a 43       		.uleb128 0x43
 5534 1b1b EC090000 		.4byte	.LASF226
 5535 1b1f 01       		.byte	0x1
 5536 1b20 86       		.byte	0x86
 5537 1b21 2B1B0000 		.4byte	0x1b2b
 5538 1b25 05       		.uleb128 0x5
 5539 1b26 03       		.byte	0x3
 5540 1b27 00000000 		.4byte	CLOCK_Container_Transitions
 5541 1b2b 11       		.uleb128 0x11
 5542 1b2c 051B0000 		.4byte	0x1b05
 5543 1b30 43       		.uleb128 0x43
 5544 1b31 AA020000 		.4byte	.LASF227
 5545 1b35 01       		.byte	0x1
 5546 1b36 8D       		.byte	0x8d
 5547 1b37 C4030000 		.4byte	0x3c4
 5548 1b3b 05       		.uleb128 0x5
 5549 1b3c 03       		.byte	0x3
 5550 1b3d 00000000 		.4byte	CLOCK_Container_Transitions_Size
 5551 1b41 09       		.uleb128 0x9
 5552 1b42 451A0000 		.4byte	0x1a45
 5553 1b46 511B0000 		.4byte	0x1b51
 5554 1b4a 3F       		.uleb128 0x3f
 5555 1b4b 4F010000 		.4byte	0x14f
 5556 1b4f 00       		.byte	0
 5557 1b50 00       		.byte	0
 5558 1b51 43       		.uleb128 0x43
 5559 1b52 4A000000 		.4byte	.LASF228
ARM GAS  C:\Users\aditi\AppData\Local\Temp\ccxJli9U.s 			page 140


 5560 1b56 01       		.byte	0x1
 5561 1b57 92       		.byte	0x92
 5562 1b58 621B0000 		.4byte	0x1b62
 5563 1b5c 05       		.uleb128 0x5
 5564 1b5d 03       		.byte	0x3
 5565 1b5e 00000000 		.4byte	STATE_CLOCK_W_IS_DISPLAYING_Transitions
 5566 1b62 11       		.uleb128 0x11
 5567 1b63 411B0000 		.4byte	0x1b41
 5568 1b67 09       		.uleb128 0x9
 5569 1b68 451A0000 		.4byte	0x1a45
 5570 1b6c 771B0000 		.4byte	0x1b77
 5571 1b70 3F       		.uleb128 0x3f
 5572 1b71 4F010000 		.4byte	0x14f
 5573 1b75 02       		.byte	0x2
 5574 1b76 00       		.byte	0
 5575 1b77 43       		.uleb128 0x43
 5576 1b78 92070000 		.4byte	.LASF229
 5577 1b7c 01       		.byte	0x1
 5578 1b7d 98       		.byte	0x98
 5579 1b7e 881B0000 		.4byte	0x1b88
 5580 1b82 05       		.uleb128 0x5
 5581 1b83 03       		.byte	0x3
 5582 1b84 00000000 		.4byte	STATE_CLOCK_W_IS_EDITING_Transitions
 5583 1b88 11       		.uleb128 0x11
 5584 1b89 671B0000 		.4byte	0x1b67
 5585 1b8d 43       		.uleb128 0x43
 5586 1b8e F40F0000 		.4byte	.LASF230
 5587 1b92 01       		.byte	0x1
 5588 1b93 A0       		.byte	0xa0
 5589 1b94 9E1B0000 		.4byte	0x1b9e
 5590 1b98 05       		.uleb128 0x5
 5591 1b99 03       		.byte	0x3
 5592 1b9a 00000000 		.4byte	STATE_CLOCK_W_IS_AUTOINCREMENT_Transitions
 5593 1b9e 11       		.uleb128 0x11
 5594 1b9f 351A0000 		.4byte	0x1a35
 5595 1ba3 43       		.uleb128 0x43
 5596 1ba4 190E0000 		.4byte	.LASF231
 5597 1ba8 01       		.byte	0x1
 5598 1ba9 A6       		.byte	0xa6
 5599 1baa B41B0000 		.4byte	0x1bb4
 5600 1bae 05       		.uleb128 0x5
 5601 1baf 03       		.byte	0x3
 5602 1bb0 00000000 		.4byte	CLOCK_Widget_Transitions
 5603 1bb4 11       		.uleb128 0x11
 5604 1bb5 051B0000 		.4byte	0x1b05
 5605 1bb9 43       		.uleb128 0x43
 5606 1bba 720C0000 		.4byte	.LASF232
 5607 1bbe 01       		.byte	0x1
 5608 1bbf AD       		.byte	0xad
 5609 1bc0 C4030000 		.4byte	0x3c4
 5610 1bc4 05       		.uleb128 0x5
 5611 1bc5 03       		.byte	0x3
 5612 1bc6 00000000 		.4byte	CLOCK_Widget_Transitions_Size
 5613 1bca 44       		.uleb128 0x44
 5614 1bcb 410C0000 		.4byte	.LASF233
 5615 1bcf 410C0000 		.4byte	.LASF233
 5616 1bd3 1B       		.byte	0x1b
ARM GAS  C:\Users\aditi\AppData\Local\Temp\ccxJli9U.s 			page 141


 5617 1bd4 4A01     		.2byte	0x14a
 5618 1bd6 45       		.uleb128 0x45
 5619 1bd7 95050000 		.4byte	.LASF234
 5620 1bdb 95050000 		.4byte	.LASF234
 5621 1bdf 1C       		.byte	0x1c
 5622 1be0 8B       		.byte	0x8b
 5623 1be1 45       		.uleb128 0x45
 5624 1be2 7D0D0000 		.4byte	.LASF235
 5625 1be6 7D0D0000 		.4byte	.LASF235
 5626 1bea 12       		.byte	0x12
 5627 1beb 84       		.byte	0x84
 5628 1bec 44       		.uleb128 0x44
 5629 1bed 790F0000 		.4byte	.LASF236
 5630 1bf1 790F0000 		.4byte	.LASF236
 5631 1bf5 14       		.byte	0x14
 5632 1bf6 7501     		.2byte	0x175
 5633 1bf8 45       		.uleb128 0x45
 5634 1bf9 12090000 		.4byte	.LASF237
 5635 1bfd 12090000 		.4byte	.LASF237
 5636 1c01 14       		.byte	0x14
 5637 1c02 DC       		.byte	0xdc
 5638 1c03 45       		.uleb128 0x45
 5639 1c04 A80B0000 		.4byte	.LASF238
 5640 1c08 A80B0000 		.4byte	.LASF238
 5641 1c0c 1C       		.byte	0x1c
 5642 1c0d 8A       		.byte	0x8a
 5643 1c0e 45       		.uleb128 0x45
 5644 1c0f 5C050000 		.4byte	.LASF239
 5645 1c13 5C050000 		.4byte	.LASF239
 5646 1c17 1D       		.byte	0x1d
 5647 1c18 29       		.byte	0x29
 5648 1c19 45       		.uleb128 0x45
 5649 1c1a A9010000 		.4byte	.LASF240
 5650 1c1e A9010000 		.4byte	.LASF240
 5651 1c22 1E       		.byte	0x1e
 5652 1c23 29       		.byte	0x29
 5653 1c24 45       		.uleb128 0x45
 5654 1c25 C0090000 		.4byte	.LASF241
 5655 1c29 C0090000 		.4byte	.LASF241
 5656 1c2d 1F       		.byte	0x1f
 5657 1c2e 4B       		.byte	0x4b
 5658 1c2f 45       		.uleb128 0x45
 5659 1c30 EF010000 		.4byte	.LASF242
 5660 1c34 EF010000 		.4byte	.LASF242
 5661 1c38 07       		.byte	0x7
 5662 1c39 40       		.byte	0x40
 5663 1c3a 45       		.uleb128 0x45
 5664 1c3b BD010000 		.4byte	.LASF243
 5665 1c3f BD010000 		.4byte	.LASF243
 5666 1c43 20       		.byte	0x20
 5667 1c44 68       		.byte	0x68
 5668 1c45 45       		.uleb128 0x45
 5669 1c46 F3020000 		.4byte	.LASF244
 5670 1c4a F3020000 		.4byte	.LASF244
 5671 1c4e 20       		.byte	0x20
 5672 1c4f 69       		.byte	0x69
 5673 1c50 00       		.byte	0
ARM GAS  C:\Users\aditi\AppData\Local\Temp\ccxJli9U.s 			page 142


 5674              		.section	.debug_abbrev,"",%progbits
 5675              	.Ldebug_abbrev0:
 5676 0000 01       		.uleb128 0x1
 5677 0001 11       		.uleb128 0x11
 5678 0002 01       		.byte	0x1
 5679 0003 25       		.uleb128 0x25
 5680 0004 0E       		.uleb128 0xe
 5681 0005 13       		.uleb128 0x13
 5682 0006 0B       		.uleb128 0xb
 5683 0007 03       		.uleb128 0x3
 5684 0008 0E       		.uleb128 0xe
 5685 0009 1B       		.uleb128 0x1b
 5686 000a 0E       		.uleb128 0xe
 5687 000b 55       		.uleb128 0x55
 5688 000c 17       		.uleb128 0x17
 5689 000d 11       		.uleb128 0x11
 5690 000e 01       		.uleb128 0x1
 5691 000f 10       		.uleb128 0x10
 5692 0010 17       		.uleb128 0x17
 5693 0011 00       		.byte	0
 5694 0012 00       		.byte	0
 5695 0013 02       		.uleb128 0x2
 5696 0014 24       		.uleb128 0x24
 5697 0015 00       		.byte	0
 5698 0016 0B       		.uleb128 0xb
 5699 0017 0B       		.uleb128 0xb
 5700 0018 3E       		.uleb128 0x3e
 5701 0019 0B       		.uleb128 0xb
 5702 001a 03       		.uleb128 0x3
 5703 001b 0E       		.uleb128 0xe
 5704 001c 00       		.byte	0
 5705 001d 00       		.byte	0
 5706 001e 03       		.uleb128 0x3
 5707 001f 16       		.uleb128 0x16
 5708 0020 00       		.byte	0
 5709 0021 03       		.uleb128 0x3
 5710 0022 0E       		.uleb128 0xe
 5711 0023 3A       		.uleb128 0x3a
 5712 0024 0B       		.uleb128 0xb
 5713 0025 3B       		.uleb128 0x3b
 5714 0026 0B       		.uleb128 0xb
 5715 0027 49       		.uleb128 0x49
 5716 0028 13       		.uleb128 0x13
 5717 0029 00       		.byte	0
 5718 002a 00       		.byte	0
 5719 002b 04       		.uleb128 0x4
 5720 002c 24       		.uleb128 0x24
 5721 002d 00       		.byte	0
 5722 002e 0B       		.uleb128 0xb
 5723 002f 0B       		.uleb128 0xb
 5724 0030 3E       		.uleb128 0x3e
 5725 0031 0B       		.uleb128 0xb
 5726 0032 03       		.uleb128 0x3
 5727 0033 08       		.uleb128 0x8
 5728 0034 00       		.byte	0
 5729 0035 00       		.byte	0
 5730 0036 05       		.uleb128 0x5
ARM GAS  C:\Users\aditi\AppData\Local\Temp\ccxJli9U.s 			page 143


 5731 0037 16       		.uleb128 0x16
 5732 0038 00       		.byte	0
 5733 0039 03       		.uleb128 0x3
 5734 003a 0E       		.uleb128 0xe
 5735 003b 3A       		.uleb128 0x3a
 5736 003c 0B       		.uleb128 0xb
 5737 003d 3B       		.uleb128 0x3b
 5738 003e 05       		.uleb128 0x5
 5739 003f 49       		.uleb128 0x49
 5740 0040 13       		.uleb128 0x13
 5741 0041 00       		.byte	0
 5742 0042 00       		.byte	0
 5743 0043 06       		.uleb128 0x6
 5744 0044 04       		.uleb128 0x4
 5745 0045 01       		.byte	0x1
 5746 0046 0B       		.uleb128 0xb
 5747 0047 0B       		.uleb128 0xb
 5748 0048 49       		.uleb128 0x49
 5749 0049 13       		.uleb128 0x13
 5750 004a 3A       		.uleb128 0x3a
 5751 004b 0B       		.uleb128 0xb
 5752 004c 3B       		.uleb128 0x3b
 5753 004d 0B       		.uleb128 0xb
 5754 004e 01       		.uleb128 0x1
 5755 004f 13       		.uleb128 0x13
 5756 0050 00       		.byte	0
 5757 0051 00       		.byte	0
 5758 0052 07       		.uleb128 0x7
 5759 0053 28       		.uleb128 0x28
 5760 0054 00       		.byte	0
 5761 0055 03       		.uleb128 0x3
 5762 0056 0E       		.uleb128 0xe
 5763 0057 1C       		.uleb128 0x1c
 5764 0058 0B       		.uleb128 0xb
 5765 0059 00       		.byte	0
 5766 005a 00       		.byte	0
 5767 005b 08       		.uleb128 0x8
 5768 005c 28       		.uleb128 0x28
 5769 005d 00       		.byte	0
 5770 005e 03       		.uleb128 0x3
 5771 005f 0E       		.uleb128 0xe
 5772 0060 1C       		.uleb128 0x1c
 5773 0061 0D       		.uleb128 0xd
 5774 0062 00       		.byte	0
 5775 0063 00       		.byte	0
 5776 0064 09       		.uleb128 0x9
 5777 0065 01       		.uleb128 0x1
 5778 0066 01       		.byte	0x1
 5779 0067 49       		.uleb128 0x49
 5780 0068 13       		.uleb128 0x13
 5781 0069 01       		.uleb128 0x1
 5782 006a 13       		.uleb128 0x13
 5783 006b 00       		.byte	0
 5784 006c 00       		.byte	0
 5785 006d 0A       		.uleb128 0xa
 5786 006e 21       		.uleb128 0x21
 5787 006f 00       		.byte	0
ARM GAS  C:\Users\aditi\AppData\Local\Temp\ccxJli9U.s 			page 144


 5788 0070 00       		.byte	0
 5789 0071 00       		.byte	0
 5790 0072 0B       		.uleb128 0xb
 5791 0073 13       		.uleb128 0x13
 5792 0074 01       		.byte	0x1
 5793 0075 0B       		.uleb128 0xb
 5794 0076 0B       		.uleb128 0xb
 5795 0077 3A       		.uleb128 0x3a
 5796 0078 0B       		.uleb128 0xb
 5797 0079 3B       		.uleb128 0x3b
 5798 007a 0B       		.uleb128 0xb
 5799 007b 01       		.uleb128 0x1
 5800 007c 13       		.uleb128 0x13
 5801 007d 00       		.byte	0
 5802 007e 00       		.byte	0
 5803 007f 0C       		.uleb128 0xc
 5804 0080 0D       		.uleb128 0xd
 5805 0081 00       		.byte	0
 5806 0082 03       		.uleb128 0x3
 5807 0083 0E       		.uleb128 0xe
 5808 0084 3A       		.uleb128 0x3a
 5809 0085 0B       		.uleb128 0xb
 5810 0086 3B       		.uleb128 0x3b
 5811 0087 0B       		.uleb128 0xb
 5812 0088 49       		.uleb128 0x49
 5813 0089 13       		.uleb128 0x13
 5814 008a 38       		.uleb128 0x38
 5815 008b 0B       		.uleb128 0xb
 5816 008c 00       		.byte	0
 5817 008d 00       		.byte	0
 5818 008e 0D       		.uleb128 0xd
 5819 008f 0F       		.uleb128 0xf
 5820 0090 00       		.byte	0
 5821 0091 0B       		.uleb128 0xb
 5822 0092 0B       		.uleb128 0xb
 5823 0093 49       		.uleb128 0x49
 5824 0094 13       		.uleb128 0x13
 5825 0095 00       		.byte	0
 5826 0096 00       		.byte	0
 5827 0097 0E       		.uleb128 0xe
 5828 0098 15       		.uleb128 0x15
 5829 0099 01       		.byte	0x1
 5830 009a 01       		.uleb128 0x1
 5831 009b 13       		.uleb128 0x13
 5832 009c 00       		.byte	0
 5833 009d 00       		.byte	0
 5834 009e 0F       		.uleb128 0xf
 5835 009f 18       		.uleb128 0x18
 5836 00a0 00       		.byte	0
 5837 00a1 00       		.byte	0
 5838 00a2 00       		.byte	0
 5839 00a3 10       		.uleb128 0x10
 5840 00a4 15       		.uleb128 0x15
 5841 00a5 01       		.byte	0x1
 5842 00a6 49       		.uleb128 0x49
 5843 00a7 13       		.uleb128 0x13
 5844 00a8 01       		.uleb128 0x1
ARM GAS  C:\Users\aditi\AppData\Local\Temp\ccxJli9U.s 			page 145


 5845 00a9 13       		.uleb128 0x13
 5846 00aa 00       		.byte	0
 5847 00ab 00       		.byte	0
 5848 00ac 11       		.uleb128 0x11
 5849 00ad 26       		.uleb128 0x26
 5850 00ae 00       		.byte	0
 5851 00af 49       		.uleb128 0x49
 5852 00b0 13       		.uleb128 0x13
 5853 00b1 00       		.byte	0
 5854 00b2 00       		.byte	0
 5855 00b3 12       		.uleb128 0x12
 5856 00b4 28       		.uleb128 0x28
 5857 00b5 00       		.byte	0
 5858 00b6 03       		.uleb128 0x3
 5859 00b7 0E       		.uleb128 0xe
 5860 00b8 1C       		.uleb128 0x1c
 5861 00b9 05       		.uleb128 0x5
 5862 00ba 00       		.byte	0
 5863 00bb 00       		.byte	0
 5864 00bc 13       		.uleb128 0x13
 5865 00bd 28       		.uleb128 0x28
 5866 00be 00       		.byte	0
 5867 00bf 03       		.uleb128 0x3
 5868 00c0 08       		.uleb128 0x8
 5869 00c1 1C       		.uleb128 0x1c
 5870 00c2 0B       		.uleb128 0xb
 5871 00c3 00       		.byte	0
 5872 00c4 00       		.byte	0
 5873 00c5 14       		.uleb128 0x14
 5874 00c6 15       		.uleb128 0x15
 5875 00c7 01       		.byte	0x1
 5876 00c8 27       		.uleb128 0x27
 5877 00c9 19       		.uleb128 0x19
 5878 00ca 49       		.uleb128 0x49
 5879 00cb 13       		.uleb128 0x13
 5880 00cc 01       		.uleb128 0x1
 5881 00cd 13       		.uleb128 0x13
 5882 00ce 00       		.byte	0
 5883 00cf 00       		.byte	0
 5884 00d0 15       		.uleb128 0x15
 5885 00d1 05       		.uleb128 0x5
 5886 00d2 00       		.byte	0
 5887 00d3 49       		.uleb128 0x49
 5888 00d4 13       		.uleb128 0x13
 5889 00d5 00       		.byte	0
 5890 00d6 00       		.byte	0
 5891 00d7 16       		.uleb128 0x16
 5892 00d8 13       		.uleb128 0x13
 5893 00d9 01       		.byte	0x1
 5894 00da 03       		.uleb128 0x3
 5895 00db 0E       		.uleb128 0xe
 5896 00dc 0B       		.uleb128 0xb
 5897 00dd 0B       		.uleb128 0xb
 5898 00de 3A       		.uleb128 0x3a
 5899 00df 0B       		.uleb128 0xb
 5900 00e0 3B       		.uleb128 0x3b
 5901 00e1 0B       		.uleb128 0xb
ARM GAS  C:\Users\aditi\AppData\Local\Temp\ccxJli9U.s 			page 146


 5902 00e2 01       		.uleb128 0x1
 5903 00e3 13       		.uleb128 0x13
 5904 00e4 00       		.byte	0
 5905 00e5 00       		.byte	0
 5906 00e6 17       		.uleb128 0x17
 5907 00e7 0D       		.uleb128 0xd
 5908 00e8 00       		.byte	0
 5909 00e9 03       		.uleb128 0x3
 5910 00ea 08       		.uleb128 0x8
 5911 00eb 3A       		.uleb128 0x3a
 5912 00ec 0B       		.uleb128 0xb
 5913 00ed 3B       		.uleb128 0x3b
 5914 00ee 0B       		.uleb128 0xb
 5915 00ef 49       		.uleb128 0x49
 5916 00f0 13       		.uleb128 0x13
 5917 00f1 38       		.uleb128 0x38
 5918 00f2 0B       		.uleb128 0xb
 5919 00f3 00       		.byte	0
 5920 00f4 00       		.byte	0
 5921 00f5 18       		.uleb128 0x18
 5922 00f6 2E       		.uleb128 0x2e
 5923 00f7 01       		.byte	0x1
 5924 00f8 3F       		.uleb128 0x3f
 5925 00f9 19       		.uleb128 0x19
 5926 00fa 03       		.uleb128 0x3
 5927 00fb 0E       		.uleb128 0xe
 5928 00fc 3A       		.uleb128 0x3a
 5929 00fd 0B       		.uleb128 0xb
 5930 00fe 3B       		.uleb128 0x3b
 5931 00ff 05       		.uleb128 0x5
 5932 0100 27       		.uleb128 0x27
 5933 0101 19       		.uleb128 0x19
 5934 0102 49       		.uleb128 0x49
 5935 0103 13       		.uleb128 0x13
 5936 0104 20       		.uleb128 0x20
 5937 0105 0B       		.uleb128 0xb
 5938 0106 01       		.uleb128 0x1
 5939 0107 13       		.uleb128 0x13
 5940 0108 00       		.byte	0
 5941 0109 00       		.byte	0
 5942 010a 19       		.uleb128 0x19
 5943 010b 05       		.uleb128 0x5
 5944 010c 00       		.byte	0
 5945 010d 03       		.uleb128 0x3
 5946 010e 0E       		.uleb128 0xe
 5947 010f 3A       		.uleb128 0x3a
 5948 0110 0B       		.uleb128 0xb
 5949 0111 3B       		.uleb128 0x3b
 5950 0112 05       		.uleb128 0x5
 5951 0113 49       		.uleb128 0x49
 5952 0114 13       		.uleb128 0x13
 5953 0115 00       		.byte	0
 5954 0116 00       		.byte	0
 5955 0117 1A       		.uleb128 0x1a
 5956 0118 34       		.uleb128 0x34
 5957 0119 00       		.byte	0
 5958 011a 03       		.uleb128 0x3
ARM GAS  C:\Users\aditi\AppData\Local\Temp\ccxJli9U.s 			page 147


 5959 011b 08       		.uleb128 0x8
 5960 011c 3A       		.uleb128 0x3a
 5961 011d 0B       		.uleb128 0xb
 5962 011e 3B       		.uleb128 0x3b
 5963 011f 05       		.uleb128 0x5
 5964 0120 49       		.uleb128 0x49
 5965 0121 13       		.uleb128 0x13
 5966 0122 00       		.byte	0
 5967 0123 00       		.byte	0
 5968 0124 1B       		.uleb128 0x1b
 5969 0125 34       		.uleb128 0x34
 5970 0126 00       		.byte	0
 5971 0127 03       		.uleb128 0x3
 5972 0128 0E       		.uleb128 0xe
 5973 0129 3A       		.uleb128 0x3a
 5974 012a 0B       		.uleb128 0xb
 5975 012b 3B       		.uleb128 0x3b
 5976 012c 05       		.uleb128 0x5
 5977 012d 49       		.uleb128 0x49
 5978 012e 13       		.uleb128 0x13
 5979 012f 00       		.byte	0
 5980 0130 00       		.byte	0
 5981 0131 1C       		.uleb128 0x1c
 5982 0132 0B       		.uleb128 0xb
 5983 0133 01       		.byte	0x1
 5984 0134 00       		.byte	0
 5985 0135 00       		.byte	0
 5986 0136 1D       		.uleb128 0x1d
 5987 0137 2E       		.uleb128 0x2e
 5988 0138 00       		.byte	0
 5989 0139 03       		.uleb128 0x3
 5990 013a 0E       		.uleb128 0xe
 5991 013b 3A       		.uleb128 0x3a
 5992 013c 0B       		.uleb128 0xb
 5993 013d 3B       		.uleb128 0x3b
 5994 013e 0B       		.uleb128 0xb
 5995 013f 27       		.uleb128 0x27
 5996 0140 19       		.uleb128 0x19
 5997 0141 20       		.uleb128 0x20
 5998 0142 0B       		.uleb128 0xb
 5999 0143 00       		.byte	0
 6000 0144 00       		.byte	0
 6001 0145 1E       		.uleb128 0x1e
 6002 0146 2E       		.uleb128 0x2e
 6003 0147 01       		.byte	0x1
 6004 0148 03       		.uleb128 0x3
 6005 0149 0E       		.uleb128 0xe
 6006 014a 3A       		.uleb128 0x3a
 6007 014b 0B       		.uleb128 0xb
 6008 014c 3B       		.uleb128 0x3b
 6009 014d 05       		.uleb128 0x5
 6010 014e 27       		.uleb128 0x27
 6011 014f 19       		.uleb128 0x19
 6012 0150 20       		.uleb128 0x20
 6013 0151 0B       		.uleb128 0xb
 6014 0152 01       		.uleb128 0x1
 6015 0153 13       		.uleb128 0x13
ARM GAS  C:\Users\aditi\AppData\Local\Temp\ccxJli9U.s 			page 148


 6016 0154 00       		.byte	0
 6017 0155 00       		.byte	0
 6018 0156 1F       		.uleb128 0x1f
 6019 0157 2E       		.uleb128 0x2e
 6020 0158 01       		.byte	0x1
 6021 0159 03       		.uleb128 0x3
 6022 015a 0E       		.uleb128 0xe
 6023 015b 3A       		.uleb128 0x3a
 6024 015c 0B       		.uleb128 0xb
 6025 015d 3B       		.uleb128 0x3b
 6026 015e 05       		.uleb128 0x5
 6027 015f 27       		.uleb128 0x27
 6028 0160 19       		.uleb128 0x19
 6029 0161 49       		.uleb128 0x49
 6030 0162 13       		.uleb128 0x13
 6031 0163 20       		.uleb128 0x20
 6032 0164 0B       		.uleb128 0xb
 6033 0165 01       		.uleb128 0x1
 6034 0166 13       		.uleb128 0x13
 6035 0167 00       		.byte	0
 6036 0168 00       		.byte	0
 6037 0169 20       		.uleb128 0x20
 6038 016a 2E       		.uleb128 0x2e
 6039 016b 00       		.byte	0
 6040 016c 03       		.uleb128 0x3
 6041 016d 0E       		.uleb128 0xe
 6042 016e 3A       		.uleb128 0x3a
 6043 016f 0B       		.uleb128 0xb
 6044 0170 3B       		.uleb128 0x3b
 6045 0171 0B       		.uleb128 0xb
 6046 0172 27       		.uleb128 0x27
 6047 0173 19       		.uleb128 0x19
 6048 0174 49       		.uleb128 0x49
 6049 0175 13       		.uleb128 0x13
 6050 0176 20       		.uleb128 0x20
 6051 0177 0B       		.uleb128 0xb
 6052 0178 00       		.byte	0
 6053 0179 00       		.byte	0
 6054 017a 21       		.uleb128 0x21
 6055 017b 2E       		.uleb128 0x2e
 6056 017c 01       		.byte	0x1
 6057 017d 03       		.uleb128 0x3
 6058 017e 0E       		.uleb128 0xe
 6059 017f 3A       		.uleb128 0x3a
 6060 0180 0B       		.uleb128 0xb
 6061 0181 3B       		.uleb128 0x3b
 6062 0182 05       		.uleb128 0x5
 6063 0183 11       		.uleb128 0x11
 6064 0184 01       		.uleb128 0x1
 6065 0185 12       		.uleb128 0x12
 6066 0186 06       		.uleb128 0x6
 6067 0187 40       		.uleb128 0x40
 6068 0188 18       		.uleb128 0x18
 6069 0189 9742     		.uleb128 0x2117
 6070 018b 19       		.uleb128 0x19
 6071 018c 01       		.uleb128 0x1
 6072 018d 13       		.uleb128 0x13
ARM GAS  C:\Users\aditi\AppData\Local\Temp\ccxJli9U.s 			page 149


 6073 018e 00       		.byte	0
 6074 018f 00       		.byte	0
 6075 0190 22       		.uleb128 0x22
 6076 0191 34       		.uleb128 0x34
 6077 0192 00       		.byte	0
 6078 0193 03       		.uleb128 0x3
 6079 0194 0E       		.uleb128 0xe
 6080 0195 3A       		.uleb128 0x3a
 6081 0196 0B       		.uleb128 0xb
 6082 0197 3B       		.uleb128 0x3b
 6083 0198 05       		.uleb128 0x5
 6084 0199 49       		.uleb128 0x49
 6085 019a 13       		.uleb128 0x13
 6086 019b 02       		.uleb128 0x2
 6087 019c 18       		.uleb128 0x18
 6088 019d 00       		.byte	0
 6089 019e 00       		.byte	0
 6090 019f 23       		.uleb128 0x23
 6091 01a0 1D       		.uleb128 0x1d
 6092 01a1 01       		.byte	0x1
 6093 01a2 31       		.uleb128 0x31
 6094 01a3 13       		.uleb128 0x13
 6095 01a4 11       		.uleb128 0x11
 6096 01a5 01       		.uleb128 0x1
 6097 01a6 12       		.uleb128 0x12
 6098 01a7 06       		.uleb128 0x6
 6099 01a8 58       		.uleb128 0x58
 6100 01a9 0B       		.uleb128 0xb
 6101 01aa 59       		.uleb128 0x59
 6102 01ab 05       		.uleb128 0x5
 6103 01ac 01       		.uleb128 0x1
 6104 01ad 13       		.uleb128 0x13
 6105 01ae 00       		.byte	0
 6106 01af 00       		.byte	0
 6107 01b0 24       		.uleb128 0x24
 6108 01b1 05       		.uleb128 0x5
 6109 01b2 00       		.byte	0
 6110 01b3 31       		.uleb128 0x31
 6111 01b4 13       		.uleb128 0x13
 6112 01b5 00       		.byte	0
 6113 01b6 00       		.byte	0
 6114 01b7 25       		.uleb128 0x25
 6115 01b8 05       		.uleb128 0x5
 6116 01b9 00       		.byte	0
 6117 01ba 31       		.uleb128 0x31
 6118 01bb 13       		.uleb128 0x13
 6119 01bc 02       		.uleb128 0x2
 6120 01bd 18       		.uleb128 0x18
 6121 01be 00       		.byte	0
 6122 01bf 00       		.byte	0
 6123 01c0 26       		.uleb128 0x26
 6124 01c1 0B       		.uleb128 0xb
 6125 01c2 01       		.byte	0x1
 6126 01c3 11       		.uleb128 0x11
 6127 01c4 01       		.uleb128 0x1
 6128 01c5 12       		.uleb128 0x12
 6129 01c6 06       		.uleb128 0x6
ARM GAS  C:\Users\aditi\AppData\Local\Temp\ccxJli9U.s 			page 150


 6130 01c7 00       		.byte	0
 6131 01c8 00       		.byte	0
 6132 01c9 27       		.uleb128 0x27
 6133 01ca 34       		.uleb128 0x34
 6134 01cb 00       		.byte	0
 6135 01cc 31       		.uleb128 0x31
 6136 01cd 13       		.uleb128 0x13
 6137 01ce 1C       		.uleb128 0x1c
 6138 01cf 0B       		.uleb128 0xb
 6139 01d0 00       		.byte	0
 6140 01d1 00       		.byte	0
 6141 01d2 28       		.uleb128 0x28
 6142 01d3 34       		.uleb128 0x34
 6143 01d4 00       		.byte	0
 6144 01d5 31       		.uleb128 0x31
 6145 01d6 13       		.uleb128 0x13
 6146 01d7 02       		.uleb128 0x2
 6147 01d8 17       		.uleb128 0x17
 6148 01d9 00       		.byte	0
 6149 01da 00       		.byte	0
 6150 01db 29       		.uleb128 0x29
 6151 01dc 898201   		.uleb128 0x4109
 6152 01df 00       		.byte	0
 6153 01e0 11       		.uleb128 0x11
 6154 01e1 01       		.uleb128 0x1
 6155 01e2 31       		.uleb128 0x31
 6156 01e3 13       		.uleb128 0x13
 6157 01e4 00       		.byte	0
 6158 01e5 00       		.byte	0
 6159 01e6 2A       		.uleb128 0x2a
 6160 01e7 898201   		.uleb128 0x4109
 6161 01ea 01       		.byte	0x1
 6162 01eb 11       		.uleb128 0x11
 6163 01ec 01       		.uleb128 0x1
 6164 01ed 31       		.uleb128 0x31
 6165 01ee 13       		.uleb128 0x13
 6166 01ef 00       		.byte	0
 6167 01f0 00       		.byte	0
 6168 01f1 2B       		.uleb128 0x2b
 6169 01f2 8A8201   		.uleb128 0x410a
 6170 01f5 00       		.byte	0
 6171 01f6 02       		.uleb128 0x2
 6172 01f7 18       		.uleb128 0x18
 6173 01f8 9142     		.uleb128 0x2111
 6174 01fa 18       		.uleb128 0x18
 6175 01fb 00       		.byte	0
 6176 01fc 00       		.byte	0
 6177 01fd 2C       		.uleb128 0x2c
 6178 01fe 2E       		.uleb128 0x2e
 6179 01ff 01       		.byte	0x1
 6180 0200 03       		.uleb128 0x3
 6181 0201 0E       		.uleb128 0xe
 6182 0202 3A       		.uleb128 0x3a
 6183 0203 0B       		.uleb128 0xb
 6184 0204 3B       		.uleb128 0x3b
 6185 0205 05       		.uleb128 0x5
 6186 0206 27       		.uleb128 0x27
ARM GAS  C:\Users\aditi\AppData\Local\Temp\ccxJli9U.s 			page 151


 6187 0207 19       		.uleb128 0x19
 6188 0208 11       		.uleb128 0x11
 6189 0209 01       		.uleb128 0x1
 6190 020a 12       		.uleb128 0x12
 6191 020b 06       		.uleb128 0x6
 6192 020c 40       		.uleb128 0x40
 6193 020d 18       		.uleb128 0x18
 6194 020e 9742     		.uleb128 0x2117
 6195 0210 19       		.uleb128 0x19
 6196 0211 01       		.uleb128 0x1
 6197 0212 13       		.uleb128 0x13
 6198 0213 00       		.byte	0
 6199 0214 00       		.byte	0
 6200 0215 2D       		.uleb128 0x2d
 6201 0216 05       		.uleb128 0x5
 6202 0217 00       		.byte	0
 6203 0218 03       		.uleb128 0x3
 6204 0219 08       		.uleb128 0x8
 6205 021a 3A       		.uleb128 0x3a
 6206 021b 0B       		.uleb128 0xb
 6207 021c 3B       		.uleb128 0x3b
 6208 021d 05       		.uleb128 0x5
 6209 021e 49       		.uleb128 0x49
 6210 021f 13       		.uleb128 0x13
 6211 0220 02       		.uleb128 0x2
 6212 0221 17       		.uleb128 0x17
 6213 0222 00       		.byte	0
 6214 0223 00       		.byte	0
 6215 0224 2E       		.uleb128 0x2e
 6216 0225 05       		.uleb128 0x5
 6217 0226 00       		.byte	0
 6218 0227 03       		.uleb128 0x3
 6219 0228 0E       		.uleb128 0xe
 6220 0229 3A       		.uleb128 0x3a
 6221 022a 0B       		.uleb128 0xb
 6222 022b 3B       		.uleb128 0x3b
 6223 022c 05       		.uleb128 0x5
 6224 022d 49       		.uleb128 0x49
 6225 022e 13       		.uleb128 0x13
 6226 022f 02       		.uleb128 0x2
 6227 0230 17       		.uleb128 0x17
 6228 0231 00       		.byte	0
 6229 0232 00       		.byte	0
 6230 0233 2F       		.uleb128 0x2f
 6231 0234 0B       		.uleb128 0xb
 6232 0235 01       		.byte	0x1
 6233 0236 11       		.uleb128 0x11
 6234 0237 01       		.uleb128 0x1
 6235 0238 12       		.uleb128 0x12
 6236 0239 06       		.uleb128 0x6
 6237 023a 01       		.uleb128 0x1
 6238 023b 13       		.uleb128 0x13
 6239 023c 00       		.byte	0
 6240 023d 00       		.byte	0
 6241 023e 30       		.uleb128 0x30
 6242 023f 898201   		.uleb128 0x4109
 6243 0242 01       		.byte	0x1
ARM GAS  C:\Users\aditi\AppData\Local\Temp\ccxJli9U.s 			page 152


 6244 0243 11       		.uleb128 0x11
 6245 0244 01       		.uleb128 0x1
 6246 0245 31       		.uleb128 0x31
 6247 0246 13       		.uleb128 0x13
 6248 0247 01       		.uleb128 0x1
 6249 0248 13       		.uleb128 0x13
 6250 0249 00       		.byte	0
 6251 024a 00       		.byte	0
 6252 024b 31       		.uleb128 0x31
 6253 024c 2E       		.uleb128 0x2e
 6254 024d 01       		.byte	0x1
 6255 024e 3F       		.uleb128 0x3f
 6256 024f 19       		.uleb128 0x19
 6257 0250 03       		.uleb128 0x3
 6258 0251 0E       		.uleb128 0xe
 6259 0252 3A       		.uleb128 0x3a
 6260 0253 0B       		.uleb128 0xb
 6261 0254 3B       		.uleb128 0x3b
 6262 0255 0B       		.uleb128 0xb
 6263 0256 27       		.uleb128 0x27
 6264 0257 19       		.uleb128 0x19
 6265 0258 11       		.uleb128 0x11
 6266 0259 01       		.uleb128 0x1
 6267 025a 12       		.uleb128 0x12
 6268 025b 06       		.uleb128 0x6
 6269 025c 40       		.uleb128 0x40
 6270 025d 18       		.uleb128 0x18
 6271 025e 9742     		.uleb128 0x2117
 6272 0260 19       		.uleb128 0x19
 6273 0261 01       		.uleb128 0x1
 6274 0262 13       		.uleb128 0x13
 6275 0263 00       		.byte	0
 6276 0264 00       		.byte	0
 6277 0265 32       		.uleb128 0x32
 6278 0266 05       		.uleb128 0x5
 6279 0267 00       		.byte	0
 6280 0268 03       		.uleb128 0x3
 6281 0269 08       		.uleb128 0x8
 6282 026a 3A       		.uleb128 0x3a
 6283 026b 0B       		.uleb128 0xb
 6284 026c 3B       		.uleb128 0x3b
 6285 026d 0B       		.uleb128 0xb
 6286 026e 49       		.uleb128 0x49
 6287 026f 13       		.uleb128 0x13
 6288 0270 02       		.uleb128 0x2
 6289 0271 17       		.uleb128 0x17
 6290 0272 00       		.byte	0
 6291 0273 00       		.byte	0
 6292 0274 33       		.uleb128 0x33
 6293 0275 34       		.uleb128 0x34
 6294 0276 00       		.byte	0
 6295 0277 03       		.uleb128 0x3
 6296 0278 0E       		.uleb128 0xe
 6297 0279 3A       		.uleb128 0x3a
 6298 027a 0B       		.uleb128 0xb
 6299 027b 3B       		.uleb128 0x3b
 6300 027c 0B       		.uleb128 0xb
ARM GAS  C:\Users\aditi\AppData\Local\Temp\ccxJli9U.s 			page 153


 6301 027d 49       		.uleb128 0x49
 6302 027e 13       		.uleb128 0x13
 6303 027f 02       		.uleb128 0x2
 6304 0280 18       		.uleb128 0x18
 6305 0281 00       		.byte	0
 6306 0282 00       		.byte	0
 6307 0283 34       		.uleb128 0x34
 6308 0284 34       		.uleb128 0x34
 6309 0285 00       		.byte	0
 6310 0286 03       		.uleb128 0x3
 6311 0287 0E       		.uleb128 0xe
 6312 0288 3A       		.uleb128 0x3a
 6313 0289 0B       		.uleb128 0xb
 6314 028a 3B       		.uleb128 0x3b
 6315 028b 0B       		.uleb128 0xb
 6316 028c 49       		.uleb128 0x49
 6317 028d 13       		.uleb128 0x13
 6318 028e 00       		.byte	0
 6319 028f 00       		.byte	0
 6320 0290 35       		.uleb128 0x35
 6321 0291 1D       		.uleb128 0x1d
 6322 0292 01       		.byte	0x1
 6323 0293 31       		.uleb128 0x31
 6324 0294 13       		.uleb128 0x13
 6325 0295 11       		.uleb128 0x11
 6326 0296 01       		.uleb128 0x1
 6327 0297 12       		.uleb128 0x12
 6328 0298 06       		.uleb128 0x6
 6329 0299 58       		.uleb128 0x58
 6330 029a 0B       		.uleb128 0xb
 6331 029b 59       		.uleb128 0x59
 6332 029c 0B       		.uleb128 0xb
 6333 029d 01       		.uleb128 0x1
 6334 029e 13       		.uleb128 0x13
 6335 029f 00       		.byte	0
 6336 02a0 00       		.byte	0
 6337 02a1 36       		.uleb128 0x36
 6338 02a2 1D       		.uleb128 0x1d
 6339 02a3 01       		.byte	0x1
 6340 02a4 31       		.uleb128 0x31
 6341 02a5 13       		.uleb128 0x13
 6342 02a6 11       		.uleb128 0x11
 6343 02a7 01       		.uleb128 0x1
 6344 02a8 12       		.uleb128 0x12
 6345 02a9 06       		.uleb128 0x6
 6346 02aa 58       		.uleb128 0x58
 6347 02ab 0B       		.uleb128 0xb
 6348 02ac 59       		.uleb128 0x59
 6349 02ad 0B       		.uleb128 0xb
 6350 02ae 00       		.byte	0
 6351 02af 00       		.byte	0
 6352 02b0 37       		.uleb128 0x37
 6353 02b1 2E       		.uleb128 0x2e
 6354 02b2 01       		.byte	0x1
 6355 02b3 3F       		.uleb128 0x3f
 6356 02b4 19       		.uleb128 0x19
 6357 02b5 03       		.uleb128 0x3
ARM GAS  C:\Users\aditi\AppData\Local\Temp\ccxJli9U.s 			page 154


 6358 02b6 0E       		.uleb128 0xe
 6359 02b7 3A       		.uleb128 0x3a
 6360 02b8 0B       		.uleb128 0xb
 6361 02b9 3B       		.uleb128 0x3b
 6362 02ba 05       		.uleb128 0x5
 6363 02bb 27       		.uleb128 0x27
 6364 02bc 19       		.uleb128 0x19
 6365 02bd 11       		.uleb128 0x11
 6366 02be 01       		.uleb128 0x1
 6367 02bf 12       		.uleb128 0x12
 6368 02c0 06       		.uleb128 0x6
 6369 02c1 40       		.uleb128 0x40
 6370 02c2 18       		.uleb128 0x18
 6371 02c3 9642     		.uleb128 0x2116
 6372 02c5 19       		.uleb128 0x19
 6373 02c6 01       		.uleb128 0x1
 6374 02c7 13       		.uleb128 0x13
 6375 02c8 00       		.byte	0
 6376 02c9 00       		.byte	0
 6377 02ca 38       		.uleb128 0x38
 6378 02cb 1D       		.uleb128 0x1d
 6379 02cc 01       		.byte	0x1
 6380 02cd 31       		.uleb128 0x31
 6381 02ce 13       		.uleb128 0x13
 6382 02cf 11       		.uleb128 0x11
 6383 02d0 01       		.uleb128 0x1
 6384 02d1 12       		.uleb128 0x12
 6385 02d2 06       		.uleb128 0x6
 6386 02d3 58       		.uleb128 0x58
 6387 02d4 0B       		.uleb128 0xb
 6388 02d5 59       		.uleb128 0x59
 6389 02d6 05       		.uleb128 0x5
 6390 02d7 00       		.byte	0
 6391 02d8 00       		.byte	0
 6392 02d9 39       		.uleb128 0x39
 6393 02da 2E       		.uleb128 0x2e
 6394 02db 01       		.byte	0x1
 6395 02dc 3F       		.uleb128 0x3f
 6396 02dd 19       		.uleb128 0x19
 6397 02de 03       		.uleb128 0x3
 6398 02df 0E       		.uleb128 0xe
 6399 02e0 3A       		.uleb128 0x3a
 6400 02e1 0B       		.uleb128 0xb
 6401 02e2 3B       		.uleb128 0x3b
 6402 02e3 05       		.uleb128 0x5
 6403 02e4 27       		.uleb128 0x27
 6404 02e5 19       		.uleb128 0x19
 6405 02e6 11       		.uleb128 0x11
 6406 02e7 01       		.uleb128 0x1
 6407 02e8 12       		.uleb128 0x12
 6408 02e9 06       		.uleb128 0x6
 6409 02ea 40       		.uleb128 0x40
 6410 02eb 18       		.uleb128 0x18
 6411 02ec 9742     		.uleb128 0x2117
 6412 02ee 19       		.uleb128 0x19
 6413 02ef 01       		.uleb128 0x1
 6414 02f0 13       		.uleb128 0x13
ARM GAS  C:\Users\aditi\AppData\Local\Temp\ccxJli9U.s 			page 155


 6415 02f1 00       		.byte	0
 6416 02f2 00       		.byte	0
 6417 02f3 3A       		.uleb128 0x3a
 6418 02f4 34       		.uleb128 0x34
 6419 02f5 00       		.byte	0
 6420 02f6 03       		.uleb128 0x3
 6421 02f7 0E       		.uleb128 0xe
 6422 02f8 3A       		.uleb128 0x3a
 6423 02f9 0B       		.uleb128 0xb
 6424 02fa 3B       		.uleb128 0x3b
 6425 02fb 05       		.uleb128 0x5
 6426 02fc 49       		.uleb128 0x49
 6427 02fd 13       		.uleb128 0x13
 6428 02fe 02       		.uleb128 0x2
 6429 02ff 17       		.uleb128 0x17
 6430 0300 00       		.byte	0
 6431 0301 00       		.byte	0
 6432 0302 3B       		.uleb128 0x3b
 6433 0303 34       		.uleb128 0x34
 6434 0304 00       		.byte	0
 6435 0305 03       		.uleb128 0x3
 6436 0306 08       		.uleb128 0x8
 6437 0307 3A       		.uleb128 0x3a
 6438 0308 0B       		.uleb128 0xb
 6439 0309 3B       		.uleb128 0x3b
 6440 030a 05       		.uleb128 0x5
 6441 030b 49       		.uleb128 0x49
 6442 030c 13       		.uleb128 0x13
 6443 030d 02       		.uleb128 0x2
 6444 030e 17       		.uleb128 0x17
 6445 030f 00       		.byte	0
 6446 0310 00       		.byte	0
 6447 0311 3C       		.uleb128 0x3c
 6448 0312 1D       		.uleb128 0x1d
 6449 0313 00       		.byte	0
 6450 0314 31       		.uleb128 0x31
 6451 0315 13       		.uleb128 0x13
 6452 0316 11       		.uleb128 0x11
 6453 0317 01       		.uleb128 0x1
 6454 0318 12       		.uleb128 0x12
 6455 0319 06       		.uleb128 0x6
 6456 031a 58       		.uleb128 0x58
 6457 031b 0B       		.uleb128 0xb
 6458 031c 59       		.uleb128 0x59
 6459 031d 05       		.uleb128 0x5
 6460 031e 00       		.byte	0
 6461 031f 00       		.byte	0
 6462 0320 3D       		.uleb128 0x3d
 6463 0321 34       		.uleb128 0x34
 6464 0322 00       		.byte	0
 6465 0323 31       		.uleb128 0x31
 6466 0324 13       		.uleb128 0x13
 6467 0325 00       		.byte	0
 6468 0326 00       		.byte	0
 6469 0327 3E       		.uleb128 0x3e
 6470 0328 05       		.uleb128 0x5
 6471 0329 00       		.byte	0
ARM GAS  C:\Users\aditi\AppData\Local\Temp\ccxJli9U.s 			page 156


 6472 032a 31       		.uleb128 0x31
 6473 032b 13       		.uleb128 0x13
 6474 032c 02       		.uleb128 0x2
 6475 032d 17       		.uleb128 0x17
 6476 032e 00       		.byte	0
 6477 032f 00       		.byte	0
 6478 0330 3F       		.uleb128 0x3f
 6479 0331 21       		.uleb128 0x21
 6480 0332 00       		.byte	0
 6481 0333 49       		.uleb128 0x49
 6482 0334 13       		.uleb128 0x13
 6483 0335 2F       		.uleb128 0x2f
 6484 0336 0B       		.uleb128 0xb
 6485 0337 00       		.byte	0
 6486 0338 00       		.byte	0
 6487 0339 40       		.uleb128 0x40
 6488 033a 34       		.uleb128 0x34
 6489 033b 00       		.byte	0
 6490 033c 03       		.uleb128 0x3
 6491 033d 0E       		.uleb128 0xe
 6492 033e 3A       		.uleb128 0x3a
 6493 033f 0B       		.uleb128 0xb
 6494 0340 3B       		.uleb128 0x3b
 6495 0341 0B       		.uleb128 0xb
 6496 0342 49       		.uleb128 0x49
 6497 0343 13       		.uleb128 0x13
 6498 0344 3F       		.uleb128 0x3f
 6499 0345 19       		.uleb128 0x19
 6500 0346 3C       		.uleb128 0x3c
 6501 0347 19       		.uleb128 0x19
 6502 0348 00       		.byte	0
 6503 0349 00       		.byte	0
 6504 034a 41       		.uleb128 0x41
 6505 034b 34       		.uleb128 0x34
 6506 034c 00       		.byte	0
 6507 034d 03       		.uleb128 0x3
 6508 034e 0E       		.uleb128 0xe
 6509 034f 3A       		.uleb128 0x3a
 6510 0350 0B       		.uleb128 0xb
 6511 0351 3B       		.uleb128 0x3b
 6512 0352 05       		.uleb128 0x5
 6513 0353 49       		.uleb128 0x49
 6514 0354 13       		.uleb128 0x13
 6515 0355 3F       		.uleb128 0x3f
 6516 0356 19       		.uleb128 0x19
 6517 0357 3C       		.uleb128 0x3c
 6518 0358 19       		.uleb128 0x19
 6519 0359 00       		.byte	0
 6520 035a 00       		.byte	0
 6521 035b 42       		.uleb128 0x42
 6522 035c 35       		.uleb128 0x35
 6523 035d 00       		.byte	0
 6524 035e 49       		.uleb128 0x49
 6525 035f 13       		.uleb128 0x13
 6526 0360 00       		.byte	0
 6527 0361 00       		.byte	0
 6528 0362 43       		.uleb128 0x43
ARM GAS  C:\Users\aditi\AppData\Local\Temp\ccxJli9U.s 			page 157


 6529 0363 34       		.uleb128 0x34
 6530 0364 00       		.byte	0
 6531 0365 03       		.uleb128 0x3
 6532 0366 0E       		.uleb128 0xe
 6533 0367 3A       		.uleb128 0x3a
 6534 0368 0B       		.uleb128 0xb
 6535 0369 3B       		.uleb128 0x3b
 6536 036a 0B       		.uleb128 0xb
 6537 036b 49       		.uleb128 0x49
 6538 036c 13       		.uleb128 0x13
 6539 036d 3F       		.uleb128 0x3f
 6540 036e 19       		.uleb128 0x19
 6541 036f 02       		.uleb128 0x2
 6542 0370 18       		.uleb128 0x18
 6543 0371 00       		.byte	0
 6544 0372 00       		.byte	0
 6545 0373 44       		.uleb128 0x44
 6546 0374 2E       		.uleb128 0x2e
 6547 0375 00       		.byte	0
 6548 0376 3F       		.uleb128 0x3f
 6549 0377 19       		.uleb128 0x19
 6550 0378 3C       		.uleb128 0x3c
 6551 0379 19       		.uleb128 0x19
 6552 037a 6E       		.uleb128 0x6e
 6553 037b 0E       		.uleb128 0xe
 6554 037c 03       		.uleb128 0x3
 6555 037d 0E       		.uleb128 0xe
 6556 037e 3A       		.uleb128 0x3a
 6557 037f 0B       		.uleb128 0xb
 6558 0380 3B       		.uleb128 0x3b
 6559 0381 05       		.uleb128 0x5
 6560 0382 00       		.byte	0
 6561 0383 00       		.byte	0
 6562 0384 45       		.uleb128 0x45
 6563 0385 2E       		.uleb128 0x2e
 6564 0386 00       		.byte	0
 6565 0387 3F       		.uleb128 0x3f
 6566 0388 19       		.uleb128 0x19
 6567 0389 3C       		.uleb128 0x3c
 6568 038a 19       		.uleb128 0x19
 6569 038b 6E       		.uleb128 0x6e
 6570 038c 0E       		.uleb128 0xe
 6571 038d 03       		.uleb128 0x3
 6572 038e 0E       		.uleb128 0xe
 6573 038f 3A       		.uleb128 0x3a
 6574 0390 0B       		.uleb128 0xb
 6575 0391 3B       		.uleb128 0x3b
 6576 0392 0B       		.uleb128 0xb
 6577 0393 00       		.byte	0
 6578 0394 00       		.byte	0
 6579 0395 00       		.byte	0
 6580              		.section	.debug_loc,"",%progbits
 6581              	.Ldebug_loc0:
 6582              	.LLST0:
 6583 0000 6A000000 		.4byte	.LVL3
 6584 0004 92000000 		.4byte	.LVL5
 6585 0008 0200     		.2byte	0x2
ARM GAS  C:\Users\aditi\AppData\Local\Temp\ccxJli9U.s 			page 158


 6586 000a 30       		.byte	0x30
 6587 000b 9F       		.byte	0x9f
 6588 000c 92000000 		.4byte	.LVL5
 6589 0010 A0000000 		.4byte	.LVL8
 6590 0014 0100     		.2byte	0x1
 6591 0016 54       		.byte	0x54
 6592 0017 A0000000 		.4byte	.LVL8
 6593 001b A2000000 		.4byte	.LVL9
 6594 001f 0200     		.2byte	0x2
 6595 0021 30       		.byte	0x30
 6596 0022 9F       		.byte	0x9f
 6597 0023 A2000000 		.4byte	.LVL9
 6598 0027 AC000000 		.4byte	.LVL10
 6599 002b 0100     		.2byte	0x1
 6600 002d 54       		.byte	0x54
 6601 002e 00000000 		.4byte	0
 6602 0032 00000000 		.4byte	0
 6603              	.LLST1:
 6604 0036 8A000000 		.4byte	.LVL4
 6605 003a B0000000 		.4byte	.LVL11
 6606 003e 0100     		.2byte	0x1
 6607 0040 55       		.byte	0x55
 6608 0041 00000000 		.4byte	0
 6609 0045 00000000 		.4byte	0
 6610              	.LLST2:
 6611 0049 92000000 		.4byte	.LVL5
 6612 004d 9B000000 		.4byte	.LVL6-1
 6613 0051 0700     		.2byte	0x7
 6614 0053 74       		.byte	0x74
 6615 0054 00       		.sleb128 0
 6616 0055 32       		.byte	0x32
 6617 0056 24       		.byte	0x24
 6618 0057 75       		.byte	0x75
 6619 0058 00       		.sleb128 0
 6620 0059 22       		.byte	0x22
 6621 005a 00000000 		.4byte	0
 6622 005e 00000000 		.4byte	0
 6623              	.LLST3:
 6624 0062 00000000 		.4byte	.LVL12
 6625 0066 16000000 		.4byte	.LVL14
 6626 006a 0100     		.2byte	0x1
 6627 006c 50       		.byte	0x50
 6628 006d 16000000 		.4byte	.LVL14
 6629 0071 F4010000 		.4byte	.LFE144
 6630 0075 0400     		.2byte	0x4
 6631 0077 F3       		.byte	0xf3
 6632 0078 01       		.uleb128 0x1
 6633 0079 50       		.byte	0x50
 6634 007a 9F       		.byte	0x9f
 6635 007b 00000000 		.4byte	0
 6636 007f 00000000 		.4byte	0
 6637              	.LLST4:
 6638 0083 00000000 		.4byte	.LVL12
 6639 0087 16000000 		.4byte	.LVL14
 6640 008b 0100     		.2byte	0x1
 6641 008d 51       		.byte	0x51
 6642 008e 16000000 		.4byte	.LVL14
ARM GAS  C:\Users\aditi\AppData\Local\Temp\ccxJli9U.s 			page 159


 6643 0092 F4010000 		.4byte	.LFE144
 6644 0096 0400     		.2byte	0x4
 6645 0098 F3       		.byte	0xf3
 6646 0099 01       		.uleb128 0x1
 6647 009a 51       		.byte	0x51
 6648 009b 9F       		.byte	0x9f
 6649 009c 00000000 		.4byte	0
 6650 00a0 00000000 		.4byte	0
 6651              	.LLST5:
 6652 00a4 46000000 		.4byte	.LVL17
 6653 00a8 7A000000 		.4byte	.LVL19
 6654 00ac 0200     		.2byte	0x2
 6655 00ae 30       		.byte	0x30
 6656 00af 9F       		.byte	0x9f
 6657 00b0 7A000000 		.4byte	.LVL19
 6658 00b4 88000000 		.4byte	.LVL22
 6659 00b8 0100     		.2byte	0x1
 6660 00ba 54       		.byte	0x54
 6661 00bb 88000000 		.4byte	.LVL22
 6662 00bf 8A000000 		.4byte	.LVL23
 6663 00c3 0200     		.2byte	0x2
 6664 00c5 30       		.byte	0x30
 6665 00c6 9F       		.byte	0x9f
 6666 00c7 8A000000 		.4byte	.LVL23
 6667 00cb 94000000 		.4byte	.LVL24
 6668 00cf 0100     		.2byte	0x1
 6669 00d1 54       		.byte	0x54
 6670 00d2 00000000 		.4byte	0
 6671 00d6 00000000 		.4byte	0
 6672              	.LLST6:
 6673 00da 70000000 		.4byte	.LVL18
 6674 00de 94000000 		.4byte	.LVL24
 6675 00e2 0100     		.2byte	0x1
 6676 00e4 55       		.byte	0x55
 6677 00e5 00000000 		.4byte	0
 6678 00e9 00000000 		.4byte	0
 6679              	.LLST7:
 6680 00ed 7A000000 		.4byte	.LVL19
 6681 00f1 83000000 		.4byte	.LVL20-1
 6682 00f5 0700     		.2byte	0x7
 6683 00f7 74       		.byte	0x74
 6684 00f8 00       		.sleb128 0
 6685 00f9 32       		.byte	0x32
 6686 00fa 24       		.byte	0x24
 6687 00fb 75       		.byte	0x75
 6688 00fc 00       		.sleb128 0
 6689 00fd 22       		.byte	0x22
 6690 00fe 00000000 		.4byte	0
 6691 0102 00000000 		.4byte	0
 6692              	.LLST8:
 6693 0106 F2000000 		.4byte	.LVL29
 6694 010a 3A010000 		.4byte	.LVL36
 6695 010e 0200     		.2byte	0x2
 6696 0110 30       		.byte	0x30
 6697 0111 9F       		.byte	0x9f
 6698 0112 00000000 		.4byte	0
 6699 0116 00000000 		.4byte	0
ARM GAS  C:\Users\aditi\AppData\Local\Temp\ccxJli9U.s 			page 160


 6700              	.LLST9:
 6701 011a F2000000 		.4byte	.LVL29
 6702 011e 1E010000 		.4byte	.LVL31
 6703 0122 0200     		.2byte	0x2
 6704 0124 30       		.byte	0x30
 6705 0125 9F       		.byte	0x9f
 6706 0126 1E010000 		.4byte	.LVL31
 6707 012a 2C010000 		.4byte	.LVL34
 6708 012e 0100     		.2byte	0x1
 6709 0130 54       		.byte	0x54
 6710 0131 2C010000 		.4byte	.LVL34
 6711 0135 2E010000 		.4byte	.LVL35
 6712 0139 0200     		.2byte	0x2
 6713 013b 30       		.byte	0x30
 6714 013c 9F       		.byte	0x9f
 6715 013d 2E010000 		.4byte	.LVL35
 6716 0141 3A010000 		.4byte	.LVL36
 6717 0145 0100     		.2byte	0x1
 6718 0147 54       		.byte	0x54
 6719 0148 00000000 		.4byte	0
 6720 014c 00000000 		.4byte	0
 6721              	.LLST10:
 6722 0150 12010000 		.4byte	.LVL30
 6723 0154 3A010000 		.4byte	.LVL36
 6724 0158 0100     		.2byte	0x1
 6725 015a 55       		.byte	0x55
 6726 015b 00000000 		.4byte	0
 6727 015f 00000000 		.4byte	0
 6728              	.LLST11:
 6729 0163 1E010000 		.4byte	.LVL31
 6730 0167 27010000 		.4byte	.LVL32-1
 6731 016b 0700     		.2byte	0x7
 6732 016d 74       		.byte	0x74
 6733 016e 00       		.sleb128 0
 6734 016f 32       		.byte	0x32
 6735 0170 24       		.byte	0x24
 6736 0171 75       		.byte	0x75
 6737 0172 00       		.sleb128 0
 6738 0173 22       		.byte	0x22
 6739 0174 00000000 		.4byte	0
 6740 0178 00000000 		.4byte	0
 6741              	.LLST12:
 6742 017c 98010000 		.4byte	.LVL41
 6743 0180 DC010000 		.4byte	.LVL48
 6744 0184 0200     		.2byte	0x2
 6745 0186 30       		.byte	0x30
 6746 0187 9F       		.byte	0x9f
 6747 0188 00000000 		.4byte	0
 6748 018c 00000000 		.4byte	0
 6749              	.LLST13:
 6750 0190 98010000 		.4byte	.LVL41
 6751 0194 C2010000 		.4byte	.LVL43
 6752 0198 0200     		.2byte	0x2
 6753 019a 30       		.byte	0x30
 6754 019b 9F       		.byte	0x9f
 6755 019c C2010000 		.4byte	.LVL43
 6756 01a0 D0010000 		.4byte	.LVL46
ARM GAS  C:\Users\aditi\AppData\Local\Temp\ccxJli9U.s 			page 161


 6757 01a4 0100     		.2byte	0x1
 6758 01a6 54       		.byte	0x54
 6759 01a7 D0010000 		.4byte	.LVL46
 6760 01ab D2010000 		.4byte	.LVL47
 6761 01af 0200     		.2byte	0x2
 6762 01b1 30       		.byte	0x30
 6763 01b2 9F       		.byte	0x9f
 6764 01b3 D2010000 		.4byte	.LVL47
 6765 01b7 DC010000 		.4byte	.LVL48
 6766 01bb 0100     		.2byte	0x1
 6767 01bd 54       		.byte	0x54
 6768 01be 00000000 		.4byte	0
 6769 01c2 00000000 		.4byte	0
 6770              	.LLST14:
 6771 01c6 B8010000 		.4byte	.LVL42
 6772 01ca DC010000 		.4byte	.LVL48
 6773 01ce 0100     		.2byte	0x1
 6774 01d0 55       		.byte	0x55
 6775 01d1 00000000 		.4byte	0
 6776 01d5 00000000 		.4byte	0
 6777              	.LLST15:
 6778 01d9 C2010000 		.4byte	.LVL43
 6779 01dd CB010000 		.4byte	.LVL44-1
 6780 01e1 0700     		.2byte	0x7
 6781 01e3 74       		.byte	0x74
 6782 01e4 00       		.sleb128 0
 6783 01e5 32       		.byte	0x32
 6784 01e6 24       		.byte	0x24
 6785 01e7 75       		.byte	0x75
 6786 01e8 00       		.sleb128 0
 6787 01e9 22       		.byte	0x22
 6788 01ea 00000000 		.4byte	0
 6789 01ee 00000000 		.4byte	0
 6790              	.LLST16:
 6791 01f2 82000000 		.4byte	.LVL90
 6792 01f6 AA000000 		.4byte	.LVL92
 6793 01fa 0200     		.2byte	0x2
 6794 01fc 30       		.byte	0x30
 6795 01fd 9F       		.byte	0x9f
 6796 01fe AA000000 		.4byte	.LVL92
 6797 0202 B8000000 		.4byte	.LVL95
 6798 0206 0100     		.2byte	0x1
 6799 0208 54       		.byte	0x54
 6800 0209 B8000000 		.4byte	.LVL95
 6801 020d BA000000 		.4byte	.LVL96
 6802 0211 0200     		.2byte	0x2
 6803 0213 30       		.byte	0x30
 6804 0214 9F       		.byte	0x9f
 6805 0215 BA000000 		.4byte	.LVL96
 6806 0219 C4000000 		.4byte	.LVL97
 6807 021d 0100     		.2byte	0x1
 6808 021f 54       		.byte	0x54
 6809 0220 00000000 		.4byte	0
 6810 0224 00000000 		.4byte	0
 6811              	.LLST17:
 6812 0228 A2000000 		.4byte	.LVL91
 6813 022c C8000000 		.4byte	.LVL98
ARM GAS  C:\Users\aditi\AppData\Local\Temp\ccxJli9U.s 			page 162


 6814 0230 0100     		.2byte	0x1
 6815 0232 55       		.byte	0x55
 6816 0233 00000000 		.4byte	0
 6817 0237 00000000 		.4byte	0
 6818              	.LLST18:
 6819 023b AA000000 		.4byte	.LVL92
 6820 023f B3000000 		.4byte	.LVL93-1
 6821 0243 0700     		.2byte	0x7
 6822 0245 74       		.byte	0x74
 6823 0246 00       		.sleb128 0
 6824 0247 32       		.byte	0x32
 6825 0248 24       		.byte	0x24
 6826 0249 75       		.byte	0x75
 6827 024a 00       		.sleb128 0
 6828 024b 22       		.byte	0x22
 6829 024c 00000000 		.4byte	0
 6830 0250 00000000 		.4byte	0
 6831              	.LLST19:
 6832 0254 00000000 		.4byte	.LVL99
 6833 0258 38000000 		.4byte	.LVL102
 6834 025c 0100     		.2byte	0x1
 6835 025e 50       		.byte	0x50
 6836 025f 38000000 		.4byte	.LVL102
 6837 0263 46000000 		.4byte	.LVL105
 6838 0267 0400     		.2byte	0x4
 6839 0269 F3       		.byte	0xf3
 6840 026a 01       		.uleb128 0x1
 6841 026b 50       		.byte	0x50
 6842 026c 9F       		.byte	0x9f
 6843 026d 46000000 		.4byte	.LVL105
 6844 0271 48000000 		.4byte	.LVL106
 6845 0275 0100     		.2byte	0x1
 6846 0277 50       		.byte	0x50
 6847 0278 48000000 		.4byte	.LVL106
 6848 027c 28010000 		.4byte	.LFE141
 6849 0280 0400     		.2byte	0x4
 6850 0282 F3       		.byte	0xf3
 6851 0283 01       		.uleb128 0x1
 6852 0284 50       		.byte	0x50
 6853 0285 9F       		.byte	0x9f
 6854 0286 00000000 		.4byte	0
 6855 028a 00000000 		.4byte	0
 6856              	.LLST20:
 6857 028e 1E000000 		.4byte	.LVL100
 6858 0292 52000000 		.4byte	.LVL107
 6859 0296 0200     		.2byte	0x2
 6860 0298 30       		.byte	0x30
 6861 0299 9F       		.byte	0x9f
 6862 029a 00000000 		.4byte	0
 6863 029e 00000000 		.4byte	0
 6864              	.LLST21:
 6865 02a2 1E000000 		.4byte	.LVL100
 6866 02a6 38000000 		.4byte	.LVL102
 6867 02aa 0200     		.2byte	0x2
 6868 02ac 30       		.byte	0x30
 6869 02ad 9F       		.byte	0x9f
 6870 02ae 38000000 		.4byte	.LVL102
ARM GAS  C:\Users\aditi\AppData\Local\Temp\ccxJli9U.s 			page 163


 6871 02b2 46000000 		.4byte	.LVL105
 6872 02b6 0100     		.2byte	0x1
 6873 02b8 54       		.byte	0x54
 6874 02b9 46000000 		.4byte	.LVL105
 6875 02bd 48000000 		.4byte	.LVL106
 6876 02c1 0200     		.2byte	0x2
 6877 02c3 30       		.byte	0x30
 6878 02c4 9F       		.byte	0x9f
 6879 02c5 48000000 		.4byte	.LVL106
 6880 02c9 52000000 		.4byte	.LVL107
 6881 02cd 0100     		.2byte	0x1
 6882 02cf 54       		.byte	0x54
 6883 02d0 00000000 		.4byte	0
 6884 02d4 00000000 		.4byte	0
 6885              	.LLST22:
 6886 02d8 30000000 		.4byte	.LVL101
 6887 02dc 52000000 		.4byte	.LVL107
 6888 02e0 0100     		.2byte	0x1
 6889 02e2 55       		.byte	0x55
 6890 02e3 00000000 		.4byte	0
 6891 02e7 00000000 		.4byte	0
 6892              	.LLST23:
 6893 02eb 38000000 		.4byte	.LVL102
 6894 02ef 41000000 		.4byte	.LVL103-1
 6895 02f3 0700     		.2byte	0x7
 6896 02f5 74       		.byte	0x74
 6897 02f6 00       		.sleb128 0
 6898 02f7 32       		.byte	0x32
 6899 02f8 24       		.byte	0x24
 6900 02f9 75       		.byte	0x75
 6901 02fa 00       		.sleb128 0
 6902 02fb 22       		.byte	0x22
 6903 02fc 00000000 		.4byte	0
 6904 0300 00000000 		.4byte	0
 6905              	.LLST24:
 6906 0304 76000000 		.4byte	.LVL108
 6907 0308 A8000000 		.4byte	.LVL115
 6908 030c 0200     		.2byte	0x2
 6909 030e 30       		.byte	0x30
 6910 030f 9F       		.byte	0x9f
 6911 0310 00000000 		.4byte	0
 6912 0314 00000000 		.4byte	0
 6913              	.LLST25:
 6914 0318 76000000 		.4byte	.LVL108
 6915 031c 8E000000 		.4byte	.LVL110
 6916 0320 0200     		.2byte	0x2
 6917 0322 30       		.byte	0x30
 6918 0323 9F       		.byte	0x9f
 6919 0324 8E000000 		.4byte	.LVL110
 6920 0328 9C000000 		.4byte	.LVL113
 6921 032c 0100     		.2byte	0x1
 6922 032e 54       		.byte	0x54
 6923 032f 9C000000 		.4byte	.LVL113
 6924 0333 9E000000 		.4byte	.LVL114
 6925 0337 0200     		.2byte	0x2
 6926 0339 30       		.byte	0x30
 6927 033a 9F       		.byte	0x9f
ARM GAS  C:\Users\aditi\AppData\Local\Temp\ccxJli9U.s 			page 164


 6928 033b 9E000000 		.4byte	.LVL114
 6929 033f A8000000 		.4byte	.LVL115
 6930 0343 0100     		.2byte	0x1
 6931 0345 54       		.byte	0x54
 6932 0346 00000000 		.4byte	0
 6933 034a 00000000 		.4byte	0
 6934              	.LLST26:
 6935 034e 86000000 		.4byte	.LVL109
 6936 0352 A8000000 		.4byte	.LVL115
 6937 0356 0100     		.2byte	0x1
 6938 0358 55       		.byte	0x55
 6939 0359 00000000 		.4byte	0
 6940 035d 00000000 		.4byte	0
 6941              	.LLST27:
 6942 0361 8E000000 		.4byte	.LVL110
 6943 0365 97000000 		.4byte	.LVL111-1
 6944 0369 0700     		.2byte	0x7
 6945 036b 74       		.byte	0x74
 6946 036c 00       		.sleb128 0
 6947 036d 32       		.byte	0x32
 6948 036e 24       		.byte	0x24
 6949 036f 75       		.byte	0x75
 6950 0370 00       		.sleb128 0
 6951 0371 22       		.byte	0x22
 6952 0372 00000000 		.4byte	0
 6953 0376 00000000 		.4byte	0
 6954              	.LLST28:
 6955 037a DE000000 		.4byte	.LVL117
 6956 037e 10010000 		.4byte	.LVL124
 6957 0382 0200     		.2byte	0x2
 6958 0384 30       		.byte	0x30
 6959 0385 9F       		.byte	0x9f
 6960 0386 00000000 		.4byte	0
 6961 038a 00000000 		.4byte	0
 6962              	.LLST29:
 6963 038e DE000000 		.4byte	.LVL117
 6964 0392 F6000000 		.4byte	.LVL119
 6965 0396 0200     		.2byte	0x2
 6966 0398 30       		.byte	0x30
 6967 0399 9F       		.byte	0x9f
 6968 039a F6000000 		.4byte	.LVL119
 6969 039e 04010000 		.4byte	.LVL122
 6970 03a2 0100     		.2byte	0x1
 6971 03a4 54       		.byte	0x54
 6972 03a5 04010000 		.4byte	.LVL122
 6973 03a9 06010000 		.4byte	.LVL123
 6974 03ad 0200     		.2byte	0x2
 6975 03af 30       		.byte	0x30
 6976 03b0 9F       		.byte	0x9f
 6977 03b1 06010000 		.4byte	.LVL123
 6978 03b5 10010000 		.4byte	.LVL124
 6979 03b9 0100     		.2byte	0x1
 6980 03bb 54       		.byte	0x54
 6981 03bc 00000000 		.4byte	0
 6982 03c0 00000000 		.4byte	0
 6983              	.LLST30:
 6984 03c4 EE000000 		.4byte	.LVL118
ARM GAS  C:\Users\aditi\AppData\Local\Temp\ccxJli9U.s 			page 165


 6985 03c8 10010000 		.4byte	.LVL124
 6986 03cc 0100     		.2byte	0x1
 6987 03ce 55       		.byte	0x55
 6988 03cf 00000000 		.4byte	0
 6989 03d3 00000000 		.4byte	0
 6990              	.LLST31:
 6991 03d7 F6000000 		.4byte	.LVL119
 6992 03db FF000000 		.4byte	.LVL120-1
 6993 03df 0700     		.2byte	0x7
 6994 03e1 74       		.byte	0x74
 6995 03e2 00       		.sleb128 0
 6996 03e3 32       		.byte	0x32
 6997 03e4 24       		.byte	0x24
 6998 03e5 75       		.byte	0x75
 6999 03e6 00       		.sleb128 0
 7000 03e7 22       		.byte	0x22
 7001 03e8 00000000 		.4byte	0
 7002 03ec 00000000 		.4byte	0
 7003              	.LLST32:
 7004 03f0 00000000 		.4byte	.LVL125
 7005 03f4 06000000 		.4byte	.LVL126
 7006 03f8 0100     		.2byte	0x1
 7007 03fa 50       		.byte	0x50
 7008 03fb 06000000 		.4byte	.LVL126
 7009 03ff 58000000 		.4byte	.LFE142
 7010 0403 0400     		.2byte	0x4
 7011 0405 F3       		.byte	0xf3
 7012 0406 01       		.uleb128 0x1
 7013 0407 50       		.byte	0x50
 7014 0408 9F       		.byte	0x9f
 7015 0409 00000000 		.4byte	0
 7016 040d 00000000 		.4byte	0
 7017              	.LLST33:
 7018 0411 00000000 		.4byte	.LVL132
 7019 0415 0A000000 		.4byte	.LVL134
 7020 0419 0100     		.2byte	0x1
 7021 041b 50       		.byte	0x50
 7022 041c 0A000000 		.4byte	.LVL134
 7023 0420 A0000000 		.4byte	.LFE143
 7024 0424 0400     		.2byte	0x4
 7025 0426 F3       		.byte	0xf3
 7026 0427 01       		.uleb128 0x1
 7027 0428 50       		.byte	0x50
 7028 0429 9F       		.byte	0x9f
 7029 042a 00000000 		.4byte	0
 7030 042e 00000000 		.4byte	0
 7031              	.LLST34:
 7032 0432 4E000000 		.4byte	.LVL137
 7033 0436 66000000 		.4byte	.LVL139
 7034 043a 0200     		.2byte	0x2
 7035 043c 30       		.byte	0x30
 7036 043d 9F       		.byte	0x9f
 7037 043e 66000000 		.4byte	.LVL139
 7038 0442 74000000 		.4byte	.LVL142
 7039 0446 0100     		.2byte	0x1
 7040 0448 54       		.byte	0x54
 7041 0449 74000000 		.4byte	.LVL142
ARM GAS  C:\Users\aditi\AppData\Local\Temp\ccxJli9U.s 			page 166


 7042 044d 76000000 		.4byte	.LVL143
 7043 0451 0200     		.2byte	0x2
 7044 0453 30       		.byte	0x30
 7045 0454 9F       		.byte	0x9f
 7046 0455 76000000 		.4byte	.LVL143
 7047 0459 80000000 		.4byte	.LVL144
 7048 045d 0100     		.2byte	0x1
 7049 045f 54       		.byte	0x54
 7050 0460 00000000 		.4byte	0
 7051 0464 00000000 		.4byte	0
 7052              	.LLST35:
 7053 0468 5E000000 		.4byte	.LVL138
 7054 046c 80000000 		.4byte	.LVL144
 7055 0470 0100     		.2byte	0x1
 7056 0472 55       		.byte	0x55
 7057 0473 00000000 		.4byte	0
 7058 0477 00000000 		.4byte	0
 7059              	.LLST36:
 7060 047b 66000000 		.4byte	.LVL139
 7061 047f 6F000000 		.4byte	.LVL140-1
 7062 0483 0700     		.2byte	0x7
 7063 0485 74       		.byte	0x74
 7064 0486 00       		.sleb128 0
 7065 0487 32       		.byte	0x32
 7066 0488 24       		.byte	0x24
 7067 0489 75       		.byte	0x75
 7068 048a 00       		.sleb128 0
 7069 048b 22       		.byte	0x22
 7070 048c 00000000 		.4byte	0
 7071 0490 00000000 		.4byte	0
 7072              	.LLST37:
 7073 0494 80000000 		.4byte	.LVL144
 7074 0498 90000000 		.4byte	.LVL145
 7075 049c 0300     		.2byte	0x3
 7076 049e 09       		.byte	0x9
 7077 049f FF       		.byte	0xff
 7078 04a0 9F       		.byte	0x9f
 7079 04a1 00000000 		.4byte	0
 7080 04a5 00000000 		.4byte	0
 7081              	.LLST38:
 7082 04a9 26000000 		.4byte	.LVL150
 7083 04ad 3A000000 		.4byte	.LVL152
 7084 04b1 0100     		.2byte	0x1
 7085 04b3 54       		.byte	0x54
 7086 04b4 48000000 		.4byte	.LVL155
 7087 04b8 4A000000 		.4byte	.LVL156
 7088 04bc 0100     		.2byte	0x1
 7089 04be 54       		.byte	0x54
 7090 04bf 54000000 		.4byte	.LVL157
 7091 04c3 56000000 		.4byte	.LVL158
 7092 04c7 0100     		.2byte	0x1
 7093 04c9 54       		.byte	0x54
 7094 04ca 00000000 		.4byte	0
 7095 04ce 00000000 		.4byte	0
 7096              	.LLST39:
 7097 04d2 22000000 		.4byte	.LVL149
 7098 04d6 3A000000 		.4byte	.LVL152
ARM GAS  C:\Users\aditi\AppData\Local\Temp\ccxJli9U.s 			page 167


 7099 04da 0200     		.2byte	0x2
 7100 04dc 30       		.byte	0x30
 7101 04dd 9F       		.byte	0x9f
 7102 04de 3A000000 		.4byte	.LVL152
 7103 04e2 48000000 		.4byte	.LVL155
 7104 04e6 0100     		.2byte	0x1
 7105 04e8 54       		.byte	0x54
 7106 04e9 48000000 		.4byte	.LVL155
 7107 04ed 4A000000 		.4byte	.LVL156
 7108 04f1 0200     		.2byte	0x2
 7109 04f3 30       		.byte	0x30
 7110 04f4 9F       		.byte	0x9f
 7111 04f5 4A000000 		.4byte	.LVL156
 7112 04f9 54000000 		.4byte	.LVL157
 7113 04fd 0100     		.2byte	0x1
 7114 04ff 54       		.byte	0x54
 7115 0500 00000000 		.4byte	0
 7116 0504 00000000 		.4byte	0
 7117              	.LLST40:
 7118 0508 32000000 		.4byte	.LVL151
 7119 050c 56000000 		.4byte	.LVL158
 7120 0510 0100     		.2byte	0x1
 7121 0512 55       		.byte	0x55
 7122 0513 00000000 		.4byte	0
 7123 0517 00000000 		.4byte	0
 7124              	.LLST41:
 7125 051b 3A000000 		.4byte	.LVL152
 7126 051f 43000000 		.4byte	.LVL153-1
 7127 0523 0700     		.2byte	0x7
 7128 0525 74       		.byte	0x74
 7129 0526 00       		.sleb128 0
 7130 0527 32       		.byte	0x32
 7131 0528 24       		.byte	0x24
 7132 0529 75       		.byte	0x75
 7133 052a 00       		.sleb128 0
 7134 052b 22       		.byte	0x22
 7135 052c 00000000 		.4byte	0
 7136 0530 00000000 		.4byte	0
 7137              	.LLST42:
 7138 0534 0A000000 		.4byte	.LVL159
 7139 0538 10000000 		.4byte	.LVL160
 7140 053c 0200     		.2byte	0x2
 7141 053e 30       		.byte	0x30
 7142 053f 9F       		.byte	0x9f
 7143 0540 00000000 		.4byte	0
 7144 0544 00000000 		.4byte	0
 7145              	.LLST43:
 7146 0548 16000000 		.4byte	.LVL161
 7147 054c 2C000000 		.4byte	.LVL163
 7148 0550 0100     		.2byte	0x1
 7149 0552 53       		.byte	0x53
 7150 0553 3C000000 		.4byte	.LVL165
 7151 0557 42000000 		.4byte	.LVL166
 7152 055b 0100     		.2byte	0x1
 7153 055d 53       		.byte	0x53
 7154 055e 48000000 		.4byte	.LVL168
 7155 0562 4A000000 		.4byte	.LVL169
ARM GAS  C:\Users\aditi\AppData\Local\Temp\ccxJli9U.s 			page 168


 7156 0566 0100     		.2byte	0x1
 7157 0568 53       		.byte	0x53
 7158 0569 00000000 		.4byte	0
 7159 056d 00000000 		.4byte	0
 7160              	.LLST44:
 7161 0571 16000000 		.4byte	.LVL161
 7162 0575 3A000000 		.4byte	.LVL164
 7163 0579 0200     		.2byte	0x2
 7164 057b 30       		.byte	0x30
 7165 057c 9F       		.byte	0x9f
 7166 057d 3A000000 		.4byte	.LVL164
 7167 0581 3C000000 		.4byte	.LVL165
 7168 0585 0100     		.2byte	0x1
 7169 0587 53       		.byte	0x53
 7170 0588 3C000000 		.4byte	.LVL165
 7171 058c 46000000 		.4byte	.LVL167
 7172 0590 0200     		.2byte	0x2
 7173 0592 30       		.byte	0x30
 7174 0593 9F       		.byte	0x9f
 7175 0594 46000000 		.4byte	.LVL167
 7176 0598 48000000 		.4byte	.LVL168
 7177 059c 0100     		.2byte	0x1
 7178 059e 53       		.byte	0x53
 7179 059f 48000000 		.4byte	.LVL168
 7180 05a3 4A000000 		.4byte	.LVL169
 7181 05a7 0200     		.2byte	0x2
 7182 05a9 30       		.byte	0x30
 7183 05aa 9F       		.byte	0x9f
 7184 05ab 00000000 		.4byte	0
 7185 05af 00000000 		.4byte	0
 7186              	.LLST45:
 7187 05b3 66000000 		.4byte	.LVL172
 7188 05b7 6A000000 		.4byte	.LVL173
 7189 05bb 0100     		.2byte	0x1
 7190 05bd 54       		.byte	0x54
 7191 05be 00000000 		.4byte	0
 7192 05c2 00000000 		.4byte	0
 7193              		.section	.debug_aranges,"",%progbits
 7194 0000 AC000000 		.4byte	0xac
 7195 0004 0200     		.2byte	0x2
 7196 0006 00000000 		.4byte	.Ldebug_info0
 7197 000a 04       		.byte	0x4
 7198 000b 00       		.byte	0
 7199 000c 0000     		.2byte	0
 7200 000e 0000     		.2byte	0
 7201 0010 00000000 		.4byte	.LFB147
 7202 0014 B8000000 		.4byte	.LFE147-.LFB147
 7203 0018 00000000 		.4byte	.LFB144
 7204 001c F4010000 		.4byte	.LFE144-.LFB144
 7205 0020 00000000 		.4byte	.LFB154
 7206 0024 18000000 		.4byte	.LFE154-.LFB154
 7207 0028 00000000 		.4byte	.LFB153
 7208 002c 18000000 		.4byte	.LFE153-.LFB153
 7209 0030 00000000 		.4byte	.LFB152
 7210 0034 18000000 		.4byte	.LFE152-.LFB152
 7211 0038 00000000 		.4byte	.LFB146
 7212 003c 18000000 		.4byte	.LFE146-.LFB146
ARM GAS  C:\Users\aditi\AppData\Local\Temp\ccxJli9U.s 			page 169


 7213 0040 00000000 		.4byte	.LFB151
 7214 0044 18000000 		.4byte	.LFE151-.LFB151
 7215 0048 00000000 		.4byte	.LFB150
 7216 004c 18000000 		.4byte	.LFE150-.LFB150
 7217 0050 00000000 		.4byte	.LFB149
 7218 0054 18000000 		.4byte	.LFE149-.LFB149
 7219 0058 00000000 		.4byte	.LFB148
 7220 005c 20000000 		.4byte	.LFE148-.LFB148
 7221 0060 00000000 		.4byte	.LFB145
 7222 0064 18000000 		.4byte	.LFE145-.LFB145
 7223 0068 00000000 		.4byte	.LFB155
 7224 006c 98000000 		.4byte	.LFE155-.LFB155
 7225 0070 00000000 		.4byte	.LFB157
 7226 0074 40000000 		.4byte	.LFE157-.LFB157
 7227 0078 00000000 		.4byte	.LFB156
 7228 007c D8000000 		.4byte	.LFE156-.LFB156
 7229 0080 00000000 		.4byte	.LFB141
 7230 0084 28010000 		.4byte	.LFE141-.LFB141
 7231 0088 00000000 		.4byte	.LFB142
 7232 008c 58000000 		.4byte	.LFE142-.LFB142
 7233 0090 00000000 		.4byte	.LFB143
 7234 0094 A0000000 		.4byte	.LFE143-.LFB143
 7235 0098 00000000 		.4byte	.LFB159
 7236 009c 60000000 		.4byte	.LFE159-.LFB159
 7237 00a0 00000000 		.4byte	.LFB158
 7238 00a4 98000000 		.4byte	.LFE158-.LFB158
 7239 00a8 00000000 		.4byte	0
 7240 00ac 00000000 		.4byte	0
 7241              		.section	.debug_ranges,"",%progbits
 7242              	.Ldebug_ranges0:
 7243 0000 00000000 		.4byte	.LFB147
 7244 0004 B8000000 		.4byte	.LFE147
 7245 0008 00000000 		.4byte	.LFB144
 7246 000c F4010000 		.4byte	.LFE144
 7247 0010 00000000 		.4byte	.LFB154
 7248 0014 18000000 		.4byte	.LFE154
 7249 0018 00000000 		.4byte	.LFB153
 7250 001c 18000000 		.4byte	.LFE153
 7251 0020 00000000 		.4byte	.LFB152
 7252 0024 18000000 		.4byte	.LFE152
 7253 0028 00000000 		.4byte	.LFB146
 7254 002c 18000000 		.4byte	.LFE146
 7255 0030 00000000 		.4byte	.LFB151
 7256 0034 18000000 		.4byte	.LFE151
 7257 0038 00000000 		.4byte	.LFB150
 7258 003c 18000000 		.4byte	.LFE150
 7259 0040 00000000 		.4byte	.LFB149
 7260 0044 18000000 		.4byte	.LFE149
 7261 0048 00000000 		.4byte	.LFB148
 7262 004c 20000000 		.4byte	.LFE148
 7263 0050 00000000 		.4byte	.LFB145
 7264 0054 18000000 		.4byte	.LFE145
 7265 0058 00000000 		.4byte	.LFB155
 7266 005c 98000000 		.4byte	.LFE155
 7267 0060 00000000 		.4byte	.LFB157
 7268 0064 40000000 		.4byte	.LFE157
 7269 0068 00000000 		.4byte	.LFB156
ARM GAS  C:\Users\aditi\AppData\Local\Temp\ccxJli9U.s 			page 170


 7270 006c D8000000 		.4byte	.LFE156
 7271 0070 00000000 		.4byte	.LFB141
 7272 0074 28010000 		.4byte	.LFE141
 7273 0078 00000000 		.4byte	.LFB142
 7274 007c 58000000 		.4byte	.LFE142
 7275 0080 00000000 		.4byte	.LFB143
 7276 0084 A0000000 		.4byte	.LFE143
 7277 0088 00000000 		.4byte	.LFB159
 7278 008c 60000000 		.4byte	.LFE159
 7279 0090 00000000 		.4byte	.LFB158
 7280 0094 98000000 		.4byte	.LFE158
 7281 0098 00000000 		.4byte	0
 7282 009c 00000000 		.4byte	0
 7283              		.section	.debug_line,"",%progbits
 7284              	.Ldebug_line0:
 7285 0000 D8070000 		.section	.debug_str,"MS",%progbits,1
 7285      02006304 
 7285      00000201 
 7285      FB0E0D00 
 7285      01010101 
 7286              	.LASF105:
 7287 0000 6D5F686F 		.ascii	"m_hours\000"
 7287      75727300 
 7288              	.LASF191:
 7289 0008 434C4F43 		.ascii	"CLOCK__dispatch_KRLP_Hours\000"
 7289      4B5F5F64 
 7289      69737061 
 7289      7463685F 
 7289      4B524C50 
 7290              	.LASF46:
 7291 0023 52435F45 		.ascii	"RC_ERROR_CHECKSUM\000"
 7291      52524F52 
 7291      5F434845 
 7291      434B5355 
 7291      4D00
 7292              	.LASF116:
 7293 0035 4359414E 		.ascii	"CYAN\000"
 7293      00
 7294              	.LASF20:
 7295 003a 73697A65 		.ascii	"size_t\000"
 7295      5F7400
 7296              	.LASF31:
 7297 0041 73697A65 		.ascii	"sizetype\000"
 7297      74797065 
 7297      00
 7298              	.LASF228:
 7299 004a 53544154 		.ascii	"STATE_CLOCK_W_IS_DISPLAYING_Transitions\000"
 7299      455F434C 
 7299      4F434B5F 
 7299      575F4953 
 7299      5F444953 
 7300              	.LASF219:
 7301 0072 45455F41 		.ascii	"EE_ApplicationMode\000"
 7301      70706C69 
 7301      63617469 
 7301      6F6E4D6F 
 7301      646500
ARM GAS  C:\Users\aditi\AppData\Local\Temp\ccxJli9U.s 			page 171


 7302              	.LASF91:
 7303 0085 66726F6D 		.ascii	"fromState\000"
 7303      53746174 
 7303      6500
 7304              	.LASF100:
 7305 008f 6D5F7472 		.ascii	"m_transitions\000"
 7305      616E7369 
 7305      74696F6E 
 7305      7300
 7306              	.LASF92:
 7307 009d 70496E6E 		.ascii	"pInnerTransitionTable\000"
 7307      65725472 
 7307      616E7369 
 7307      74696F6E 
 7307      5461626C 
 7308              	.LASF15:
 7309 00b3 696E7433 		.ascii	"int32_t\000"
 7309      325F7400 
 7310              	.LASF43:
 7311 00bb 52435F45 		.ascii	"RC_ERROR_BUSY\000"
 7311      52524F52 
 7311      5F425553 
 7311      5900
 7312              	.LASF173:
 7313 00c9 5254455F 		.ascii	"RTE_SC_DISPLAY_pushPort\000"
 7313      53435F44 
 7313      4953504C 
 7313      41595F70 
 7313      75736850 
 7314              	.LASF132:
 7315 00e1 65764F6E 		.ascii	"evOnUpdate\000"
 7315      55706461 
 7315      746500
 7316              	.LASF207:
 7317 00ec 64697370 		.ascii	"dispTFT\000"
 7317      54465400 
 7318              	.LASF113:
 7319 00f4 47424C55 		.ascii	"GBLUE\000"
 7319      4500
 7320              	.LASF88:
 7321 00fa 67756172 		.ascii	"guard\000"
 7321      6400
 7322              	.LASF109:
 7323 0100 424C4143 		.ascii	"BLACK\000"
 7323      4B00
 7324              	.LASF107:
 7325 0106 53435F43 		.ascii	"SC_CLOCK_data_t\000"
 7325      4C4F434B 
 7325      5F646174 
 7325      615F7400 
 7326              	.LASF192:
 7327 0116 434C4F43 		.ascii	"CLOCK__dispatch_KR_Hours\000"
 7327      4B5F5F64 
 7327      69737061 
 7327      7463685F 
 7327      4B525F48 
 7328              	.LASF114:
ARM GAS  C:\Users\aditi\AppData\Local\Temp\ccxJli9U.s 			page 172


 7329 012f 4D414745 		.ascii	"MAGENTA\000"
 7329      4E544100 
 7330              	.LASF64:
 7331 0137 5254455F 		.ascii	"RTE_SIGNALSTATUS_INITIALIZED\000"
 7331      5349474E 
 7331      414C5354 
 7331      41545553 
 7331      5F494E49 
 7332              	.LASF135:
 7333 0154 6F6E5570 		.ascii	"onUpdateTasks\000"
 7333      64617465 
 7333      5461736B 
 7333      7300
 7334              	.LASF137:
 7335 0162 6F6E4572 		.ascii	"onErrorTasks\000"
 7335      726F7254 
 7335      61736B73 
 7335      00
 7336              	.LASF224:
 7337 016f 534F5F43 		.ascii	"SO_CLOCK_signal\000"
 7337      4C4F434B 
 7337      5F736967 
 7337      6E616C00 
 7338              	.LASF147:
 7339 017f 53435F43 		.ascii	"SC_CLOCK_driverIn_t\000"
 7339      4C4F434B 
 7339      5F647269 
 7339      76657249 
 7339      6E5F7400 
 7340              	.LASF142:
 7341 0193 53435F45 		.ascii	"SC_EVENT_s\000"
 7341      56454E54 
 7341      5F7300
 7342              	.LASF146:
 7343 019e 53435F45 		.ascii	"SC_EVENT_t\000"
 7343      56454E54 
 7343      5F7400
 7344              	.LASF240:
 7345 01a9 50696E5F 		.ascii	"Pin_ButtonLeft_Read\000"
 7345      42757474 
 7345      6F6E4C65 
 7345      66745F52 
 7345      65616400 
 7346              	.LASF243:
 7347 01bd 45455F63 		.ascii	"EE_cortex_mx_change_IRQ_stack\000"
 7347      6F727465 
 7347      785F6D78 
 7347      5F636861 
 7347      6E67655F 
 7348              	.LASF175:
 7349 01db 7072696F 		.ascii	"prio\000"
 7349      00
 7350              	.LASF104:
 7351 01e0 6D5F6163 		.ascii	"m_activeWidget\000"
 7351      74697665 
 7351      57696467 
 7351      657400
ARM GAS  C:\Users\aditi\AppData\Local\Temp\ccxJli9U.s 			page 173


 7352              	.LASF242:
 7353 01ef 45455F73 		.ascii	"EE_switch_context\000"
 7353      77697463 
 7353      685F636F 
 7353      6E746578 
 7353      7400
 7354              	.LASF197:
 7355 0201 434C4F43 		.ascii	"CLOCK__incrementWidget\000"
 7355      4B5F5F69 
 7355      6E637265 
 7355      6D656E74 
 7355      57696467 
 7356              	.LASF68:
 7357 0218 53544154 		.ascii	"STATE_CLOCK_C_ISDISPLAYING\000"
 7357      455F434C 
 7357      4F434B5F 
 7357      435F4953 
 7357      44495350 
 7358              	.LASF3:
 7359 0233 5F5F7569 		.ascii	"__uint8_t\000"
 7359      6E74385F 
 7359      7400
 7360              	.LASF178:
 7361 023d 45455F64 		.ascii	"EE_decrement_IRQ_nesting_level\000"
 7361      65637265 
 7361      6D656E74 
 7361      5F495251 
 7361      5F6E6573 
 7362              	.LASF198:
 7363 025c 636C6F63 		.ascii	"clockData\000"
 7363      6B446174 
 7363      6100
 7364              	.LASF126:
 7365 0266 4C475241 		.ascii	"LGRAYBLUE\000"
 7365      59424C55 
 7365      4500
 7366              	.LASF45:
 7367 0270 52435F45 		.ascii	"RC_ERROR_OPEN\000"
 7367      52524F52 
 7367      5F4F5045 
 7367      4E00
 7368              	.LASF78:
 7369 027e 45565F4B 		.ascii	"EV_KEYRIGHTLONGPRESS\000"
 7369      45595249 
 7369      4748544C 
 7369      4F4E4750 
 7369      52455353 
 7370              	.LASF160:
 7371 0293 53435F44 		.ascii	"SC_DISPLAY_driverOut_t\000"
 7371      4953504C 
 7371      41595F64 
 7371      72697665 
 7371      724F7574 
 7372              	.LASF227:
 7373 02aa 434C4F43 		.ascii	"CLOCK_Container_Transitions_Size\000"
 7373      4B5F436F 
 7373      6E746169 
ARM GAS  C:\Users\aditi\AppData\Local\Temp\ccxJli9U.s 			page 174


 7373      6E65725F 
 7373      5472616E 
 7374              	.LASF189:
 7375 02cb 434C4F43 		.ascii	"CLOCK__dispatch_KL_Min\000"
 7375      4B5F5F64 
 7375      69737061 
 7375      7463685F 
 7375      4B4C5F4D 
 7376              	.LASF24:
 7377 02e2 45455F55 		.ascii	"EE_UREG\000"
 7377      52454700 
 7378              	.LASF201:
 7379 02ea 636F756E 		.ascii	"countVar\000"
 7379      74566172 
 7379      00
 7380              	.LASF244:
 7381 02f3 45455F63 		.ascii	"EE_cortex_mx_change_IRQ_stack_back\000"
 7381      6F727465 
 7381      785F6D78 
 7381      5F636861 
 7381      6E67655F 
 7382              	.LASF7:
 7383 0316 6C6F6E67 		.ascii	"long int\000"
 7383      20696E74 
 7383      00
 7384              	.LASF148:
 7385 031f 53435F43 		.ascii	"SC_CLOCK_driverOut_t\000"
 7385      4C4F434B 
 7385      5F647269 
 7385      7665724F 
 7385      75745F74 
 7386              	.LASF59:
 7387 0334 52435F74 		.ascii	"RC_t\000"
 7387      00
 7388              	.LASF62:
 7389 0339 5265736F 		.ascii	"ResourceType\000"
 7389      75726365 
 7389      54797065 
 7389      00
 7390              	.LASF32:
 7391 0346 626F6F6C 		.ascii	"boolean_t\000"
 7391      65616E5F 
 7391      7400
 7392              	.LASF209:
 7393 0350 45455F63 		.ascii	"EE_cortex_mx_get_int_prio\000"
 7393      6F727465 
 7393      785F6D78 
 7393      5F676574 
 7393      5F696E74 
 7394              	.LASF79:
 7395 036a 45565F31 		.ascii	"EV_1MIN\000"
 7395      4D494E00 
 7396              	.LASF102:
 7397 0372 434C4F43 		.ascii	"CLOCK_widget_t\000"
 7397      4B5F7769 
 7397      64676574 
 7397      5F7400
ARM GAS  C:\Users\aditi\AppData\Local\Temp\ccxJli9U.s 			page 175


 7398              	.LASF117:
 7399 0381 59454C4C 		.ascii	"YELLOW\000"
 7399      4F5700
 7400              	.LASF246:
 7401 0388 736F7572 		.ascii	"source\\asw\\swc_clock.c\000"
 7401      63655C61 
 7401      73775C73 
 7401      77635F63 
 7401      6C6F636B 
 7402              	.LASF159:
 7403 039f 53435F44 		.ascii	"SC_DISPLAY_driverIn_t\000"
 7403      4953504C 
 7403      41595F64 
 7403      72697665 
 7403      72496E5F 
 7404              	.LASF245:
 7405 03b5 474E5520 		.ascii	"GNU C11 5.4.1 20160609 (release) [ARM/embedded-5-br"
 7405      43313120 
 7405      352E342E 
 7405      31203230 
 7405      31363036 
 7406 03e8 616E6368 		.ascii	"anch revision 237715] -mcpu=cortex-m3 -mthumb -g -O"
 7406      20726576 
 7406      6973696F 
 7406      6E203233 
 7406      37373135 
 7407 041b 67202D66 		.ascii	"g -ffunction-sections -ffat-lto-objects\000"
 7407      66756E63 
 7407      74696F6E 
 7407      2D736563 
 7407      74696F6E 
 7408              	.LASF51:
 7409 0443 52435F45 		.ascii	"RC_ERROR_WRITE_FAILS\000"
 7409      52524F52 
 7409      5F575249 
 7409      54455F46 
 7409      41494C53 
 7410              	.LASF210:
 7411 0458 45455F63 		.ascii	"EE_cortex_mx_get_isr_prio\000"
 7411      6F727465 
 7411      785F6D78 
 7411      5F676574 
 7411      5F697372 
 7412              	.LASF124:
 7413 0472 4C494748 		.ascii	"LIGHTGREEN\000"
 7413      54475245 
 7413      454E00
 7414              	.LASF84:
 7415 047d 53544154 		.ascii	"STATE_GuardPtr_t\000"
 7415      455F4775 
 7415      61726450 
 7415      74725F74 
 7415      00
 7416              	.LASF196:
 7417 048e 434C4F43 		.ascii	"CLOCK__setDisplayFonts\000"
 7417      4B5F5F73 
 7417      65744469 
ARM GAS  C:\Users\aditi\AppData\Local\Temp\ccxJli9U.s 			page 176


 7417      73706C61 
 7417      79466F6E 
 7418              	.LASF55:
 7419 04a5 52435F45 		.ascii	"RC_ERROR_CANCELED\000"
 7419      52524F52 
 7419      5F43414E 
 7419      43454C45 
 7419      4400
 7420              	.LASF115:
 7421 04b7 47524545 		.ascii	"GREEN\000"
 7421      4E00
 7422              	.LASF90:
 7423 04bd 53544154 		.ascii	"STATE_stateInnerTransition_t\000"
 7423      455F7374 
 7423      61746549 
 7423      6E6E6572 
 7423      5472616E 
 7424              	.LASF0:
 7425 04da 7369676E 		.ascii	"signed char\000"
 7425      65642063 
 7425      68617200 
 7426              	.LASF13:
 7427 04e6 75696E74 		.ascii	"uint8_t\000"
 7427      385F7400 
 7428              	.LASF188:
 7429 04ee 434C4F43 		.ascii	"CLOCK__dispatch_KR_Min\000"
 7429      4B5F5F64 
 7429      69737061 
 7429      7463685F 
 7429      4B525F4D 
 7430              	.LASF111:
 7431 0505 42524544 		.ascii	"BRED\000"
 7431      00
 7432              	.LASF103:
 7433 050a 6D5F636F 		.ascii	"m_containerState\000"
 7433      6E746169 
 7433      6E657253 
 7433      74617465 
 7433      00
 7434              	.LASF98:
 7435 051b 434C4F43 		.ascii	"CLOCK_active_widget_t\000"
 7435      4B5F6163 
 7435      74697665 
 7435      5F776964 
 7435      6765745F 
 7436              	.LASF69:
 7437 0531 53544154 		.ascii	"STATE_CLOCK_C_ISEDITINGHOURS\000"
 7437      455F434C 
 7437      4F434B5F 
 7437      435F4953 
 7437      45444954 
 7438              	.LASF1:
 7439 054e 756E7369 		.ascii	"unsigned char\000"
 7439      676E6564 
 7439      20636861 
 7439      7200
 7440              	.LASF239:
ARM GAS  C:\Users\aditi\AppData\Local\Temp\ccxJli9U.s 			page 177


 7441 055c 50696E5F 		.ascii	"Pin_ButtonRight_Read\000"
 7441      42757474 
 7441      6F6E5269 
 7441      6768745F 
 7441      52656164 
 7442              	.LASF94:
 7443 0571 53544154 		.ascii	"STATE_stateOuterTransition_t\000"
 7443      455F7374 
 7443      6174654F 
 7443      75746572 
 7443      5472616E 
 7444              	.LASF205:
 7445 058e 72657375 		.ascii	"result\000"
 7445      6C7400
 7446              	.LASF234:
 7447 0595 55415254 		.ascii	"UART_LOG_PutString\000"
 7447      5F4C4F47 
 7447      5F507574 
 7447      53747269 
 7447      6E6700
 7448              	.LASF58:
 7449 05a8 52435F45 		.ascii	"RC_ERROR_NOT_IMPLEMENTED\000"
 7449      52524F52 
 7449      5F4E4F54 
 7449      5F494D50 
 7449      4C454D45 
 7450              	.LASF247:
 7451 05c1 433A5C44 		.ascii	"C:\\Darmstadt\\SecondSem\\EAA\\Lab2\\Lab2_EAA\\Elec"
 7451      61726D73 
 7451      74616474 
 7451      5C536563 
 7451      6F6E6453 
 7452 05ee 74726F6E 		.ascii	"tronicClock_v1.cydsn\000"
 7452      6963436C 
 7452      6F636B5F 
 7452      76312E63 
 7452      7964736E 
 7453              	.LASF71:
 7454 0603 53544154 		.ascii	"STATE_CLOCK_W_ISDISPLAYING\000"
 7454      455F434C 
 7454      4F434B5F 
 7454      575F4953 
 7454      44495350 
 7455              	.LASF19:
 7456 061e 63686172 		.ascii	"char\000"
 7456      00
 7457              	.LASF199:
 7458 0623 72756E6E 		.ascii	"runnableCount\000"
 7458      61626C65 
 7458      436F756E 
 7458      7400
 7459              	.LASF174:
 7460 0631 5254455F 		.ascii	"RTE_SC_DISPLAY_set\000"
 7460      53435F44 
 7460      4953504C 
 7460      41595F73 
 7460      657400
ARM GAS  C:\Users\aditi\AppData\Local\Temp\ccxJli9U.s 			page 178


 7461              	.LASF182:
 7462 0644 77696467 		.ascii	"widget\000"
 7462      657400
 7463              	.LASF4:
 7464 064b 5F5F7569 		.ascii	"__uint16_t\000"
 7464      6E743136 
 7464      5F7400
 7465              	.LASF167:
 7466 0656 7369676E 		.ascii	"signal\000"
 7466      616C00
 7467              	.LASF163:
 7468 065d 53435F44 		.ascii	"SC_DISPLAY_s\000"
 7468      4953504C 
 7468      41595F73 
 7468      00
 7469              	.LASF164:
 7470 066a 53435F44 		.ascii	"SC_DISPLAY_t\000"
 7470      4953504C 
 7470      41595F74 
 7470      00
 7471              	.LASF130:
 7472 0677 696E4472 		.ascii	"inDriver\000"
 7472      69766572 
 7472      00
 7473              	.LASF101:
 7474 0680 6D5F7661 		.ascii	"m_value\000"
 7474      6C756500 
 7475              	.LASF176:
 7476 0688 45455F69 		.ascii	"EE_increment_IRQ_nesting_level\000"
 7476      6E637265 
 7476      6D656E74 
 7476      5F495251 
 7476      5F6E6573 
 7477              	.LASF203:
 7478 06a7 434C4F43 		.ascii	"CLOCK_control_run\000"
 7478      4B5F636F 
 7478      6E74726F 
 7478      6C5F7275 
 7478      6E00
 7479              	.LASF123:
 7480 06b9 47524159 		.ascii	"GRAYBLUE\000"
 7480      424C5545 
 7480      00
 7481              	.LASF82:
 7482 06c2 53435F45 		.ascii	"SC_EVENT_data_t\000"
 7482      56454E54 
 7482      5F646174 
 7482      615F7400 
 7483              	.LASF134:
 7484 06d2 6F6E5570 		.ascii	"onUpdateTaskCount\000"
 7484      64617465 
 7484      5461736B 
 7484      436F756E 
 7484      7400
 7485              	.LASF158:
 7486 06e4 53435F44 		.ascii	"SC_DISPLAY_data_t\000"
 7486      4953504C 
ARM GAS  C:\Users\aditi\AppData\Local\Temp\ccxJli9U.s 			page 179


 7486      41595F64 
 7486      6174615F 
 7486      7400
 7487              	.LASF169:
 7488 06f6 70546173 		.ascii	"pTaskArray\000"
 7488      6B417272 
 7488      617900
 7489              	.LASF153:
 7490 0701 756E6974 		.ascii	"unitValue\000"
 7490      56616C75 
 7490      6500
 7491              	.LASF181:
 7492 070b 45455F63 		.ascii	"EE_cortex_mx_IRQ_active_change_context\000"
 7492      6F727465 
 7492      785F6D78 
 7492      5F495251 
 7492      5F616374 
 7493              	.LASF149:
 7494 0732 53435F43 		.ascii	"SC_CLOCK_cfg_s\000"
 7494      4C4F434B 
 7494      5F636667 
 7494      5F7300
 7495              	.LASF150:
 7496 0741 53435F43 		.ascii	"SC_CLOCK_cfg_t\000"
 7496      4C4F434B 
 7496      5F636667 
 7496      5F7400
 7497              	.LASF223:
 7498 0750 534F5F45 		.ascii	"SO_EVENT_signal\000"
 7498      56454E54 
 7498      5F736967 
 7498      6E616C00 
 7499              	.LASF139:
 7500 0760 7265736F 		.ascii	"resource\000"
 7500      75726365 
 7500      00
 7501              	.LASF155:
 7502 0769 44495350 		.ascii	"DISPLAY_digit_t\000"
 7502      4C41595F 
 7502      64696769 
 7502      745F7400 
 7503              	.LASF74:
 7504 0779 434C4F43 		.ascii	"CLOCK_state_t\000"
 7504      4B5F7374 
 7504      6174655F 
 7504      7400
 7505              	.LASF170:
 7506 0787 7461736B 		.ascii	"task\000"
 7506      00
 7507              	.LASF125:
 7508 078c 4C475241 		.ascii	"LGRAY\000"
 7508      5900
 7509              	.LASF229:
 7510 0792 53544154 		.ascii	"STATE_CLOCK_W_IS_EDITING_Transitions\000"
 7510      455F434C 
 7510      4F434B5F 
 7510      575F4953 
ARM GAS  C:\Users\aditi\AppData\Local\Temp\ccxJli9U.s 			page 180


 7510      5F454449 
 7511              	.LASF221:
 7512 07b7 45455F49 		.ascii	"EE_IRQ_nesting_level\000"
 7512      52515F6E 
 7512      65737469 
 7512      6E675F6C 
 7512      6576656C 
 7513              	.LASF190:
 7514 07cc 434C4F43 		.ascii	"CLOCK__dispatch_250MS_Hours\000"
 7514      4B5F5F64 
 7514      69737061 
 7514      7463685F 
 7514      3235304D 
 7515              	.LASF141:
 7516 07e8 53435F45 		.ascii	"SC_EVENT_cfg_s\000"
 7516      56454E54 
 7516      5F636667 
 7516      5F7300
 7517              	.LASF140:
 7518 07f7 53435F45 		.ascii	"SC_EVENT_cfg_t\000"
 7518      56454E54 
 7518      5F636667 
 7518      5F7400
 7519              	.LASF217:
 7520 0806 45455F6F 		.ascii	"EE_oo_IRQ_disable_count\000"
 7520      6F5F4952 
 7520      515F6469 
 7520      7361626C 
 7520      655F636F 
 7521              	.LASF75:
 7522 081e 45565F4E 		.ascii	"EV_NONE\000"
 7522      4F4E4500 
 7523              	.LASF171:
 7524 0826 5254455F 		.ascii	"RTE_SC_EVENT_set\000"
 7524      53435F45 
 7524      56454E54 
 7524      5F736574 
 7524      00
 7525              	.LASF53:
 7526 0837 52435F45 		.ascii	"RC_ERROR_BAD_PARAM\000"
 7526      52524F52 
 7526      5F424144 
 7526      5F504152 
 7526      414D00
 7527              	.LASF76:
 7528 084a 45565F4B 		.ascii	"EV_KEYLEFT\000"
 7528      45594C45 
 7528      465400
 7529              	.LASF61:
 7530 0855 5254455F 		.ascii	"RTE_event\000"
 7530      6576656E 
 7530      7400
 7531              	.LASF63:
 7532 085f 5254455F 		.ascii	"RTE_SIGNALSTATUS_STARTUP\000"
 7532      5349474E 
 7532      414C5354 
 7532      41545553 
ARM GAS  C:\Users\aditi\AppData\Local\Temp\ccxJli9U.s 			page 181


 7532      5F535441 
 7533              	.LASF202:
 7534 0878 434C4F43 		.ascii	"CLOCK_input_run\000"
 7534      4B5F696E 
 7534      7075745F 
 7534      72756E00 
 7535              	.LASF44:
 7536 0888 52435F45 		.ascii	"RC_ERROR_TIME_OUT\000"
 7536      52524F52 
 7536      5F54494D 
 7536      455F4F55 
 7536      5400
 7537              	.LASF166:
 7538 089a 5254455F 		.ascii	"RTE_SC_CLOCK_set\000"
 7538      53435F43 
 7538      4C4F434B 
 7538      5F736574 
 7538      00
 7539              	.LASF184:
 7540 08ab 6C6F6361 		.ascii	"localState\000"
 7540      6C537461 
 7540      746500
 7541              	.LASF168:
 7542 08b6 7461736B 		.ascii	"taskNum\000"
 7542      4E756D00 
 7543              	.LASF9:
 7544 08be 6C6F6E67 		.ascii	"long unsigned int\000"
 7544      20756E73 
 7544      69676E65 
 7544      6420696E 
 7544      7400
 7545              	.LASF144:
 7546 08d0 73746174 		.ascii	"status\000"
 7546      757300
 7547              	.LASF47:
 7548 08d7 52435F45 		.ascii	"RC_ERROR_READ_ONLY\000"
 7548      52524F52 
 7548      5F524541 
 7548      445F4F4E 
 7548      4C5900
 7549              	.LASF131:
 7550 08ea 6F757444 		.ascii	"outDriver\000"
 7550      72697665 
 7550      7200
 7551              	.LASF73:
 7552 08f4 53544154 		.ascii	"STATE_CLOCK_W_ISAUTOINCREMENT\000"
 7552      455F434C 
 7552      4F434B5F 
 7552      575F4953 
 7552      4155544F 
 7553              	.LASF237:
 7554 0912 5446545F 		.ascii	"TFT_fillRect\000"
 7554      66696C6C 
 7554      52656374 
 7554      00
 7555              	.LASF194:
 7556 091f 434C4F43 		.ascii	"CLOCK__dispatch_KL_Hours\000"
ARM GAS  C:\Users\aditi\AppData\Local\Temp\ccxJli9U.s 			page 182


 7556      4B5F5F64 
 7556      69737061 
 7556      7463685F 
 7556      4B4C5F48 
 7557              	.LASF183:
 7558 0938 636C6F63 		.ascii	"clock\000"
 7558      6B00
 7559              	.LASF97:
 7560 093e 434C4F43 		.ascii	"CLOCK_MINUTESWIDGET\000"
 7560      4B5F4D49 
 7560      4E555445 
 7560      53574944 
 7560      47455400 
 7561              	.LASF34:
 7562 0952 52435F45 		.ascii	"RC_ERROR\000"
 7562      52524F52 
 7562      00
 7563              	.LASF133:
 7564 095b 65764F6E 		.ascii	"evOnError\000"
 7564      4572726F 
 7564      7200
 7565              	.LASF127:
 7566 0965 4C42424C 		.ascii	"LBBLUE\000"
 7566      554500
 7567              	.LASF179:
 7568 096c 45455F73 		.ascii	"EE_std_end_IRQ_post_stub\000"
 7568      74645F65 
 7568      6E645F49 
 7568      52515F70 
 7568      6F73745F 
 7569              	.LASF121:
 7570 0985 4441524B 		.ascii	"DARKBLUE\000"
 7570      424C5545 
 7570      00
 7571              	.LASF8:
 7572 098e 5F5F7569 		.ascii	"__uint32_t\000"
 7572      6E743332 
 7572      5F7400
 7573              	.LASF218:
 7574 0999 45455F6F 		.ascii	"EE_oo_IRQ_suspend_status\000"
 7574      6F5F4952 
 7574      515F7375 
 7574      7370656E 
 7574      645F7374 
 7575              	.LASF10:
 7576 09b2 6C6F6E67 		.ascii	"long long int\000"
 7576      206C6F6E 
 7576      6720696E 
 7576      7400
 7577              	.LASF241:
 7578 09c0 45455F49 		.ascii	"EE_IRQ_end_post_stub\000"
 7578      52515F65 
 7578      6E645F70 
 7578      6F73745F 
 7578      73747562 
 7579              	.LASF65:
 7580 09d5 5254455F 		.ascii	"RTE_SIGNALSTATUS_VALID\000"
ARM GAS  C:\Users\aditi\AppData\Local\Temp\ccxJli9U.s 			page 183


 7580      5349474E 
 7580      414C5354 
 7580      41545553 
 7580      5F56414C 
 7581              	.LASF226:
 7582 09ec 434C4F43 		.ascii	"CLOCK_Container_Transitions\000"
 7582      4B5F436F 
 7582      6E746169 
 7582      6E65725F 
 7582      5472616E 
 7583              	.LASF30:
 7584 0a08 4576656E 		.ascii	"EventMaskType\000"
 7584      744D6173 
 7584      6B547970 
 7584      6500
 7585              	.LASF18:
 7586 0a16 646F7562 		.ascii	"double\000"
 7586      6C6500
 7587              	.LASF96:
 7588 0a1d 434C4F43 		.ascii	"CLOCK_HOURSWIDGET\000"
 7588      4B5F484F 
 7588      55525357 
 7588      49444745 
 7588      5400
 7589              	.LASF128:
 7590 0a2f 53435F45 		.ascii	"SC_EVENT_driverIn_t\000"
 7590      56454E54 
 7590      5F647269 
 7590      76657249 
 7590      6E5F7400 
 7591              	.LASF80:
 7592 0a43 45565F32 		.ascii	"EV_250MS\000"
 7592      35304D53 
 7592      00
 7593              	.LASF49:
 7594 0a4c 52435F45 		.ascii	"RC_ERROR_INVALID\000"
 7594      52524F52 
 7594      5F494E56 
 7594      414C4944 
 7594      00
 7595              	.LASF222:
 7596 0a5d 49544D5F 		.ascii	"ITM_RxBuffer\000"
 7596      52784275 
 7596      66666572 
 7596      00
 7597              	.LASF110:
 7598 0a6a 424C5545 		.ascii	"BLUE\000"
 7598      00
 7599              	.LASF54:
 7600 0a6f 52435F45 		.ascii	"RC_ERROR_BAD_DATA\000"
 7600      52524F52 
 7600      5F424144 
 7600      5F444154 
 7600      4100
 7601              	.LASF70:
 7602 0a81 53544154 		.ascii	"STATE_CLOCK_C_ISEDITINGMINUTES\000"
 7602      455F434C 
ARM GAS  C:\Users\aditi\AppData\Local\Temp\ccxJli9U.s 			page 184


 7602      4F434B5F 
 7602      435F4953 
 7602      45444954 
 7603              	.LASF29:
 7604 0aa0 5461736B 		.ascii	"TaskType\000"
 7604      54797065 
 7604      00
 7605              	.LASF17:
 7606 0aa9 666C6F61 		.ascii	"float\000"
 7606      7400
 7607              	.LASF193:
 7608 0aaf 434C4F43 		.ascii	"CLOCK__dispatch_KL_HoursMin\000"
 7608      4B5F5F64 
 7608      69737061 
 7608      7463685F 
 7608      4B4C5F48 
 7609              	.LASF86:
 7610 0acb 6576656E 		.ascii	"event\000"
 7610      7400
 7611              	.LASF195:
 7612 0ad1 434C4F43 		.ascii	"CLOCK__setEditFonts\000"
 7612      4B5F5F73 
 7612      65744564 
 7612      6974466F 
 7612      6E747300 
 7613              	.LASF39:
 7614 0ae5 52435F45 		.ascii	"RC_ERROR_OVERRUN\000"
 7614      52524F52 
 7614      5F4F5645 
 7614      5252554E 
 7614      00
 7615              	.LASF26:
 7616 0af6 45455F54 		.ascii	"EE_TYPEBOOL\000"
 7616      59504542 
 7616      4F4F4C00 
 7617              	.LASF204:
 7618 0b02 6576656E 		.ascii	"eventSignal_t\000"
 7618      74536967 
 7618      6E616C5F 
 7618      7400
 7619              	.LASF12:
 7620 0b10 756E7369 		.ascii	"unsigned int\000"
 7620      676E6564 
 7620      20696E74 
 7620      00
 7621              	.LASF23:
 7622 0b1d 45455F55 		.ascii	"EE_UINT32\000"
 7622      494E5433 
 7622      3200
 7623              	.LASF138:
 7624 0b27 7265736F 		.ascii	"resourceActive\000"
 7624      75726365 
 7624      41637469 
 7624      766500
 7625              	.LASF25:
 7626 0b36 45455F46 		.ascii	"EE_FREG\000"
 7626      52454700 
ARM GAS  C:\Users\aditi\AppData\Local\Temp\ccxJli9U.s 			page 185


 7627              	.LASF211:
 7628 0b3e 76656374 		.ascii	"vectact\000"
 7628      61637400 
 7629              	.LASF118:
 7630 0b46 42524F57 		.ascii	"BROWN\000"
 7630      4E00
 7631              	.LASF122:
 7632 0b4c 4C494748 		.ascii	"LIGHTBLUE\000"
 7632      54424C55 
 7632      4500
 7633              	.LASF119:
 7634 0b56 42525245 		.ascii	"BRRED\000"
 7634      4400
 7635              	.LASF28:
 7636 0b5c 45455F54 		.ascii	"EE_TID\000"
 7636      494400
 7637              	.LASF157:
 7638 0b63 6D696E75 		.ascii	"minutes\000"
 7638      74657300 
 7639              	.LASF106:
 7640 0b6b 6D5F6D69 		.ascii	"m_minutes\000"
 7640      6E757465 
 7640      7300
 7641              	.LASF136:
 7642 0b75 6F6E4572 		.ascii	"onErrorTaskCount\000"
 7642      726F7254 
 7642      61736B43 
 7642      6F756E74 
 7642      00
 7643              	.LASF129:
 7644 0b86 53435F45 		.ascii	"SC_EVENT_driverOut_t\000"
 7644      56454E54 
 7644      5F647269 
 7644      7665724F 
 7644      75745F74 
 7645              	.LASF120:
 7646 0b9b 47524159 		.ascii	"GRAY\000"
 7646      00
 7647              	.LASF87:
 7648 0ba0 746F5374 		.ascii	"toState\000"
 7648      61746500 
 7649              	.LASF238:
 7650 0ba8 55415254 		.ascii	"UART_LOG_PutChar\000"
 7650      5F4C4F47 
 7650      5F507574 
 7650      43686172 
 7650      00
 7651              	.LASF151:
 7652 0bb9 53435F43 		.ascii	"SC_CLOCK_s\000"
 7652      4C4F434B 
 7652      5F7300
 7653              	.LASF152:
 7654 0bc4 53435F43 		.ascii	"SC_CLOCK_t\000"
 7654      4C4F434B 
 7654      5F7400
 7655              	.LASF85:
 7656 0bcf 6D5F6576 		.ascii	"m_ev\000"
ARM GAS  C:\Users\aditi\AppData\Local\Temp\ccxJli9U.s 			page 186


 7656      00
 7657              	.LASF81:
 7658 0bd4 53544154 		.ascii	"STATE_event_t\000"
 7658      455F6576 
 7658      656E745F 
 7658      7400
 7659              	.LASF21:
 7660 0be2 6C6F6E67 		.ascii	"long double\000"
 7660      20646F75 
 7660      626C6500 
 7661              	.LASF52:
 7662 0bee 52435F45 		.ascii	"RC_ERROR_NOT_MATCH\000"
 7662      52524F52 
 7662      5F4E4F54 
 7662      5F4D4154 
 7662      434800
 7663              	.LASF37:
 7664 0c01 52435F45 		.ascii	"RC_ERROR_MEMORY\000"
 7664      52524F52 
 7664      5F4D454D 
 7664      4F525900 
 7665              	.LASF77:
 7666 0c11 45565F4B 		.ascii	"EV_KEYRIGHT\000"
 7666      45595249 
 7666      47485400 
 7667              	.LASF41:
 7668 0c1d 52435F45 		.ascii	"RC_ERROR_BUFFER_FULL\000"
 7668      52524F52 
 7668      5F425546 
 7668      4645525F 
 7668      46554C4C 
 7669              	.LASF154:
 7670 0c32 74656E73 		.ascii	"tensValue\000"
 7670      56616C75 
 7670      6500
 7671              	.LASF93:
 7672 0c3c 73697A65 		.ascii	"size\000"
 7672      00
 7673              	.LASF233:
 7674 0c41 45455F6F 		.ascii	"EE_oo_SetEvent\000"
 7674      6F5F5365 
 7674      74457665 
 7674      6E7400
 7675              	.LASF33:
 7676 0c50 52435F53 		.ascii	"RC_SUCCESS\000"
 7676      55434345 
 7676      535300
 7677              	.LASF11:
 7678 0c5b 6C6F6E67 		.ascii	"long long unsigned int\000"
 7678      206C6F6E 
 7678      6720756E 
 7678      7369676E 
 7678      65642069 
 7679              	.LASF232:
 7680 0c72 434C4F43 		.ascii	"CLOCK_Widget_Transitions_Size\000"
 7680      4B5F5769 
 7680      64676574 
ARM GAS  C:\Users\aditi\AppData\Local\Temp\ccxJli9U.s 			page 187


 7680      5F547261 
 7680      6E736974 
 7681              	.LASF14:
 7682 0c90 75696E74 		.ascii	"uint16_t\000"
 7682      31365F74 
 7682      00
 7683              	.LASF216:
 7684 0c99 53544154 		.ascii	"STATE_CLOCK_C_IS_EDITINGMINUTES_Transitions\000"
 7684      455F434C 
 7684      4F434B5F 
 7684      435F4953 
 7684      5F454449 
 7685              	.LASF206:
 7686 0cc5 434C4F43 		.ascii	"CLOCK_display_run\000"
 7686      4B5F6469 
 7686      73706C61 
 7686      795F7275 
 7686      6E00
 7687              	.LASF248:
 7688 0cd7 45455F63 		.ascii	"EE_cortex_mx_set_int_prio\000"
 7688      6F727465 
 7688      785F6D78 
 7688      5F736574 
 7688      5F696E74 
 7689              	.LASF66:
 7690 0cf1 5254455F 		.ascii	"RTE_SIGNALSTATUS_INVALID\000"
 7690      5349474E 
 7690      414C5354 
 7690      41545553 
 7690      5F494E56 
 7691              	.LASF143:
 7692 0d0a 76616C75 		.ascii	"value\000"
 7692      6500
 7693              	.LASF214:
 7694 0d10 53544154 		.ascii	"STATE_CLOCK_C_IS_DISPLAYING_Transitions\000"
 7694      455F434C 
 7694      4F434B5F 
 7694      435F4953 
 7694      5F444953 
 7695              	.LASF186:
 7696 0d38 434C4F43 		.ascii	"CLOCK__dispatch_250MS_Min\000"
 7696      4B5F5F64 
 7696      69737061 
 7696      7463685F 
 7696      3235304D 
 7697              	.LASF67:
 7698 0d52 5254455F 		.ascii	"RTE_signalStatus_t\000"
 7698      7369676E 
 7698      616C5374 
 7698      61747573 
 7698      5F7400
 7699              	.LASF72:
 7700 0d65 53544154 		.ascii	"STATE_CLOCK_W_ISEDITING\000"
 7700      455F434C 
 7700      4F434B5F 
 7700      575F4953 
 7700      45444954 
ARM GAS  C:\Users\aditi\AppData\Local\Temp\ccxJli9U.s 			page 188


 7701              	.LASF235:
 7702 0d7d 53544154 		.ascii	"STATE_processEvent\000"
 7702      455F7072 
 7702      6F636573 
 7702      73457665 
 7702      6E7400
 7703              	.LASF83:
 7704 0d90 53544154 		.ascii	"STATE_ActionPtr_t\000"
 7704      455F4163 
 7704      74696F6E 
 7704      5074725F 
 7704      7400
 7705              	.LASF112:
 7706 0da2 47524544 		.ascii	"GRED\000"
 7706      00
 7707              	.LASF250:
 7708 0da7 434C4F43 		.ascii	"CLOCK__dispatch_wrapper\000"
 7708      4B5F5F64 
 7708      69737061 
 7708      7463685F 
 7708      77726170 
 7709              	.LASF187:
 7710 0dbf 434C4F43 		.ascii	"CLOCK__dispatch_KRLP_Min\000"
 7710      4B5F5F64 
 7710      69737061 
 7710      7463685F 
 7710      4B524C50 
 7711              	.LASF249:
 7712 0dd8 45455F69 		.ascii	"EE_is_inside_ISR_call\000"
 7712      735F696E 
 7712      73696465 
 7712      5F495352 
 7712      5F63616C 
 7713              	.LASF225:
 7714 0dee 534F5F44 		.ascii	"SO_DISPLAY_signal\000"
 7714      4953504C 
 7714      41595F73 
 7714      69676E61 
 7714      6C00
 7715              	.LASF220:
 7716 0e00 45455F73 		.ascii	"EE_std_endcycle_next_tid\000"
 7716      74645F65 
 7716      6E646379 
 7716      636C655F 
 7716      6E657874 
 7717              	.LASF231:
 7718 0e19 434C4F43 		.ascii	"CLOCK_Widget_Transitions\000"
 7718      4B5F5769 
 7718      64676574 
 7718      5F547261 
 7718      6E736974 
 7719              	.LASF161:
 7720 0e32 53435F44 		.ascii	"SC_DISPLAY_cfg_s\000"
 7720      4953504C 
 7720      41595F63 
 7720      66675F73 
 7720      00
ARM GAS  C:\Users\aditi\AppData\Local\Temp\ccxJli9U.s 			page 189


 7721              	.LASF162:
 7722 0e43 53435F44 		.ascii	"SC_DISPLAY_cfg_t\000"
 7722      4953504C 
 7722      41595F63 
 7722      66675F74 
 7722      00
 7723              	.LASF57:
 7724 0e54 52435F45 		.ascii	"RC_ERROR_UNKNOWN\000"
 7724      52524F52 
 7724      5F554E4B 
 7724      4E4F574E 
 7724      00
 7725              	.LASF145:
 7726 0e65 70536967 		.ascii	"pSigCfg\000"
 7726      43666700 
 7727              	.LASF22:
 7728 0e6d 45455F49 		.ascii	"EE_INT32\000"
 7728      4E543332 
 7728      00
 7729              	.LASF27:
 7730 0e76 45455F54 		.ascii	"EE_TYPEISR2PRIO\000"
 7730      59504549 
 7730      53523250 
 7730      52494F00 
 7731              	.LASF208:
 7732 0e86 49535232 		.ascii	"ISR2_isr_button\000"
 7732      5F697372 
 7732      5F627574 
 7732      746F6E00 
 7733              	.LASF42:
 7734 0e96 52435F45 		.ascii	"RC_ERROR_BUFFER_EMTPY\000"
 7734      52524F52 
 7734      5F425546 
 7734      4645525F 
 7734      454D5450 
 7735              	.LASF40:
 7736 0eac 52435F45 		.ascii	"RC_ERROR_UNDERRUN\000"
 7736      52524F52 
 7736      5F554E44 
 7736      45525255 
 7736      4E00
 7737              	.LASF2:
 7738 0ebe 73686F72 		.ascii	"short int\000"
 7738      7420696E 
 7738      7400
 7739              	.LASF38:
 7740 0ec8 52435F45 		.ascii	"RC_ERROR_RANGE\000"
 7740      52524F52 
 7740      5F52414E 
 7740      474500
 7741              	.LASF50:
 7742 0ed7 52435F45 		.ascii	"RC_ERROR_READ_FAILS\000"
 7742      52524F52 
 7742      5F524541 
 7742      445F4641 
 7742      494C5300 
 7743              	.LASF89:
ARM GAS  C:\Users\aditi\AppData\Local\Temp\ccxJli9U.s 			page 190


 7744 0eeb 61637469 		.ascii	"actionTransition\000"
 7744      6F6E5472 
 7744      616E7369 
 7744      74696F6E 
 7744      00
 7745              	.LASF213:
 7746 0efc 696E7465 		.ascii	"interruptFlag\000"
 7746      72727570 
 7746      74466C61 
 7746      6700
 7747              	.LASF35:
 7748 0f0a 52435F45 		.ascii	"RC_ERROR_NULL\000"
 7748      52524F52 
 7748      5F4E554C 
 7748      4C00
 7749              	.LASF185:
 7750 0f18 434C4F43 		.ascii	"CLOCK__increment1Minute\000"
 7750      4B5F5F69 
 7750      6E637265 
 7750      6D656E74 
 7750      314D696E 
 7751              	.LASF95:
 7752 0f30 53544154 		.ascii	"STATE_stateOuterTransitionTable_t\000"
 7752      455F7374 
 7752      6174654F 
 7752      75746572 
 7752      5472616E 
 7753              	.LASF212:
 7754 0f52 6973725F 		.ascii	"isr_button\000"
 7754      62757474 
 7754      6F6E00
 7755              	.LASF99:
 7756 0f5d 6D5F7769 		.ascii	"m_widgetState\000"
 7756      64676574 
 7756      53746174 
 7756      6500
 7757              	.LASF36:
 7758 0f6b 52435F45 		.ascii	"RC_ERROR_ZERO\000"
 7758      52524F52 
 7758      5F5A4552 
 7758      4F00
 7759              	.LASF236:
 7760 0f79 5446545F 		.ascii	"TFT_setCursor\000"
 7760      73657443 
 7760      7572736F 
 7760      7200
 7761              	.LASF16:
 7762 0f87 75696E74 		.ascii	"uint32_t\000"
 7762      33325F74 
 7762      00
 7763              	.LASF156:
 7764 0f90 686F7572 		.ascii	"hours\000"
 7764      7300
 7765              	.LASF215:
 7766 0f96 53544154 		.ascii	"STATE_CLOCK_C_IS_EDITINGHOURS_Transitions\000"
 7766      455F434C 
 7766      4F434B5F 
ARM GAS  C:\Users\aditi\AppData\Local\Temp\ccxJli9U.s 			page 191


 7766      435F4953 
 7766      5F454449 
 7767              	.LASF5:
 7768 0fc0 73686F72 		.ascii	"short unsigned int\000"
 7768      7420756E 
 7768      7369676E 
 7768      65642069 
 7768      6E7400
 7769              	.LASF56:
 7770 0fd3 52435F45 		.ascii	"RC_ERROR_INVALID_STATE\000"
 7770      52524F52 
 7770      5F494E56 
 7770      414C4944 
 7770      5F535441 
 7771              	.LASF6:
 7772 0fea 5F5F696E 		.ascii	"__int32_t\000"
 7772      7433325F 
 7772      7400
 7773              	.LASF230:
 7774 0ff4 53544154 		.ascii	"STATE_CLOCK_W_IS_AUTOINCREMENT_Transitions\000"
 7774      455F434C 
 7774      4F434B5F 
 7774      575F4953 
 7774      5F415554 
 7775              	.LASF60:
 7776 101f 5461736B 		.ascii	"TaskTypeArray\000"
 7776      54797065 
 7776      41727261 
 7776      7900
 7777              	.LASF108:
 7778 102d 57484954 		.ascii	"WHITE\000"
 7778      4500
 7779              	.LASF48:
 7780 1033 52435F45 		.ascii	"RC_ERROR_WRITE_ONLY\000"
 7780      52524F52 
 7780      5F575249 
 7780      54455F4F 
 7780      4E4C5900 
 7781              	.LASF172:
 7782 1047 5254455F 		.ascii	"RTE_SC_EVENT_get\000"
 7782      53435F45 
 7782      56454E54 
 7782      5F676574 
 7782      00
 7783              	.LASF177:
 7784 1058 45455F63 		.ascii	"EE_cortex_mx_disableIRQ\000"
 7784      6F727465 
 7784      785F6D78 
 7784      5F646973 
 7784      61626C65 
 7785              	.LASF200:
 7786 1070 6576656E 		.ascii	"eventSignal\000"
 7786      74536967 
 7786      6E616C00 
 7787              	.LASF180:
 7788 107c 45455F63 		.ascii	"EE_cortex_mx_enableIRQ\000"
 7788      6F727465 
ARM GAS  C:\Users\aditi\AppData\Local\Temp\ccxJli9U.s 			page 192


 7788      785F6D78 
 7788      5F656E61 
 7788      626C6549 
 7789              	.LASF165:
 7790 1093 5254455F 		.ascii	"RTE_SC_CLOCK_get\000"
 7790      53435F43 
 7790      4C4F434B 
 7790      5F676574 
 7790      00
 7791              		.ident	"GCC: (GNU Tools for ARM Embedded Processors) 5.4.1 20160609 (release) [ARM/embedded-5-bran
