ARM GAS  C:\Users\aditi\AppData\Local\Temp\ccxJli9U.s 			page 1


   1              		.syntax unified
   2              		.cpu cortex-m3
   3              		.fpu softvfp
   4              		.eabi_attribute 20, 1
   5              		.eabi_attribute 21, 1
   6              		.eabi_attribute 23, 3
   7              		.eabi_attribute 24, 1
   8              		.eabi_attribute 25, 1
   9              		.eabi_attribute 26, 1
  10              		.eabi_attribute 30, 1
  11              		.eabi_attribute 34, 1
  12              		.eabi_attribute 18, 4
  13              		.thumb
  14              		.syntax unified
  15              		.file	"swc_clock.c"
  16              		.text
  17              	.Ltext0:
  18              		.cfi_sections	.debug_frame
  19              		.section	.text.CLOCK__increment1Minute,"ax",%progbits
  20              		.align	2
  21              		.thumb
  22              		.thumb_func
  23              		.type	CLOCK__increment1Minute, %function
  24              	CLOCK__increment1Minute:
  25              	.LFB147:
  26              		.file 1 "source\\asw\\swc_clock.c"
   1:source\asw/swc_clock.c **** 
   2:source\asw/swc_clock.c **** 
   3:source\asw/swc_clock.c **** /*
   4:source\asw/swc_clock.c ****  * Filename: swc_clock.c
   5:source\asw/swc_clock.c ****  *
   6:source\asw/swc_clock.c ****  * Author: Autogenerated by H-DA RTE Generator, (c) Prof. Fromm
   7:source\asw/swc_clock.c ****  */
   8:source\asw/swc_clock.c **** 
   9:source\asw/swc_clock.c **** #include "project.h"
  10:source\asw/swc_clock.c **** #include "global.h"
  11:source\asw/swc_clock.c **** #include "rte.h"
  12:source\asw/swc_clock.c **** #include "rte_types.h"
  13:source\asw/swc_clock.c **** #include "swc_clock.h"
  14:source\asw/swc_clock.c **** 
  15:source\asw/swc_clock.c **** /* USER CODE START SWC_CLOCK_INCLUDE */
  16:source\asw/swc_clock.c **** #include "sc_event_type.h"
  17:source\asw/swc_clock.c **** #include "sc_clock_type.h"
  18:source\asw/swc_clock.c **** #include "statemachine.h"
  19:source\asw/swc_clock.c **** #include "tft.h"
  20:source\asw/swc_clock.c **** /* USER CODE END SWC_CLOCK_INCLUDE */
  21:source\asw/swc_clock.c **** 
  22:source\asw/swc_clock.c **** 
  23:source\asw/swc_clock.c **** #include "sp_common.h"
  24:source\asw/swc_clock.c **** 
  25:source\asw/swc_clock.c **** /* USER CODE START SWC_CLOCK_USERDEFINITIONS */
  26:source\asw/swc_clock.c **** static uint8_t interruptFlag = 0;
  27:source\asw/swc_clock.c **** 
  28:source\asw/swc_clock.c **** #define HOURFORMAT_12_MAX          12
  29:source\asw/swc_clock.c **** #define HOURFORMAT_24_MAX          24
  30:source\asw/swc_clock.c **** 
  31:source\asw/swc_clock.c **** #define MINUTES_MAX                60
ARM GAS  C:\Users\aditi\AppData\Local\Temp\ccxJli9U.s 			page 2


  32:source\asw/swc_clock.c **** /* USER CODE END SWC_CLOCK_USERDEFINITIONS */
  33:source\asw/swc_clock.c **** 
  34:source\asw/swc_clock.c **** /** --------------------------------------------- Actions -----------------------------------------
  35:source\asw/swc_clock.c **** 
  36:source\asw/swc_clock.c **** /**
  37:source\asw/swc_clock.c ****  * Will dispatch KEYLEFT to Hours widget
  38:source\asw/swc_clock.c ****  */
  39:source\asw/swc_clock.c **** static void CLOCK__dispatch_KL_Hours();
  40:source\asw/swc_clock.c **** 
  41:source\asw/swc_clock.c **** /**
  42:source\asw/swc_clock.c ****  * Will increment the clock after one minute
  43:source\asw/swc_clock.c ****  */
  44:source\asw/swc_clock.c **** static void CLOCK__increment1Minute();
  45:source\asw/swc_clock.c **** 
  46:source\asw/swc_clock.c **** /**
  47:source\asw/swc_clock.c ****  * Will dispatch KEYLEFT to both Hours and Minutes widget
  48:source\asw/swc_clock.c ****  */
  49:source\asw/swc_clock.c **** static void CLOCK__dispatch_KL_HoursMin();
  50:source\asw/swc_clock.c **** 
  51:source\asw/swc_clock.c **** /**
  52:source\asw/swc_clock.c ****  * Will dispatch KEYRIGHT to Hours widget
  53:source\asw/swc_clock.c ****  */
  54:source\asw/swc_clock.c **** static void CLOCK__dispatch_KR_Hours();
  55:source\asw/swc_clock.c **** 
  56:source\asw/swc_clock.c **** /**
  57:source\asw/swc_clock.c ****  * Will dispatch KEYRIGHTLONGPRESS to Hours widget
  58:source\asw/swc_clock.c ****  */
  59:source\asw/swc_clock.c **** static void CLOCK__dispatch_KRLP_Hours();
  60:source\asw/swc_clock.c **** 
  61:source\asw/swc_clock.c **** /**
  62:source\asw/swc_clock.c ****  * Will dispatch 250MS event to Hours widget
  63:source\asw/swc_clock.c ****  */
  64:source\asw/swc_clock.c **** static void CLOCK__dispatch_250MS_Hours();
  65:source\asw/swc_clock.c **** 
  66:source\asw/swc_clock.c **** /**
  67:source\asw/swc_clock.c ****  * Will dispatch KEYLEFT to Minutes widget
  68:source\asw/swc_clock.c ****  */
  69:source\asw/swc_clock.c **** static void CLOCK__dispatch_KL_Min();
  70:source\asw/swc_clock.c **** 
  71:source\asw/swc_clock.c **** /**
  72:source\asw/swc_clock.c ****  * Will dispatch KEYRIGHT to Minutes widget
  73:source\asw/swc_clock.c ****  */
  74:source\asw/swc_clock.c **** static void CLOCK__dispatch_KR_Min();
  75:source\asw/swc_clock.c **** 
  76:source\asw/swc_clock.c **** /**
  77:source\asw/swc_clock.c ****  * Will dispatch KEYRIGHTLONGPRESS to Minutes widget
  78:source\asw/swc_clock.c ****  */
  79:source\asw/swc_clock.c **** static void CLOCK__dispatch_KRLP_Min();
  80:source\asw/swc_clock.c **** 
  81:source\asw/swc_clock.c **** /**
  82:source\asw/swc_clock.c ****  * Will dispatch 250MS event to Minutes widget
  83:source\asw/swc_clock.c ****  */
  84:source\asw/swc_clock.c **** static void CLOCK__dispatch_250MS_Min();
  85:source\asw/swc_clock.c **** 
  86:source\asw/swc_clock.c **** /**
  87:source\asw/swc_clock.c ****  * Sets the required display configuration for Edit mode of the clock
  88:source\asw/swc_clock.c ****  */
ARM GAS  C:\Users\aditi\AppData\Local\Temp\ccxJli9U.s 			page 3


  89:source\asw/swc_clock.c **** static void CLOCK__setEditFonts();
  90:source\asw/swc_clock.c **** 
  91:source\asw/swc_clock.c **** /**
  92:source\asw/swc_clock.c ****  * Increments the widget time in edit mode
  93:source\asw/swc_clock.c ****  */
  94:source\asw/swc_clock.c **** static void CLOCK__incrementWidget();
  95:source\asw/swc_clock.c **** 
  96:source\asw/swc_clock.c **** /**
  97:source\asw/swc_clock.c ****  * Sets the required display configuration for Display mode of the clock
  98:source\asw/swc_clock.c ****  */
  99:source\asw/swc_clock.c **** static void CLOCK__setDisplayFonts();
 100:source\asw/swc_clock.c **** 
 101:source\asw/swc_clock.c **** 
 102:source\asw/swc_clock.c **** /**
 103:source\asw/swc_clock.c ****  * General Dispatcher, saving the states
 104:source\asw/swc_clock.c ****  */
 105:source\asw/swc_clock.c **** static void CLOCK__dispatch_wrapper(STATE_event_t ev, CLOCK_active_widget_t widget);
 106:source\asw/swc_clock.c **** 
 107:source\asw/swc_clock.c **** /** -------------------------------------- Container Transitions ----------------------------------
 108:source\asw/swc_clock.c **** 
 109:source\asw/swc_clock.c **** /** ==== IS_DISPLAYING ==== **/
 110:source\asw/swc_clock.c **** static const STATE_stateInnerTransitionTable_t STATE_CLOCK_C_IS_DISPLAYING_Transitions = {
 111:source\asw/swc_clock.c **** /*      Event                        ToState                        Guard              Action */
 112:source\asw/swc_clock.c ****     { EVENT(EV_KEYLEFT),    STATE(STATE_CLOCK_C_ISEDITINGHOURS),       0,         CLOCK__dispatch_K
 113:source\asw/swc_clock.c ****     { EVENT(EV_1MIN),       STATE(STATE_CLOCK_C_ISDISPLAYING),         0,         CLOCK__increment1
 114:source\asw/swc_clock.c **** };
 115:source\asw/swc_clock.c **** 
 116:source\asw/swc_clock.c **** /** ==== IS_EDITINGHOURS ==== **/
 117:source\asw/swc_clock.c **** static const STATE_stateInnerTransitionTable_t STATE_CLOCK_C_IS_EDITINGHOURS_Transitions = {
 118:source\asw/swc_clock.c **** /*      Event                               ToState                            Guard              A
 119:source\asw/swc_clock.c ****     { EVENT(EV_KEYLEFT),            STATE(STATE_CLOCK_C_ISEDITINGMINUTES),       0,          CLOCK_
 120:source\asw/swc_clock.c ****     { EVENT(EV_KEYRIGHT),           STATE(STATE_CLOCK_C_ISEDITINGHOURS),         0,          CLOCK_
 121:source\asw/swc_clock.c ****     { EVENT(EV_KEYRIGHTLONGPRESS),  STATE(STATE_CLOCK_C_ISEDITINGHOURS),         0,          CLOCK_
 122:source\asw/swc_clock.c ****     { EVENT(EV_250MS),              STATE(STATE_CLOCK_C_ISEDITINGHOURS),         0,          CLOCK_
 123:source\asw/swc_clock.c **** };
 124:source\asw/swc_clock.c **** 
 125:source\asw/swc_clock.c **** /** ==== IS_EDITINGMINUTES ==== **/
 126:source\asw/swc_clock.c **** static const STATE_stateInnerTransitionTable_t STATE_CLOCK_C_IS_EDITINGMINUTES_Transitions = {
 127:source\asw/swc_clock.c **** /*      Event                               ToState                            Guard              A
 128:source\asw/swc_clock.c ****     { EVENT(EV_KEYLEFT),            STATE(STATE_CLOCK_C_ISDISPLAYING),           0,          CLOCK_
 129:source\asw/swc_clock.c ****     { EVENT(EV_KEYRIGHT),           STATE(STATE_CLOCK_C_ISEDITINGMINUTES),       0,          CLOCK_
 130:source\asw/swc_clock.c ****     { EVENT(EV_KEYRIGHTLONGPRESS),  STATE(STATE_CLOCK_C_ISEDITINGMINUTES),       0,          CLOCK_
 131:source\asw/swc_clock.c ****     { EVENT(EV_250MS),              STATE(STATE_CLOCK_C_ISEDITINGMINUTES),       0,          CLOCK_
 132:source\asw/swc_clock.c **** };    
 133:source\asw/swc_clock.c **** 
 134:source\asw/swc_clock.c **** const STATE_stateOuterTransitionTable_t CLOCK_Container_Transitions = {
 135:source\asw/swc_clock.c **** /*           fromState                          Pointer to table                                   
 136:source\asw/swc_clock.c ****     { STATE(STATE_CLOCK_C_ISDISPLAYING),       &STATE_CLOCK_C_IS_DISPLAYING_Transitions,           
 137:source\asw/swc_clock.c ****     { STATE(STATE_CLOCK_C_ISEDITINGHOURS),     &STATE_CLOCK_C_IS_EDITINGHOURS_Transitions,         
 138:source\asw/swc_clock.c ****     { STATE(STATE_CLOCK_C_ISEDITINGMINUTES),   &STATE_CLOCK_C_IS_EDITINGMINUTES_Transitions,       
 139:source\asw/swc_clock.c **** };
 140:source\asw/swc_clock.c **** 
 141:source\asw/swc_clock.c **** const uint16_t CLOCK_Container_Transitions_Size = sizeof(CLOCK_Container_Transitions)/sizeof(STATE_
 142:source\asw/swc_clock.c **** 
 143:source\asw/swc_clock.c **** /** -------------------------------------- Widget Transitions -------------------------------------
 144:source\asw/swc_clock.c **** 
 145:source\asw/swc_clock.c **** /** ====== IS_DISPLAYING ========= **/
ARM GAS  C:\Users\aditi\AppData\Local\Temp\ccxJli9U.s 			page 4


 146:source\asw/swc_clock.c **** const STATE_stateInnerTransitionTable_t STATE_CLOCK_W_IS_DISPLAYING_Transitions = {
 147:source\asw/swc_clock.c **** /*       Event                        ToState                     Guard           Action */
 148:source\asw/swc_clock.c ****     { EVENT(EV_KEYLEFT),    STATE(STATE_CLOCK_W_ISEDITING),        0,      CLOCK__setEditFonts},
 149:source\asw/swc_clock.c **** };
 150:source\asw/swc_clock.c **** 
 151:source\asw/swc_clock.c **** /** ===== IS_EDITING ====== **/
 152:source\asw/swc_clock.c **** const STATE_stateInnerTransitionTable_t STATE_CLOCK_W_IS_EDITING_Transitions = {
 153:source\asw/swc_clock.c **** /*          Event                        ToState                     Guard           Action */
 154:source\asw/swc_clock.c ****     { EVENT(EV_KEYRIGHT),           STATE(STATE_CLOCK_W_ISEDITING),         0,      CLOCK__incremen
 155:source\asw/swc_clock.c ****     { EVENT(EV_KEYRIGHTLONGPRESS),  STATE(STATE_CLOCK_W_ISAUTOINCREMENT),   0,      0},
 156:source\asw/swc_clock.c ****     { EVENT(EV_KEYLEFT),            STATE(STATE_CLOCK_W_ISDISPLAYING),      0,      CLOCK__setDispl
 157:source\asw/swc_clock.c **** };
 158:source\asw/swc_clock.c **** 
 159:source\asw/swc_clock.c **** /** ===== IS_AUTOINCREMENT ====== **/
 160:source\asw/swc_clock.c **** const STATE_stateInnerTransitionTable_t STATE_CLOCK_W_IS_AUTOINCREMENT_Transitions = {
 161:source\asw/swc_clock.c **** /*          Event                        ToState                     Guard           Action */
 162:source\asw/swc_clock.c ****     { EVENT(EV_KEYRIGHT),           STATE(STATE_CLOCK_W_ISEDITING),         0,      CLOCK__incremen
 163:source\asw/swc_clock.c ****     { EVENT(EV_250MS),              STATE(STATE_CLOCK_W_ISAUTOINCREMENT),   0,      CLOCK__incremen
 164:source\asw/swc_clock.c **** };
 165:source\asw/swc_clock.c **** 
 166:source\asw/swc_clock.c **** const STATE_stateOuterTransitionTable_t CLOCK_Widget_Transitions = {
 167:source\asw/swc_clock.c **** /*           fromState                          Pointer to table                                Siz
 168:source\asw/swc_clock.c ****     { STATE(STATE_CLOCK_W_ISDISPLAYING),       &STATE_CLOCK_W_IS_DISPLAYING_Transitions,        siz
 169:source\asw/swc_clock.c ****     { STATE(STATE_CLOCK_W_ISEDITING),          &STATE_CLOCK_W_IS_EDITING_Transitions,           siz
 170:source\asw/swc_clock.c ****     { STATE(STATE_CLOCK_W_ISAUTOINCREMENT),    &STATE_CLOCK_W_IS_AUTOINCREMENT_Transitions,     siz
 171:source\asw/swc_clock.c **** };
 172:source\asw/swc_clock.c **** 
 173:source\asw/swc_clock.c **** const uint16_t CLOCK_Widget_Transitions_Size = sizeof(CLOCK_Widget_Transitions)/sizeof(STATE_stateO
 174:source\asw/swc_clock.c **** 
 175:source\asw/swc_clock.c **** 
 176:source\asw/swc_clock.c **** /*
 177:source\asw/swc_clock.c **** * component: swc_clock
 178:source\asw/swc_clock.c **** * cycletime: 50
 179:source\asw/swc_clock.c **** * description: Runnable to process incoming events
 180:source\asw/swc_clock.c **** * events: 
 181:source\asw/swc_clock.c **** * name: CLOCK_input_run
 182:source\asw/swc_clock.c **** * shortname: input
 183:source\asw/swc_clock.c **** * signalIN: 
 184:source\asw/swc_clock.c **** * signalOUT: so_event
 185:source\asw/swc_clock.c **** * task: tsk_cyclic
 186:source\asw/swc_clock.c **** */
 187:source\asw/swc_clock.c **** void CLOCK_input_run(RTE_event ev){
 188:source\asw/swc_clock.c **** 	
 189:source\asw/swc_clock.c **** 	/* USER CODE START CLOCK_input_run */
 190:source\asw/swc_clock.c ****     static uint16_t runnableCount = 0;
 191:source\asw/swc_clock.c ****     
 192:source\asw/swc_clock.c ****     SC_EVENT_data_t eventSignal;
 193:source\asw/swc_clock.c ****     
 194:source\asw/swc_clock.c ****     // Increment the counter every time the runnable is scheduled (i.e., 50ms)
 195:source\asw/swc_clock.c ****     runnableCount += 1;
 196:source\asw/swc_clock.c ****     /** The current input runnable is being called every 50ms.
 197:source\asw/swc_clock.c ****       * In order to set an event every 250ms, a local static
 198:source\asw/swc_clock.c ****       * variable is used to count up to 5
 199:source\asw/swc_clock.c ****       */
 200:source\asw/swc_clock.c ****     if(runnableCount % 5 == 0)
 201:source\asw/swc_clock.c ****     {
 202:source\asw/swc_clock.c ****         eventSignal.m_ev = EV_250MS;
ARM GAS  C:\Users\aditi\AppData\Local\Temp\ccxJli9U.s 			page 5


 203:source\asw/swc_clock.c ****         //UART_LOG_PutString("Setting 250MS event\n");
 204:source\asw/swc_clock.c ****         RTE_SC_EVENT_set (&SO_EVENT_signal, eventSignal);
 205:source\asw/swc_clock.c ****     }
 206:source\asw/swc_clock.c ****     
 207:source\asw/swc_clock.c ****     /** To set EV_1MIN for every minute, the counter is incremented every 50ms.
 208:source\asw/swc_clock.c ****       * 1200ms x 50ms = 60000ms = 60sec = 1min
 209:source\asw/swc_clock.c ****       * The counter value is reset to zero after a minute to prevent overflow of the variable
 210:source\asw/swc_clock.c ****       */
 211:source\asw/swc_clock.c ****     if(runnableCount % 1200 == 0)
 212:source\asw/swc_clock.c ****     {
 213:source\asw/swc_clock.c ****         runnableCount = 0;
 214:source\asw/swc_clock.c ****         eventSignal.m_ev = EV_1MIN;
 215:source\asw/swc_clock.c ****         UART_LOG_PutString("Setting 1 minute event\n");
 216:source\asw/swc_clock.c ****         RTE_SC_EVENT_set (&SO_EVENT_signal, eventSignal);
 217:source\asw/swc_clock.c ****     }     
 218:source\asw/swc_clock.c ****     
 219:source\asw/swc_clock.c ****     //Check the long press of the button and set the event
 220:source\asw/swc_clock.c ****     if((1 == interruptFlag) && (1 == Pin_ButtonRight_Read()))
 221:source\asw/swc_clock.c ****     {
 222:source\asw/swc_clock.c ****         static uint8_t countVar = 0;
 223:source\asw/swc_clock.c ****         countVar += 1;
 224:source\asw/swc_clock.c ****         //Runnable called every 50ms, 50 x 20 = 1000ms = 1s
 225:source\asw/swc_clock.c ****         if(countVar % 20 == 0)
 226:source\asw/swc_clock.c ****         {
 227:source\asw/swc_clock.c ****             eventSignal.m_ev = EV_KEYRIGHTLONGPRESS;
 228:source\asw/swc_clock.c ****             interruptFlag = 0;
 229:source\asw/swc_clock.c ****             RTE_SC_EVENT_set (&SO_EVENT_signal, eventSignal);
 230:source\asw/swc_clock.c ****         }
 231:source\asw/swc_clock.c ****     }
 232:source\asw/swc_clock.c ****     
 233:source\asw/swc_clock.c ****     // Method 2 to check for long press of a button
 234:source\asw/swc_clock.c **** //    if(interruptFlag == 4)
 235:source\asw/swc_clock.c **** //    {
 236:source\asw/swc_clock.c **** //        eventSignal.m_ev = EV_KEYRIGHTLONGPRESS;
 237:source\asw/swc_clock.c **** //        interruptFlag = 0;
 238:source\asw/swc_clock.c **** //        RTE_SC_EVENT_set (&SO_EVENT_signal, eventSignal);
 239:source\asw/swc_clock.c **** //    }
 240:source\asw/swc_clock.c **** 
 241:source\asw/swc_clock.c ****     /* USER CODE END CLOCK_input_run */
 242:source\asw/swc_clock.c **** }
 243:source\asw/swc_clock.c **** 
 244:source\asw/swc_clock.c **** /*
 245:source\asw/swc_clock.c **** * component: swc_clock
 246:source\asw/swc_clock.c **** * cycletime: 0
 247:source\asw/swc_clock.c **** * description: Control runnable that runs the State Machine
 248:source\asw/swc_clock.c **** * events: ev_event_onData
 249:source\asw/swc_clock.c **** * name: CLOCK_control_run
 250:source\asw/swc_clock.c **** * shortname: control
 251:source\asw/swc_clock.c **** * signalIN: so_event
 252:source\asw/swc_clock.c **** * signalOUT: so_clock
 253:source\asw/swc_clock.c **** * task: tsk_event
 254:source\asw/swc_clock.c **** */
 255:source\asw/swc_clock.c **** void CLOCK_control_run(RTE_event ev){
 256:source\asw/swc_clock.c **** 	
 257:source\asw/swc_clock.c **** 	/* USER CODE START CLOCK_control_run */
 258:source\asw/swc_clock.c ****     UART_LOG_PutString("In control runnable\n");
 259:source\asw/swc_clock.c ****     
ARM GAS  C:\Users\aditi\AppData\Local\Temp\ccxJli9U.s 			page 6


 260:source\asw/swc_clock.c ****     // Get the triggered event from the event component
 261:source\asw/swc_clock.c ****     SC_EVENT_data_t eventSignal_t = RTE_SC_EVENT_get(&SO_EVENT_signal);
 262:source\asw/swc_clock.c ****     
 263:source\asw/swc_clock.c ****     //Get initial conditions required for the state machine
 264:source\asw/swc_clock.c ****     SC_CLOCK_data_t clockData     = RTE_SC_CLOCK_get(&SO_CLOCK_signal);
 265:source\asw/swc_clock.c ****     
 266:source\asw/swc_clock.c ****     //Call the state machine
 267:source\asw/swc_clock.c ****     RC_t result = STATE_processEvent(CLOCK_Container_Transitions, CLOCK_Container_Transitions_Size,
 268:source\asw/swc_clock.c ****                                     eventSignal_t.m_ev, &clockData.m_containerState);
 269:source\asw/swc_clock.c ****     
 270:source\asw/swc_clock.c ****     UART_LOG_PutString("Completed State Machine processing\n");
 271:source\asw/swc_clock.c ****     
 272:source\asw/swc_clock.c ****     /** The values of SO_CLOCK_signal set by other functions was being 
 273:source\asw/swc_clock.c ****       * overwritten when RTE_SC_CLOCK_set() API was called. This was causing
 274:source\asw/swc_clock.c ****       * state machine to update incorrectly and the values of hour and minute
 275:source\asw/swc_clock.c ****       * widgets were not being retained.
 276:source\asw/swc_clock.c ****       * !! Dirty bug fix to avoid the issue !!
 277:source\asw/swc_clock.c ****       */
 278:source\asw/swc_clock.c ****     SO_CLOCK_signal.value.m_containerState = clockData.m_containerState;
 279:source\asw/swc_clock.c ****     //RTE_SC_CLOCK_set(&SO_CLOCK_signal, clockData);
 280:source\asw/swc_clock.c **** 
 281:source\asw/swc_clock.c ****     /* USER CODE END CLOCK_control_run */
 282:source\asw/swc_clock.c **** }
 283:source\asw/swc_clock.c **** 
 284:source\asw/swc_clock.c **** /*
 285:source\asw/swc_clock.c **** * component: swc_clock
 286:source\asw/swc_clock.c **** * cycletime: 250
 287:source\asw/swc_clock.c **** * description: Runnable for display driver  
 288:source\asw/swc_clock.c **** * events: 
 289:source\asw/swc_clock.c **** * name: CLOCK_display_run
 290:source\asw/swc_clock.c **** * shortname: display
 291:source\asw/swc_clock.c **** * signalIN: so_clock
 292:source\asw/swc_clock.c **** * signalOUT: so_display
 293:source\asw/swc_clock.c **** * task: tsk_cyclic
 294:source\asw/swc_clock.c **** */
 295:source\asw/swc_clock.c **** void CLOCK_display_run(RTE_event ev){
 296:source\asw/swc_clock.c **** 	
 297:source\asw/swc_clock.c **** 	/* USER CODE START CLOCK_display_run */
 298:source\asw/swc_clock.c ****     
 299:source\asw/swc_clock.c ****     //Get the clock signal data from clock component into a local variable
 300:source\asw/swc_clock.c ****     SC_CLOCK_data_t clock = RTE_SC_CLOCK_get(&SO_CLOCK_signal);
 301:source\asw/swc_clock.c ****     
 302:source\asw/swc_clock.c ****     //Local variable to set the parameters of display component
 303:source\asw/swc_clock.c ****     SC_DISPLAY_data_t dispTFT;
 304:source\asw/swc_clock.c **** 
 305:source\asw/swc_clock.c ****     //Extract the units and tens position from the clock value for minutes and hours
 306:source\asw/swc_clock.c ****     dispTFT.minutes.unitValue = (clock.m_minutes.m_value % 10);
 307:source\asw/swc_clock.c ****     dispTFT.minutes.tensValue = (clock.m_minutes.m_value / 10);
 308:source\asw/swc_clock.c ****     
 309:source\asw/swc_clock.c ****     dispTFT.hours.unitValue = (clock.m_hours.m_value % 10);
 310:source\asw/swc_clock.c ****     dispTFT.hours.tensValue = (clock.m_hours.m_value / 10);
 311:source\asw/swc_clock.c ****     
 312:source\asw/swc_clock.c ****     //Set the values of display component and push them to the TFT driver
 313:source\asw/swc_clock.c ****     RTE_SC_DISPLAY_set(&SO_DISPLAY_signal,dispTFT);
 314:source\asw/swc_clock.c ****     RTE_SC_DISPLAY_pushPort(&SO_DISPLAY_signal);
 315:source\asw/swc_clock.c **** 
 316:source\asw/swc_clock.c ****     //UART_LOG_PutString("In display runnable\n");
ARM GAS  C:\Users\aditi\AppData\Local\Temp\ccxJli9U.s 			page 7


 317:source\asw/swc_clock.c ****     /* USER CODE END CLOCK_display_run */
 318:source\asw/swc_clock.c **** }
 319:source\asw/swc_clock.c **** 
 320:source\asw/swc_clock.c **** /* USER CODE START SWC_CLOCK_FUNCTIONS */
 321:source\asw/swc_clock.c **** 
 322:source\asw/swc_clock.c **** static void CLOCK__dispatch_wrapper(STATE_event_t ev, CLOCK_active_widget_t widget)
 323:source\asw/swc_clock.c **** {
 324:source\asw/swc_clock.c ****     //Read the state object (container)
 325:source\asw/swc_clock.c ****     SC_CLOCK_data_t clock = RTE_SC_CLOCK_get (&SO_CLOCK_signal);
 326:source\asw/swc_clock.c ****     
 327:source\asw/swc_clock.c ****     //Set the active widget to the hour widget
 328:source\asw/swc_clock.c ****     clock.m_activeWidget = widget;
 329:source\asw/swc_clock.c ****     
 330:source\asw/swc_clock.c ****     //Write the changed widget back to the clock object
 331:source\asw/swc_clock.c ****     RTE_SC_CLOCK_set (&SO_CLOCK_signal, clock);
 332:source\asw/swc_clock.c ****     
 333:source\asw/swc_clock.c ****     //And fire it to the container state machine
 334:source\asw/swc_clock.c ****     //The widget state machine will be called by the container actions
 335:source\asw/swc_clock.c ****     //We need a local copy of the widget state as the widget object is also changed by the widget a
 336:source\asw/swc_clock.c ****     if (CLOCK_HOURSWIDGET == widget)
 337:source\asw/swc_clock.c ****     {
 338:source\asw/swc_clock.c ****         UART_LOG_PutString("In dispatch function hours widget\n");
 339:source\asw/swc_clock.c ****         CLOCK_state_t localState = clock.m_hours.m_widgetState;
 340:source\asw/swc_clock.c ****         STATE_processEvent (CLOCK_Widget_Transitions, CLOCK_Widget_Transitions_Size, 0, 0, ev, &loc
 341:source\asw/swc_clock.c ****         
 342:source\asw/swc_clock.c ****         //Re-read the state object in order to get the changes by the child
 343:source\asw/swc_clock.c ****         clock = RTE_SC_CLOCK_get(&SO_CLOCK_signal);
 344:source\asw/swc_clock.c ****         clock.m_hours.m_widgetState = localState;
 345:source\asw/swc_clock.c ****                 
 346:source\asw/swc_clock.c ****         //Write the changed state back to the clock object
 347:source\asw/swc_clock.c ****         RTE_SC_CLOCK_set(&SO_CLOCK_signal, clock);
 348:source\asw/swc_clock.c ****     }
 349:source\asw/swc_clock.c ****     else if (CLOCK_MINUTESWIDGET == widget)
 350:source\asw/swc_clock.c ****     {
 351:source\asw/swc_clock.c ****         UART_LOG_PutString("In dispatch function minutes widget\n");
 352:source\asw/swc_clock.c ****         CLOCK_state_t localState = clock.m_minutes.m_widgetState;
 353:source\asw/swc_clock.c ****         STATE_processEvent (CLOCK_Widget_Transitions, CLOCK_Widget_Transitions_Size, 0, 0, ev, &loc
 354:source\asw/swc_clock.c ****         
 355:source\asw/swc_clock.c ****         //Re-read the state object in order to get the changes by the child
 356:source\asw/swc_clock.c ****         clock = RTE_SC_CLOCK_get(&SO_CLOCK_signal);
 357:source\asw/swc_clock.c ****         clock.m_minutes.m_widgetState = localState;
 358:source\asw/swc_clock.c ****         
 359:source\asw/swc_clock.c ****         //Write the changed state back to the clock object
 360:source\asw/swc_clock.c ****         RTE_SC_CLOCK_set(&SO_CLOCK_signal, clock);
 361:source\asw/swc_clock.c ****     }
 362:source\asw/swc_clock.c **** }
 363:source\asw/swc_clock.c **** 
 364:source\asw/swc_clock.c **** static void CLOCK__dispatch_KL_Hours()
 365:source\asw/swc_clock.c **** {
 366:source\asw/swc_clock.c ****     UART_LOG_PutString("In CLOCK__dispatch_KL_Hours function\n");
 367:source\asw/swc_clock.c ****     CLOCK__dispatch_wrapper(EV_KEYLEFT, CLOCK_HOURSWIDGET);
 368:source\asw/swc_clock.c **** }
 369:source\asw/swc_clock.c **** 
 370:source\asw/swc_clock.c **** static void CLOCK__dispatch_KL_Min()
 371:source\asw/swc_clock.c **** {
 372:source\asw/swc_clock.c ****     UART_LOG_PutString("In CLOCK__dispatch_KL_Min function\n");
 373:source\asw/swc_clock.c ****     CLOCK__dispatch_wrapper(EV_KEYLEFT, CLOCK_MINUTESWIDGET);
ARM GAS  C:\Users\aditi\AppData\Local\Temp\ccxJli9U.s 			page 8


 374:source\asw/swc_clock.c **** }
 375:source\asw/swc_clock.c **** 
 376:source\asw/swc_clock.c **** static void CLOCK__increment1Minute()
 377:source\asw/swc_clock.c **** {
  27              		.loc 1 377 0
  28              		.cfi_startproc
  29              		@ args = 0, pretend = 0, frame = 72
  30              		@ frame_needed = 0, uses_anonymous_args = 0
  31 0000 F0B5     		push	{r4, r5, r6, r7, lr}
  32              		.cfi_def_cfa_offset 20
  33              		.cfi_offset 4, -20
  34              		.cfi_offset 5, -16
  35              		.cfi_offset 6, -12
  36              		.cfi_offset 7, -8
  37              		.cfi_offset 14, -4
  38 0002 93B0     		sub	sp, sp, #76
  39              		.cfi_def_cfa_offset 96
 378:source\asw/swc_clock.c ****     UART_LOG_PutString("In increment 1 minute function\n");
  40              		.loc 1 378 0
  41 0004 2A48     		ldr	r0, .L10
  42 0006 FFF7FEFF 		bl	UART_LOG_PutString
  43              	.LVL0:
  44              	.LBB79:
  45              	.LBB80:
  46              		.file 2 ".\\source\\rte/sc_clock.h"
   1:.\source\rte/sc_clock.h **** 
   2:.\source\rte/sc_clock.h **** 
   3:.\source\rte/sc_clock.h **** /**
   4:.\source\rte/sc_clock.h **** *  file    SC_CLOCK_signal.h
   5:.\source\rte/sc_clock.h **** *
   6:.\source\rte/sc_clock.h **** *  brief   signal base class for signal sc_clock
   7:.\source\rte/sc_clock.h **** *
   8:.\source\rte/sc_clock.h **** *  author  Autogenerated, Peter Fromm       <peter.fromm@h-da.de>
   9:.\source\rte/sc_clock.h **** *
  10:.\source\rte/sc_clock.h **** *
  11:.\source\rte/sc_clock.h **** */
  12:.\source\rte/sc_clock.h **** 
  13:.\source\rte/sc_clock.h **** /*
  14:.\source\rte/sc_clock.h **** * description: Clock data representation datatype
  15:.\source\rte/sc_clock.h **** * name: sc_clock
  16:.\source\rte/sc_clock.h **** * shortname: clock
  17:.\source\rte/sc_clock.h **** */
  18:.\source\rte/sc_clock.h **** 
  19:.\source\rte/sc_clock.h **** #ifndef SC_CLOCK_SIGNAL_H_INCLUDED
  20:.\source\rte/sc_clock.h **** #define SC_CLOCK_SIGNAL_H_INCLUDED
  21:.\source\rte/sc_clock.h **** 
  22:.\source\rte/sc_clock.h **** /*================================================[ public includes  ]=============================
  23:.\source\rte/sc_clock.h **** #include "global.h"
  24:.\source\rte/sc_clock.h **** #include "project.h"
  25:.\source\rte/sc_clock.h **** #include "rte.h"
  26:.\source\rte/sc_clock.h **** #include "rte_types.h"
  27:.\source\rte/sc_clock.h **** 
  28:.\source\rte/sc_clock.h **** #include "sc_clock_type.h"
  29:.\source\rte/sc_clock.h **** 
  30:.\source\rte/sc_clock.h **** 
  31:.\source\rte/sc_clock.h **** /**************************************************************************************************
  32:.\source\rte/sc_clock.h **** /* The driver API block																						*/
ARM GAS  C:\Users\aditi\AppData\Local\Temp\ccxJli9U.s 			page 9


  33:.\source\rte/sc_clock.h **** /**************************************************************************************************
  34:.\source\rte/sc_clock.h ****                                                                                                    
  35:.\source\rte/sc_clock.h **** /**
  36:.\source\rte/sc_clock.h ****  *  Definition of function types for driver interfaces.
  37:.\source\rte/sc_clock.h ****  *  I-Port
  38:.\source\rte/sc_clock.h ****  */
  39:.\source\rte/sc_clock.h **** typedef RC_t (*SC_CLOCK_driverIn_t)(SC_CLOCK_data_t * const);
  40:.\source\rte/sc_clock.h **** 
  41:.\source\rte/sc_clock.h **** /**
  42:.\source\rte/sc_clock.h ****  *  Definition of function types for driver interfaces.
  43:.\source\rte/sc_clock.h ****  *  O-Port
  44:.\source\rte/sc_clock.h ****  */
  45:.\source\rte/sc_clock.h **** typedef RC_t (*SC_CLOCK_driverOut_t)( const SC_CLOCK_data_t * const);
  46:.\source\rte/sc_clock.h **** 
  47:.\source\rte/sc_clock.h **** 
  48:.\source\rte/sc_clock.h **** /**************************************************************************************************
  49:.\source\rte/sc_clock.h **** /* The signal configuration API block																				*/
  50:.\source\rte/sc_clock.h **** /**************************************************************************************************
  51:.\source\rte/sc_clock.h **** 
  52:.\source\rte/sc_clock.h **** /**
  53:.\source\rte/sc_clock.h ****  * Instances of the struct SC_CLOCK_cfg_t represent the signal object configuration.
  54:.\source\rte/sc_clock.h ****  */
  55:.\source\rte/sc_clock.h **** struct SC_CLOCK_cfg_s
  56:.\source\rte/sc_clock.h **** {
  57:.\source\rte/sc_clock.h ****     /**
  58:.\source\rte/sc_clock.h ****      * Function pointer to the input driver
  59:.\source\rte/sc_clock.h ****      */
  60:.\source\rte/sc_clock.h ****     SC_CLOCK_driverIn_t const inDriver;
  61:.\source\rte/sc_clock.h **** 
  62:.\source\rte/sc_clock.h ****     /**
  63:.\source\rte/sc_clock.h ****      * Function pointer to the output driver table
  64:.\source\rte/sc_clock.h ****      */
  65:.\source\rte/sc_clock.h ****    SC_CLOCK_driverOut_t const outDriver;
  66:.\source\rte/sc_clock.h ****    
  67:.\source\rte/sc_clock.h ****     /**
  68:.\source\rte/sc_clock.h ****      * Event onUpdate
  69:.\source\rte/sc_clock.h ****      */
  70:.\source\rte/sc_clock.h ****     EventMaskType const evOnUpdate;
  71:.\source\rte/sc_clock.h ****     
  72:.\source\rte/sc_clock.h ****     
  73:.\source\rte/sc_clock.h ****     /**
  74:.\source\rte/sc_clock.h ****      * Event onError
  75:.\source\rte/sc_clock.h ****      */
  76:.\source\rte/sc_clock.h ****     EventMaskType const evOnError;
  77:.\source\rte/sc_clock.h ****     
  78:.\source\rte/sc_clock.h ****     /**
  79:.\source\rte/sc_clock.h ****      * Task Count onUpdate
  80:.\source\rte/sc_clock.h ****      */
  81:.\source\rte/sc_clock.h ****     size_t const onUpdateTaskCount;
  82:.\source\rte/sc_clock.h **** 
  83:.\source\rte/sc_clock.h ****     /**
  84:.\source\rte/sc_clock.h ****      * Task List onUpdate
  85:.\source\rte/sc_clock.h ****      */
  86:.\source\rte/sc_clock.h ****     TaskTypeArray* const onUpdateTasks;
  87:.\source\rte/sc_clock.h ****     
  88:.\source\rte/sc_clock.h ****     /**
  89:.\source\rte/sc_clock.h ****      * Task Count onError
ARM GAS  C:\Users\aditi\AppData\Local\Temp\ccxJli9U.s 			page 10


  90:.\source\rte/sc_clock.h ****      */
  91:.\source\rte/sc_clock.h ****     size_t const onErrorTaskCount;
  92:.\source\rte/sc_clock.h **** 
  93:.\source\rte/sc_clock.h ****     /**
  94:.\source\rte/sc_clock.h ****      * Task List onError
  95:.\source\rte/sc_clock.h ****      */
  96:.\source\rte/sc_clock.h ****     TaskTypeArray* const onErrorTasks;
  97:.\source\rte/sc_clock.h **** 	
  98:.\source\rte/sc_clock.h **** 	
  99:.\source\rte/sc_clock.h **** 	/**
 100:.\source\rte/sc_clock.h **** 	 * Ressourse is active? We need an additional boolean as a ressource value 0 is valid.
 101:.\source\rte/sc_clock.h **** 	 */
 102:.\source\rte/sc_clock.h **** 	 boolean_t const resourceActive;
 103:.\source\rte/sc_clock.h **** 	 
 104:.\source\rte/sc_clock.h **** 	/**
 105:.\source\rte/sc_clock.h **** 	 * Ressourse 
 106:.\source\rte/sc_clock.h **** 	 */
 107:.\source\rte/sc_clock.h **** 	 ResourceType const resource;
 108:.\source\rte/sc_clock.h **** 
 109:.\source\rte/sc_clock.h **** };                                                                                                 
 110:.\source\rte/sc_clock.h **** typedef const struct SC_CLOCK_cfg_s SC_CLOCK_cfg_t;
 111:.\source\rte/sc_clock.h ****                               
 112:.\source\rte/sc_clock.h **** /**************************************************************************************************
 113:.\source\rte/sc_clock.h **** /* The data interface block																							*/
 114:.\source\rte/sc_clock.h **** /**************************************************************************************************
 115:.\source\rte/sc_clock.h **** 
 116:.\source\rte/sc_clock.h ****                                                                                                    
 117:.\source\rte/sc_clock.h **** 							  
 118:.\source\rte/sc_clock.h **** /**
 119:.\source\rte/sc_clock.h ****  * Instances of the struct SC_CLOCK_t represent the signal objects.
 120:.\source\rte/sc_clock.h ****  * A signal object contains the current application value 'value' as well as relevant meta data.
 121:.\source\rte/sc_clock.h ****  */
 122:.\source\rte/sc_clock.h **** struct SC_CLOCK_s
 123:.\source\rte/sc_clock.h **** {                                                                                                  
 124:.\source\rte/sc_clock.h **** 
 125:.\source\rte/sc_clock.h **** 	/**
 126:.\source\rte/sc_clock.h **** 	 * Data buffer for the application value
 127:.\source\rte/sc_clock.h **** 	 */
 128:.\source\rte/sc_clock.h ****     SC_CLOCK_data_t value;
 129:.\source\rte/sc_clock.h **** 
 130:.\source\rte/sc_clock.h ****     /**
 131:.\source\rte/sc_clock.h ****      * Current signal status
 132:.\source\rte/sc_clock.h ****      */
 133:.\source\rte/sc_clock.h ****     RTE_signalStatus_t status;
 134:.\source\rte/sc_clock.h **** 
 135:.\source\rte/sc_clock.h ****     /**
 136:.\source\rte/sc_clock.h ****      * Current age of the signal (in calling cycles)
 137:.\source\rte/sc_clock.h ****      */
 138:.\source\rte/sc_clock.h ****     uint32_t age;
 139:.\source\rte/sc_clock.h **** 
 140:.\source\rte/sc_clock.h ****     /**
 141:.\source\rte/sc_clock.h ****      * Pointer to the signal configuration
 142:.\source\rte/sc_clock.h ****      */
 143:.\source\rte/sc_clock.h **** 	const SC_CLOCK_cfg_t * const    pSigCfg;
 144:.\source\rte/sc_clock.h **** 
 145:.\source\rte/sc_clock.h **** };                                                                                                 
 146:.\source\rte/sc_clock.h **** typedef struct SC_CLOCK_s SC_CLOCK_t;
ARM GAS  C:\Users\aditi\AppData\Local\Temp\ccxJli9U.s 			page 11


 147:.\source\rte/sc_clock.h **** 
 148:.\source\rte/sc_clock.h **** /**************************************************************************************************
 149:.\source\rte/sc_clock.h **** /* Signal initialisation   																							*/
 150:.\source\rte/sc_clock.h **** /**************************************************************************************************
 151:.\source\rte/sc_clock.h **** 
 152:.\source\rte/sc_clock.h **** /**
 153:.\source\rte/sc_clock.h ****  * Initializes a signal instance with a passed init value.
 154:.\source\rte/sc_clock.h ****  * Depending on the configured conversion or scaling function the raw_value will be calculated.
 155:.\source\rte/sc_clock.h ****  * Signal status will change from RTE_SIGNALSTATUS_STARTUP to RTE_SIGNALSTATUS_INITIALIZED.
 156:.\source\rte/sc_clock.h ****  *
 157:.\source\rte/sc_clock.h ****  * @param  SC_CLOCK_t * const signal: Pointer to the signal object which will be initialised
 158:.\source\rte/sc_clock.h ****  * @param const sc_clock_data_t * const value: Pointer to initial value of the application data
 159:.\source\rte/sc_clock.h ****  * @return RC_t: standard return code, currently only RC_SUCCESS
 160:.\source\rte/sc_clock.h ****  *
 161:.\source\rte/sc_clock.h ****  **/
 162:.\source\rte/sc_clock.h **** inline RC_t RTE_SC_CLOCK_init( SC_CLOCK_t * const signal, const SC_CLOCK_data_t * const value )
 163:.\source\rte/sc_clock.h **** {                                                                                                  
 164:.\source\rte/sc_clock.h **** 
 165:.\source\rte/sc_clock.h ****    RC_t ret = RC_SUCCESS;
 166:.\source\rte/sc_clock.h **** 
 167:.\source\rte/sc_clock.h ****    //Set value and raw value
 168:.\source\rte/sc_clock.h ****    signal->value  = *value;
 169:.\source\rte/sc_clock.h ****    signal->age    = 0;
 170:.\source\rte/sc_clock.h ****    signal->status = RTE_SIGNALSTATUS_INITIALIZED;
 171:.\source\rte/sc_clock.h **** 
 172:.\source\rte/sc_clock.h ****    return ret;
 173:.\source\rte/sc_clock.h **** }
 174:.\source\rte/sc_clock.h **** 
 175:.\source\rte/sc_clock.h **** /**************************************************************************************************
 176:.\source\rte/sc_clock.h **** /* Status and timeout control																						*/
 177:.\source\rte/sc_clock.h **** /**************************************************************************************************
 178:.\source\rte/sc_clock.h **** 
 179:.\source\rte/sc_clock.h **** /**
 180:.\source\rte/sc_clock.h ****  *  Returns the current signal status of the passed signal instance.
 181:.\source\rte/sc_clock.h ****  *
 182:.\source\rte/sc_clock.h ****  * @param  SC_CLOCK_t * const signal: Pointer to the signal object
 183:.\source\rte/sc_clock.h ****  * @return  sig_status_t: The current signal status
 184:.\source\rte/sc_clock.h ****  *
 185:.\source\rte/sc_clock.h ****  **/
 186:.\source\rte/sc_clock.h **** inline RTE_signalStatus_t RTE_SC_CLOCK_getStatus( const SC_CLOCK_t * const signal )
 187:.\source\rte/sc_clock.h **** {
 188:.\source\rte/sc_clock.h ****    return signal->status;
 189:.\source\rte/sc_clock.h **** }
 190:.\source\rte/sc_clock.h **** 
 191:.\source\rte/sc_clock.h **** 
 192:.\source\rte/sc_clock.h **** /**
 193:.\source\rte/sc_clock.h ****  *  Sets a new signal status of the passed signal instance by passing the new status.
 194:.\source\rte/sc_clock.h ****  *
 195:.\source\rte/sc_clock.h ****  * @param  SC_CLOCK_t * const signal: Pointer to the signal object
 196:.\source\rte/sc_clock.h ****  * @param  const sig_status_t status: New signal status
 197:.\source\rte/sc_clock.h ****  * @return RC_t: standard return code, currently only RC_SUCCESS
 198:.\source\rte/sc_clock.h ****  *
 199:.\source\rte/sc_clock.h ****  */
 200:.\source\rte/sc_clock.h **** inline RC_t RTE_SC_CLOCK_setStatus( SC_CLOCK_t * const signal, const RTE_signalStatus_t status )
 201:.\source\rte/sc_clock.h **** {
 202:.\source\rte/sc_clock.h ****    signal->status = status;
 203:.\source\rte/sc_clock.h ****    size_t taskNum=0;
ARM GAS  C:\Users\aditi\AppData\Local\Temp\ccxJli9U.s 			page 12


 204:.\source\rte/sc_clock.h ****    
 205:.\source\rte/sc_clock.h ****    //Fire error events in case of invalid state
 206:.\source\rte/sc_clock.h ****    if (signal->status == RTE_SIGNALSTATUS_INVALID)
 207:.\source\rte/sc_clock.h ****    {
 208:.\source\rte/sc_clock.h **** 	    //Pointer to the Taskarray, containing the tasks receiving the onUpdate events
 209:.\source\rte/sc_clock.h **** 		TaskTypeArray* pTaskArray = signal->pSigCfg->onErrorTasks;
 210:.\source\rte/sc_clock.h **** 
 211:.\source\rte/sc_clock.h **** 		if (NULL!=signal->pSigCfg->evOnError && NULL != pTaskArray){
 212:.\source\rte/sc_clock.h **** 			for( taskNum=0 ; taskNum < signal->pSigCfg->onErrorTaskCount ;taskNum++){
 213:.\source\rte/sc_clock.h **** 				TaskType task = (*pTaskArray)[taskNum];
 214:.\source\rte/sc_clock.h **** 				SetEvent( task, signal->pSigCfg->evOnError);
 215:.\source\rte/sc_clock.h **** 			}
 216:.\source\rte/sc_clock.h **** 		}
 217:.\source\rte/sc_clock.h ****    }
 218:.\source\rte/sc_clock.h ****    
 219:.\source\rte/sc_clock.h ****    return RC_SUCCESS;
 220:.\source\rte/sc_clock.h **** }
 221:.\source\rte/sc_clock.h **** 
 222:.\source\rte/sc_clock.h **** 
 223:.\source\rte/sc_clock.h **** /**
 224:.\source\rte/sc_clock.h ****  * Returns the count of refreshing trials (refresh, set or set_raw) that failed.
 225:.\source\rte/sc_clock.h ****  * Prerquisite: The signal is refreshed cyclically
 226:.\source\rte/sc_clock.h ****  *
 227:.\source\rte/sc_clock.h ****  * @param  SC_CLOCK_t * const signal: Pointer to the signal object
 228:.\source\rte/sc_clock.h ****  * @return uint32_t: Number of cycles since the signal has been updated for the last time
 229:.\source\rte/sc_clock.h ****  */
 230:.\source\rte/sc_clock.h **** inline uint32_t RTE_SC_CLOCK_getAge( const SC_CLOCK_t * const signal )
 231:.\source\rte/sc_clock.h **** {
 232:.\source\rte/sc_clock.h ****    return signal->age;
 233:.\source\rte/sc_clock.h **** }
 234:.\source\rte/sc_clock.h **** 
 235:.\source\rte/sc_clock.h **** /**
 236:.\source\rte/sc_clock.h ****  * Should be called by application or driver if no new value can be provided.
 237:.\source\rte/sc_clock.h ****  * @param  SC_CLOCK_t * const signal: Pointer to the signal object
 238:.\source\rte/sc_clock.h ****  * @param uint32_t increment: incrementvalue, typically in [ms]
 239:.\source\rte/sc_clock.h ****  * @return void
 240:.\source\rte/sc_clock.h ****  */
 241:.\source\rte/sc_clock.h **** inline void RTE_SC_CLOCK_incAge(  SC_CLOCK_t * const signal , uint32_t increment)
 242:.\source\rte/sc_clock.h **** {
 243:.\source\rte/sc_clock.h **** 	   //Hack....
 244:.\source\rte/sc_clock.h **** 	   if ( 0xFFFF0000 > (signal->age + increment) )
 245:.\source\rte/sc_clock.h **** 	   {
 246:.\source\rte/sc_clock.h **** 	      signal->age += increment;
 247:.\source\rte/sc_clock.h **** 	   }
 248:.\source\rte/sc_clock.h **** }
 249:.\source\rte/sc_clock.h **** 
 250:.\source\rte/sc_clock.h **** 
 251:.\source\rte/sc_clock.h **** /**************************************************************************************************
 252:.\source\rte/sc_clock.h **** /* Application Data read/write Interface																			*/
 253:.\source\rte/sc_clock.h **** /**************************************************************************************************
 254:.\source\rte/sc_clock.h **** 
 255:.\source\rte/sc_clock.h **** /**
 256:.\source\rte/sc_clock.h ****  * Returns the current application value of the passed signal instance.
 257:.\source\rte/sc_clock.h ****  *
 258:.\source\rte/sc_clock.h ****  * @param  SC_CLOCK_t * const signal: Pointer to the signal object
 259:.\source\rte/sc_clock.h ****  * @return sc_clock_data_t: current value of the application data buffer
 260:.\source\rte/sc_clock.h ****  *
ARM GAS  C:\Users\aditi\AppData\Local\Temp\ccxJli9U.s 			page 13


 261:.\source\rte/sc_clock.h ****  **/
 262:.\source\rte/sc_clock.h **** inline SC_CLOCK_data_t RTE_SC_CLOCK_get( const SC_CLOCK_t * const signal )
 263:.\source\rte/sc_clock.h **** {               
 264:.\source\rte/sc_clock.h ****    //Todo: Critical region cannot be protected using return values																						
 265:.\source\rte/sc_clock.h ****    return signal->value;                                                                           
  47              		.loc 2 265 0
  48 000a 09AC     		add	r4, sp, #36
  49 000c 294D     		ldr	r5, .L10+4
  50 000e 0FCD     		ldmia	r5!, {r0, r1, r2, r3}
  51 0010 0FC4     		stmia	r4!, {r0, r1, r2, r3}
  52 0012 0FCD     		ldmia	r5!, {r0, r1, r2, r3}
  53 0014 0FC4     		stmia	r4!, {r0, r1, r2, r3}
  54 0016 2B68     		ldr	r3, [r5]
  55 0018 2360     		str	r3, [r4]
  56              	.LVL1:
  57              	.LBE80:
  58              	.LBE79:
 379:source\asw/swc_clock.c ****     
 380:source\asw/swc_clock.c ****     //Get a local copy of the clock component
 381:source\asw/swc_clock.c ****     SC_CLOCK_data_t clock = RTE_SC_CLOCK_get(&SO_CLOCK_signal);
 382:source\asw/swc_clock.c ****     
 383:source\asw/swc_clock.c ****     //Check if the increment is less than the maximum value and then increment
 384:source\asw/swc_clock.c ****     if (clock.m_minutes.m_value < MINUTES_MAX)
  59              		.loc 1 384 0
  60 001a 9DF84430 		ldrb	r3, [sp, #68]	@ zero_extendqisi2
  61 001e 3B2B     		cmp	r3, #59
  62 0020 03D8     		bhi	.L2
 385:source\asw/swc_clock.c ****     {
 386:source\asw/swc_clock.c ****         clock.m_minutes.m_value += 1;
  63              		.loc 1 386 0
  64 0022 0133     		adds	r3, r3, #1
  65 0024 8DF84430 		strb	r3, [sp, #68]
  66 0028 15E0     		b	.L3
  67              	.L2:
 387:source\asw/swc_clock.c ****     }
 388:source\asw/swc_clock.c ****     //Set minutes to zero and increment hours when minute reaches maximum value
 389:source\asw/swc_clock.c ****     else if(clock.m_minutes.m_value == MINUTES_MAX)
  68              		.loc 1 389 0
  69 002a 3C2B     		cmp	r3, #60
  70 002c 08D1     		bne	.L4
 390:source\asw/swc_clock.c ****     {
 391:source\asw/swc_clock.c ****         clock.m_minutes.m_value = 0;
  71              		.loc 1 391 0
  72 002e 0023     		movs	r3, #0
  73 0030 8DF84430 		strb	r3, [sp, #68]
 392:source\asw/swc_clock.c ****         clock.m_hours.m_value += 1;
  74              		.loc 1 392 0
  75 0034 9DF83830 		ldrb	r3, [sp, #56]	@ zero_extendqisi2
  76 0038 0133     		adds	r3, r3, #1
  77 003a 8DF83830 		strb	r3, [sp, #56]
  78 003e 0AE0     		b	.L3
  79              	.L4:
 393:source\asw/swc_clock.c ****     }
 394:source\asw/swc_clock.c ****     //When both reach the maximum value, reset the clock to zero
 395:source\asw/swc_clock.c ****     else if((clock.m_minutes.m_value == MINUTES_MAX) && (clock.m_hours.m_value == HOURFORMAT_24_MAX
  80              		.loc 1 395 0
  81 0040 3C2B     		cmp	r3, #60
ARM GAS  C:\Users\aditi\AppData\Local\Temp\ccxJli9U.s 			page 14


  82 0042 08D1     		bne	.L3
  83              		.loc 1 395 0 is_stmt 0 discriminator 1
  84 0044 9DF83830 		ldrb	r3, [sp, #56]	@ zero_extendqisi2
  85 0048 182B     		cmp	r3, #24
  86 004a 04D1     		bne	.L3
 396:source\asw/swc_clock.c ****     {
 397:source\asw/swc_clock.c ****         clock.m_minutes.m_value = 0;
  87              		.loc 1 397 0 is_stmt 1
  88 004c 0023     		movs	r3, #0
  89 004e 8DF84430 		strb	r3, [sp, #68]
 398:source\asw/swc_clock.c ****         clock.m_hours.m_value = 0;
  90              		.loc 1 398 0
  91 0052 8DF83830 		strb	r3, [sp, #56]
  92              	.L3:
  93              	.LVL2:
  94 0056 6C46     		mov	r4, sp
  95 0058 09AD     		add	r5, sp, #36
  96 005a 0FCD     		ldmia	r5!, {r0, r1, r2, r3}
  97 005c 0FC4     		stmia	r4!, {r0, r1, r2, r3}
  98 005e 0FCD     		ldmia	r5!, {r0, r1, r2, r3}
  99 0060 0FC4     		stmia	r4!, {r0, r1, r2, r3}
 100 0062 D5F800E0 		ldr	lr, [r5]
 101 0066 C4F800E0 		str	lr, [r4]
 102              	.LVL3:
 103              	.LBB81:
 104              	.LBB82:
 266:.\source\rte/sc_clock.h **** }                                                                                                  
 267:.\source\rte/sc_clock.h ****                                                                                                    
 268:.\source\rte/sc_clock.h **** /**
 269:.\source\rte/sc_clock.h ****  * Returns the current application value of the passed signal instance threadsafe.
 270:.\source\rte/sc_clock.h ****  *
 271:.\source\rte/sc_clock.h ****  * @param  SC_CLOCK_t * const signal: Pointer to the signal object
 272:.\source\rte/sc_clock.h ****  * @param  SC_CLOCK_data_t* data: Pointer to the return data Pointer to the signal object
 273:.\source\rte/sc_clock.h ****  * @return RC_SUCCESS
 274:.\source\rte/sc_clock.h ****  *
 275:.\source\rte/sc_clock.h ****  **/
 276:.\source\rte/sc_clock.h **** inline RC_t RTE_SC_CLOCK_getThreadSafe( const SC_CLOCK_t * const signal, SC_CLOCK_data_t * const da
 277:.\source\rte/sc_clock.h **** {    
 278:.\source\rte/sc_clock.h ****    if (TRUE == signal->pSigCfg->resourceActive) GetResource(signal->pSigCfg->resource);
 279:.\source\rte/sc_clock.h ****    *data = signal->value;
 280:.\source\rte/sc_clock.h ****    if (TRUE == signal->pSigCfg->resourceActive) ReleaseResource(signal->pSigCfg->resource);        
 281:.\source\rte/sc_clock.h **** 
 282:.\source\rte/sc_clock.h ****    return RC_SUCCESS;                                                                   
 283:.\source\rte/sc_clock.h ****    
 284:.\source\rte/sc_clock.h **** }                                                                                                  
 285:.\source\rte/sc_clock.h ****                                                                                                    
 286:.\source\rte/sc_clock.h **** /**
 287:.\source\rte/sc_clock.h ****  * Sets a new application value to the passed signal instance by passing the new value.
 288:.\source\rte/sc_clock.h ****  * The corresponding driver raw value will be calculated immediately by using the default conversio
 289:.\source\rte/sc_clock.h ****  * signal specific scaling function.
 290:.\source\rte/sc_clock.h ****  * The signal age will be set to 0 and the new status will be 'RTE_SIGNALSTATUS_VALID'.
 291:.\source\rte/sc_clock.h ****  *
 292:.\source\rte/sc_clock.h ****  * @param  SC_CLOCK_t * const signal: Pointer to the signal object
 293:.\source\rte/sc_clock.h ****  * @param  sc_clock_data_t const value: value for the application data buffer
 294:.\source\rte/sc_clock.h ****  * @return RC_t: standard return code, currently only RC_SUCCESS
 295:.\source\rte/sc_clock.h ****  *
 296:.\source\rte/sc_clock.h ****  **/
ARM GAS  C:\Users\aditi\AppData\Local\Temp\ccxJli9U.s 			page 15


 297:.\source\rte/sc_clock.h **** inline RC_t RTE_SC_CLOCK_set(SC_CLOCK_t * const signal, const SC_CLOCK_data_t value  )
 298:.\source\rte/sc_clock.h **** {
 299:.\source\rte/sc_clock.h **** 
 300:.\source\rte/sc_clock.h ****    RC_t ret = RC_SUCCESS;
 301:.\source\rte/sc_clock.h ****    size_t taskNum=0;
 302:.\source\rte/sc_clock.h **** 
 303:.\source\rte/sc_clock.h **** 
 304:.\source\rte/sc_clock.h ****    if (TRUE == signal->pSigCfg->resourceActive) GetResource(signal->pSigCfg->resource);
 105              		.loc 2 304 0
 106 006a 124E     		ldr	r6, .L10+4
 107 006c F76A     		ldr	r7, [r6, #44]
 305:.\source\rte/sc_clock.h ****    signal->value  = value;
 108              		.loc 2 305 0
 109 006e 3446     		mov	r4, r6
 110 0070 6D46     		mov	r5, sp
 111 0072 0FCD     		ldmia	r5!, {r0, r1, r2, r3}
 112 0074 0FC4     		stmia	r4!, {r0, r1, r2, r3}
 113 0076 0FCD     		ldmia	r5!, {r0, r1, r2, r3}
 114 0078 0FC4     		stmia	r4!, {r0, r1, r2, r3}
 115 007a C4F800E0 		str	lr, [r4]
 306:.\source\rte/sc_clock.h ****    signal->age    = 0;
 116              		.loc 2 306 0
 117 007e 0023     		movs	r3, #0
 118 0080 B362     		str	r3, [r6, #40]
 307:.\source\rte/sc_clock.h ****    signal->status = RTE_SIGNALSTATUS_VALID;
 119              		.loc 2 307 0
 120 0082 0223     		movs	r3, #2
 121 0084 86F82430 		strb	r3, [r6, #36]
 308:.\source\rte/sc_clock.h ****    if (TRUE == signal->pSigCfg->resourceActive) ReleaseResource(signal->pSigCfg->resource);
 309:.\source\rte/sc_clock.h **** 
 310:.\source\rte/sc_clock.h ****    //Pointer to the Taskarray, containing the tasks receiving the onUpdate events
 311:.\source\rte/sc_clock.h ****    TaskTypeArray* pTaskArray = signal->pSigCfg->onUpdateTasks;
 122              		.loc 2 311 0
 123 0088 7D69     		ldr	r5, [r7, #20]
 124              	.LVL4:
 312:.\source\rte/sc_clock.h **** 
 313:.\source\rte/sc_clock.h ****    if (NULL!=signal->pSigCfg->evOnUpdate && NULL != pTaskArray){
 125              		.loc 2 313 0
 126 008a BB68     		ldr	r3, [r7, #8]
 127 008c 73B1     		cbz	r3, .L1
 128 008e 3DB9     		cbnz	r5, .L8
 129 0090 0CE0     		b	.L1
 130              	.LVL5:
 131              	.L7:
 132              	.LBB83:
 314:.\source\rte/sc_clock.h ****       for( taskNum=0 ; taskNum < signal->pSigCfg->onUpdateTaskCount ;taskNum++){
 315:.\source\rte/sc_clock.h **** 		  
 316:.\source\rte/sc_clock.h ****           TaskType task = (*pTaskArray)[taskNum];
 317:.\source\rte/sc_clock.h **** 	      SetEvent( task, signal->pSigCfg->evOnUpdate);
 133              		.loc 2 317 0
 134 0092 9968     		ldr	r1, [r3, #8]
 135 0094 55F82400 		ldr	r0, [r5, r4, lsl #2]
 136 0098 FFF7FEFF 		bl	EE_oo_SetEvent
 137              	.LVL6:
 138              	.LBE83:
 314:.\source\rte/sc_clock.h ****       for( taskNum=0 ; taskNum < signal->pSigCfg->onUpdateTaskCount ;taskNum++){
 139              		.loc 2 314 0
ARM GAS  C:\Users\aditi\AppData\Local\Temp\ccxJli9U.s 			page 16


 140 009c 0134     		adds	r4, r4, #1
 141              	.LVL7:
 142 009e 00E0     		b	.L6
 143              	.LVL8:
 144              	.L8:
 313:.\source\rte/sc_clock.h ****       for( taskNum=0 ; taskNum < signal->pSigCfg->onUpdateTaskCount ;taskNum++){
 145              		.loc 2 313 0
 146 00a0 0024     		movs	r4, #0
 147              	.LVL9:
 148              	.L6:
 314:.\source\rte/sc_clock.h ****       for( taskNum=0 ; taskNum < signal->pSigCfg->onUpdateTaskCount ;taskNum++){
 149              		.loc 2 314 0
 150 00a2 044B     		ldr	r3, .L10+4
 151 00a4 DB6A     		ldr	r3, [r3, #44]
 152 00a6 1A69     		ldr	r2, [r3, #16]
 153 00a8 9442     		cmp	r4, r2
 154 00aa F2D3     		bcc	.L7
 155              	.LVL10:
 156              	.L1:
 157              	.LBE82:
 158              	.LBE81:
 399:source\asw/swc_clock.c ****     }
 400:source\asw/swc_clock.c ****     else {/*do nothing*/}
 401:source\asw/swc_clock.c **** 
 402:source\asw/swc_clock.c ****     //Update the clock signal into signal object
 403:source\asw/swc_clock.c ****     RTE_SC_CLOCK_set(&SO_CLOCK_signal, clock);
 404:source\asw/swc_clock.c ****     
 405:source\asw/swc_clock.c **** }
 159              		.loc 1 405 0
 160 00ac 13B0     		add	sp, sp, #76
 161              		.cfi_def_cfa_offset 20
 162              		@ sp needed
 163 00ae F0BD     		pop	{r4, r5, r6, r7, pc}
 164              	.LVL11:
 165              	.L11:
 166              		.align	2
 167              	.L10:
 168 00b0 00000000 		.word	.LC0
 169 00b4 00000000 		.word	SO_CLOCK_signal
 170              		.cfi_endproc
 171              	.LFE147:
 172              		.size	CLOCK__increment1Minute, .-CLOCK__increment1Minute
 173              		.section	.text.CLOCK__dispatch_wrapper,"ax",%progbits
 174              		.align	2
 175              		.thumb
 176              		.thumb_func
 177              		.type	CLOCK__dispatch_wrapper, %function
 178              	CLOCK__dispatch_wrapper:
 179              	.LFB144:
 323:source\asw/swc_clock.c ****     //Read the state object (container)
 180              		.loc 1 323 0
 181              		.cfi_startproc
 182              		@ args = 0, pretend = 0, frame = 216
 183              		@ frame_needed = 0, uses_anonymous_args = 0
 184              	.LVL12:
 185 0000 2DE9F043 		push	{r4, r5, r6, r7, r8, r9, lr}
 186              		.cfi_def_cfa_offset 28
ARM GAS  C:\Users\aditi\AppData\Local\Temp\ccxJli9U.s 			page 17


 187              		.cfi_offset 4, -28
 188              		.cfi_offset 5, -24
 189              		.cfi_offset 6, -20
 190              		.cfi_offset 7, -16
 191              		.cfi_offset 8, -12
 192              		.cfi_offset 9, -8
 193              		.cfi_offset 14, -4
 194 0004 B9B0     		sub	sp, sp, #228
 195              		.cfi_def_cfa_offset 256
 196 0006 0746     		mov	r7, r0
 197 0008 0E46     		mov	r6, r1
 198              	.LVL13:
 199              	.LBB84:
 200              	.LBB85:
 265:.\source\rte/sc_clock.h **** }                                                                                                  
 201              		.loc 2 265 0
 202 000a DFF8D881 		ldr	r8, .L28
 203 000e 0DF1BC0E 		add	lr, sp, #188
 204 0012 4446     		mov	r4, r8
 205 0014 0FCC     		ldmia	r4!, {r0, r1, r2, r3}
 206              	.LVL14:
 207 0016 AEE80F00 		stmia	lr!, {r0, r1, r2, r3}
 208 001a 0FCC     		ldmia	r4!, {r0, r1, r2, r3}
 209 001c AEE80F00 		stmia	lr!, {r0, r1, r2, r3}
 210 0020 2568     		ldr	r5, [r4]
 211 0022 CEF80050 		str	r5, [lr]
 212              	.LVL15:
 213              	.LBE85:
 214              	.LBE84:
 328:source\asw/swc_clock.c ****     
 215              		.loc 1 328 0
 216 0026 8DF8C460 		strb	r6, [sp, #196]
 217              	.LVL16:
 218 002a 0DF1080E 		add	lr, sp, #8
 219 002e 0DF1BC0C 		add	ip, sp, #188
 220 0032 BCE80F00 		ldmia	ip!, {r0, r1, r2, r3}
 221 0036 AEE80F00 		stmia	lr!, {r0, r1, r2, r3}
 222 003a BCE80F00 		ldmia	ip!, {r0, r1, r2, r3}
 223 003e AEE80F00 		stmia	lr!, {r0, r1, r2, r3}
 224 0042 CEF80050 		str	r5, [lr]
 225              	.LVL17:
 226              	.LBB86:
 227              	.LBB87:
 304:.\source\rte/sc_clock.h ****    signal->value  = value;
 228              		.loc 2 304 0
 229 0046 D8F82C90 		ldr	r9, [r8, #44]
 305:.\source\rte/sc_clock.h ****    signal->age    = 0;
 230              		.loc 2 305 0
 231 004a C646     		mov	lr, r8
 232 004c 0DF1080C 		add	ip, sp, #8
 233 0050 BCE80F00 		ldmia	ip!, {r0, r1, r2, r3}
 234 0054 AEE80F00 		stmia	lr!, {r0, r1, r2, r3}
 235 0058 BCE80F00 		ldmia	ip!, {r0, r1, r2, r3}
 236 005c AEE80F00 		stmia	lr!, {r0, r1, r2, r3}
 306:.\source\rte/sc_clock.h ****    signal->status = RTE_SIGNALSTATUS_VALID;
 237              		.loc 2 306 0
 238 0060 0023     		movs	r3, #0
ARM GAS  C:\Users\aditi\AppData\Local\Temp\ccxJli9U.s 			page 18


 239 0062 C8F82830 		str	r3, [r8, #40]
 307:.\source\rte/sc_clock.h ****    if (TRUE == signal->pSigCfg->resourceActive) ReleaseResource(signal->pSigCfg->resource);
 240              		.loc 2 307 0
 241 0066 0223     		movs	r3, #2
 242 0068 88F82430 		strb	r3, [r8, #36]
 311:.\source\rte/sc_clock.h **** 
 243              		.loc 2 311 0
 244 006c D9F81450 		ldr	r5, [r9, #20]
 245              	.LVL18:
 313:.\source\rte/sc_clock.h ****       for( taskNum=0 ; taskNum < signal->pSigCfg->onUpdateTaskCount ;taskNum++){
 246              		.loc 2 313 0
 247 0070 D9F80830 		ldr	r3, [r9, #8]
 248 0074 73B1     		cbz	r3, .L13
 249 0076 3DB9     		cbnz	r5, .L24
 250 0078 0CE0     		b	.L13
 251              	.LVL19:
 252              	.L15:
 253              	.LBB88:
 254              		.loc 2 317 0
 255 007a 9968     		ldr	r1, [r3, #8]
 256 007c 55F82400 		ldr	r0, [r5, r4, lsl #2]
 257 0080 FFF7FEFF 		bl	EE_oo_SetEvent
 258              	.LVL20:
 259              	.LBE88:
 314:.\source\rte/sc_clock.h **** 		  
 260              		.loc 2 314 0
 261 0084 0134     		adds	r4, r4, #1
 262              	.LVL21:
 263 0086 00E0     		b	.L14
 264              	.LVL22:
 265              	.L24:
 313:.\source\rte/sc_clock.h ****       for( taskNum=0 ; taskNum < signal->pSigCfg->onUpdateTaskCount ;taskNum++){
 266              		.loc 2 313 0
 267 0088 0024     		movs	r4, #0
 268              	.LVL23:
 269              	.L14:
 314:.\source\rte/sc_clock.h **** 		  
 270              		.loc 2 314 0
 271 008a 564B     		ldr	r3, .L28
 272 008c DB6A     		ldr	r3, [r3, #44]
 273 008e 1A69     		ldr	r2, [r3, #16]
 274 0090 9442     		cmp	r4, r2
 275 0092 F2D3     		bcc	.L15
 276              	.LVL24:
 277              	.L13:
 278              	.LBE87:
 279              	.LBE86:
 336:source\asw/swc_clock.c ****     {
 280              		.loc 1 336 0
 281 0094 002E     		cmp	r6, #0
 282 0096 50D1     		bne	.L16
 283              	.LBB89:
 338:source\asw/swc_clock.c ****         CLOCK_state_t localState = clock.m_hours.m_widgetState;
 284              		.loc 1 338 0
 285 0098 5348     		ldr	r0, .L28+4
 286 009a FFF7FEFF 		bl	UART_LOG_PutString
 287              	.LVL25:
ARM GAS  C:\Users\aditi\AppData\Local\Temp\ccxJli9U.s 			page 19


 339:source\asw/swc_clock.c ****         STATE_processEvent (CLOCK_Widget_Transitions, CLOCK_Widget_Transitions_Size, 0, 0, ev, &loc
 288              		.loc 1 339 0
 289 009e 9DF8C820 		ldrb	r2, [sp, #200]	@ zero_extendqisi2
 290 00a2 38AB     		add	r3, sp, #224
 291 00a4 03F8482D 		strb	r2, [r3, #-72]!
 340:source\asw/swc_clock.c ****         
 292              		.loc 1 340 0
 293 00a8 0193     		str	r3, [sp, #4]
 294 00aa 0097     		str	r7, [sp]
 295 00ac 0023     		movs	r3, #0
 296 00ae 1A46     		mov	r2, r3
 297 00b0 0321     		movs	r1, #3
 298 00b2 4E48     		ldr	r0, .L28+8
 299 00b4 FFF7FEFF 		bl	STATE_processEvent
 300              	.LVL26:
 301              	.LBB90:
 302              	.LBB91:
 265:.\source\rte/sc_clock.h **** }                                                                                                  
 303              		.loc 2 265 0
 304 00b8 DFF828E1 		ldr	lr, .L28
 305 00bc 14AD     		add	r5, sp, #80
 306 00be 7446     		mov	r4, lr
 307 00c0 0FCC     		ldmia	r4!, {r0, r1, r2, r3}
 308 00c2 0FC5     		stmia	r5!, {r0, r1, r2, r3}
 309 00c4 0FCC     		ldmia	r4!, {r0, r1, r2, r3}
 310 00c6 0FC5     		stmia	r5!, {r0, r1, r2, r3}
 311 00c8 2668     		ldr	r6, [r4]
 312 00ca 2E60     		str	r6, [r5]
 313              	.LVL27:
 314              	.LBE91:
 315              	.LBE90:
 343:source\asw/swc_clock.c ****         clock.m_hours.m_widgetState = localState;
 316              		.loc 1 343 0
 317 00cc 2FAD     		add	r5, sp, #188
 318 00ce 14AF     		add	r7, sp, #80
 319 00d0 0FCF     		ldmia	r7!, {r0, r1, r2, r3}
 320 00d2 0FC5     		stmia	r5!, {r0, r1, r2, r3}
 321 00d4 0FCF     		ldmia	r7!, {r0, r1, r2, r3}
 322 00d6 0FC5     		stmia	r5!, {r0, r1, r2, r3}
 323 00d8 3746     		mov	r7, r6
 324 00da 2E60     		str	r6, [r5]
 344:source\asw/swc_clock.c ****                 
 325              		.loc 1 344 0
 326 00dc 9DF89830 		ldrb	r3, [sp, #152]	@ zero_extendqisi2
 327 00e0 8DF8C830 		strb	r3, [sp, #200]
 328              	.LVL28:
 329 00e4 0BAD     		add	r5, sp, #44
 330 00e6 2FAE     		add	r6, sp, #188
 331 00e8 0FCE     		ldmia	r6!, {r0, r1, r2, r3}
 332 00ea 0FC5     		stmia	r5!, {r0, r1, r2, r3}
 333 00ec 0FCE     		ldmia	r6!, {r0, r1, r2, r3}
 334 00ee 0FC5     		stmia	r5!, {r0, r1, r2, r3}
 335 00f0 2F60     		str	r7, [r5]
 336              	.LVL29:
 337              	.LBB92:
 338              	.LBB93:
 304:.\source\rte/sc_clock.h ****    signal->value  = value;
ARM GAS  C:\Users\aditi\AppData\Local\Temp\ccxJli9U.s 			page 20


 339              		.loc 2 304 0
 340 00f2 DEF82CC0 		ldr	ip, [lr, #44]
 305:.\source\rte/sc_clock.h ****    signal->age    = 0;
 341              		.loc 2 305 0
 342 00f6 7546     		mov	r5, lr
 343 00f8 0BAE     		add	r6, sp, #44
 344 00fa 0FCE     		ldmia	r6!, {r0, r1, r2, r3}
 345 00fc 0FC5     		stmia	r5!, {r0, r1, r2, r3}
 346 00fe 0FCE     		ldmia	r6!, {r0, r1, r2, r3}
 347 0100 0FC5     		stmia	r5!, {r0, r1, r2, r3}
 306:.\source\rte/sc_clock.h ****    signal->status = RTE_SIGNALSTATUS_VALID;
 348              		.loc 2 306 0
 349 0102 0023     		movs	r3, #0
 350 0104 CEF82830 		str	r3, [lr, #40]
 307:.\source\rte/sc_clock.h ****    if (TRUE == signal->pSigCfg->resourceActive) ReleaseResource(signal->pSigCfg->resource);
 351              		.loc 2 307 0
 352 0108 0223     		movs	r3, #2
 353 010a 8EF82430 		strb	r3, [lr, #36]
 311:.\source\rte/sc_clock.h **** 
 354              		.loc 2 311 0
 355 010e DCF81450 		ldr	r5, [ip, #20]
 356              	.LVL30:
 313:.\source\rte/sc_clock.h ****       for( taskNum=0 ; taskNum < signal->pSigCfg->onUpdateTaskCount ;taskNum++){
 357              		.loc 2 313 0
 358 0112 DCF80830 		ldr	r3, [ip, #8]
 359 0116 002B     		cmp	r3, #0
 360 0118 60D0     		beq	.L12
 361 011a 3DB9     		cbnz	r5, .L25
 362 011c 5EE0     		b	.L12
 363              	.LVL31:
 364              	.L19:
 365              	.LBB94:
 366              		.loc 2 317 0
 367 011e 9968     		ldr	r1, [r3, #8]
 368 0120 55F82400 		ldr	r0, [r5, r4, lsl #2]
 369 0124 FFF7FEFF 		bl	EE_oo_SetEvent
 370              	.LVL32:
 371              	.LBE94:
 314:.\source\rte/sc_clock.h **** 		  
 372              		.loc 2 314 0
 373 0128 0134     		adds	r4, r4, #1
 374              	.LVL33:
 375 012a 00E0     		b	.L18
 376              	.LVL34:
 377              	.L25:
 313:.\source\rte/sc_clock.h ****       for( taskNum=0 ; taskNum < signal->pSigCfg->onUpdateTaskCount ;taskNum++){
 378              		.loc 2 313 0
 379 012c 0024     		movs	r4, #0
 380              	.LVL35:
 381              	.L18:
 314:.\source\rte/sc_clock.h **** 		  
 382              		.loc 2 314 0
 383 012e 2D4B     		ldr	r3, .L28
 384 0130 DB6A     		ldr	r3, [r3, #44]
 385 0132 1A69     		ldr	r2, [r3, #16]
 386 0134 9442     		cmp	r4, r2
 387 0136 F2D3     		bcc	.L19
ARM GAS  C:\Users\aditi\AppData\Local\Temp\ccxJli9U.s 			page 21


 388 0138 50E0     		b	.L12
 389              	.LVL36:
 390              	.L16:
 391              	.LBE93:
 392              	.LBE92:
 393              	.LBE89:
 349:source\asw/swc_clock.c ****     {
 394              		.loc 1 349 0
 395 013a 012E     		cmp	r6, #1
 396 013c 4ED1     		bne	.L12
 397              	.LBB95:
 351:source\asw/swc_clock.c ****         CLOCK_state_t localState = clock.m_minutes.m_widgetState;
 398              		.loc 1 351 0 discriminator 2
 399 013e 2C48     		ldr	r0, .L28+12
 400 0140 FFF7FEFF 		bl	UART_LOG_PutString
 401              	.LVL37:
 352:source\asw/swc_clock.c ****         STATE_processEvent (CLOCK_Widget_Transitions, CLOCK_Widget_Transitions_Size, 0, 0, ev, &loc
 402              		.loc 1 352 0 discriminator 2
 403 0144 9DF8D420 		ldrb	r2, [sp, #212]	@ zero_extendqisi2
 404 0148 38AB     		add	r3, sp, #224
 405 014a 03F8902D 		strb	r2, [r3, #-144]!
 353:source\asw/swc_clock.c ****         
 406              		.loc 1 353 0 discriminator 2
 407 014e 0193     		str	r3, [sp, #4]
 408 0150 0097     		str	r7, [sp]
 409 0152 0023     		movs	r3, #0
 410 0154 1A46     		mov	r2, r3
 411 0156 0321     		movs	r1, #3
 412 0158 2448     		ldr	r0, .L28+8
 413 015a FFF7FEFF 		bl	STATE_processEvent
 414              	.LVL38:
 415              	.LBB96:
 416              	.LBB97:
 265:.\source\rte/sc_clock.h **** }                                                                                                  
 417              		.loc 2 265 0 discriminator 2
 418 015e DFF884E0 		ldr	lr, .L28
 419 0162 26AD     		add	r5, sp, #152
 420 0164 7446     		mov	r4, lr
 421 0166 0FCC     		ldmia	r4!, {r0, r1, r2, r3}
 422 0168 0FC5     		stmia	r5!, {r0, r1, r2, r3}
 423 016a 0FCC     		ldmia	r4!, {r0, r1, r2, r3}
 424 016c 0FC5     		stmia	r5!, {r0, r1, r2, r3}
 425 016e 2668     		ldr	r6, [r4]
 426 0170 2E60     		str	r6, [r5]
 427              	.LVL39:
 428              	.LBE97:
 429              	.LBE96:
 356:source\asw/swc_clock.c ****         clock.m_minutes.m_widgetState = localState;
 430              		.loc 1 356 0 discriminator 2
 431 0172 2FAD     		add	r5, sp, #188
 432 0174 26AF     		add	r7, sp, #152
 433 0176 0FCF     		ldmia	r7!, {r0, r1, r2, r3}
 434 0178 0FC5     		stmia	r5!, {r0, r1, r2, r3}
 435 017a 0FCF     		ldmia	r7!, {r0, r1, r2, r3}
 436 017c 0FC5     		stmia	r5!, {r0, r1, r2, r3}
 437 017e 3746     		mov	r7, r6
 438 0180 2E60     		str	r6, [r5]
ARM GAS  C:\Users\aditi\AppData\Local\Temp\ccxJli9U.s 			page 22


 357:source\asw/swc_clock.c ****         
 439              		.loc 1 357 0 discriminator 2
 440 0182 9DF85030 		ldrb	r3, [sp, #80]	@ zero_extendqisi2
 441 0186 8DF8D430 		strb	r3, [sp, #212]
 442              	.LVL40:
 443 018a 1DAD     		add	r5, sp, #116
 444 018c 2FAE     		add	r6, sp, #188
 445 018e 0FCE     		ldmia	r6!, {r0, r1, r2, r3}
 446 0190 0FC5     		stmia	r5!, {r0, r1, r2, r3}
 447 0192 0FCE     		ldmia	r6!, {r0, r1, r2, r3}
 448 0194 0FC5     		stmia	r5!, {r0, r1, r2, r3}
 449 0196 2F60     		str	r7, [r5]
 450              	.LVL41:
 451              	.LBB98:
 452              	.LBB99:
 304:.\source\rte/sc_clock.h ****    signal->value  = value;
 453              		.loc 2 304 0 discriminator 2
 454 0198 DEF82CC0 		ldr	ip, [lr, #44]
 305:.\source\rte/sc_clock.h ****    signal->age    = 0;
 455              		.loc 2 305 0 discriminator 2
 456 019c 7546     		mov	r5, lr
 457 019e 1DAE     		add	r6, sp, #116
 458 01a0 0FCE     		ldmia	r6!, {r0, r1, r2, r3}
 459 01a2 0FC5     		stmia	r5!, {r0, r1, r2, r3}
 460 01a4 0FCE     		ldmia	r6!, {r0, r1, r2, r3}
 461 01a6 0FC5     		stmia	r5!, {r0, r1, r2, r3}
 306:.\source\rte/sc_clock.h ****    signal->status = RTE_SIGNALSTATUS_VALID;
 462              		.loc 2 306 0 discriminator 2
 463 01a8 0023     		movs	r3, #0
 464 01aa CEF82830 		str	r3, [lr, #40]
 307:.\source\rte/sc_clock.h ****    if (TRUE == signal->pSigCfg->resourceActive) ReleaseResource(signal->pSigCfg->resource);
 465              		.loc 2 307 0 discriminator 2
 466 01ae 0223     		movs	r3, #2
 467 01b0 8EF82430 		strb	r3, [lr, #36]
 311:.\source\rte/sc_clock.h **** 
 468              		.loc 2 311 0 discriminator 2
 469 01b4 DCF81450 		ldr	r5, [ip, #20]
 470              	.LVL42:
 313:.\source\rte/sc_clock.h ****       for( taskNum=0 ; taskNum < signal->pSigCfg->onUpdateTaskCount ;taskNum++){
 471              		.loc 2 313 0 discriminator 2
 472 01b8 DCF80830 		ldr	r3, [ip, #8]
 473 01bc 73B1     		cbz	r3, .L12
 313:.\source\rte/sc_clock.h ****       for( taskNum=0 ; taskNum < signal->pSigCfg->onUpdateTaskCount ;taskNum++){
 474              		.loc 2 313 0 is_stmt 0
 475 01be 3DB9     		cbnz	r5, .L26
 476 01c0 0CE0     		b	.L12
 477              	.LVL43:
 478              	.L23:
 479              	.LBB100:
 480              		.loc 2 317 0 is_stmt 1
 481 01c2 9968     		ldr	r1, [r3, #8]
 482 01c4 55F82400 		ldr	r0, [r5, r4, lsl #2]
 483 01c8 FFF7FEFF 		bl	EE_oo_SetEvent
 484              	.LVL44:
 485              	.LBE100:
 314:.\source\rte/sc_clock.h **** 		  
 486              		.loc 2 314 0
ARM GAS  C:\Users\aditi\AppData\Local\Temp\ccxJli9U.s 			page 23


 487 01cc 0134     		adds	r4, r4, #1
 488              	.LVL45:
 489 01ce 00E0     		b	.L22
 490              	.LVL46:
 491              	.L26:
 313:.\source\rte/sc_clock.h ****       for( taskNum=0 ; taskNum < signal->pSigCfg->onUpdateTaskCount ;taskNum++){
 492              		.loc 2 313 0
 493 01d0 0024     		movs	r4, #0
 494              	.LVL47:
 495              	.L22:
 314:.\source\rte/sc_clock.h **** 		  
 496              		.loc 2 314 0
 497 01d2 044B     		ldr	r3, .L28
 498 01d4 DB6A     		ldr	r3, [r3, #44]
 499 01d6 1A69     		ldr	r2, [r3, #16]
 500 01d8 9442     		cmp	r4, r2
 501 01da F2D3     		bcc	.L23
 502              	.LVL48:
 503              	.L12:
 504              	.LBE99:
 505              	.LBE98:
 506              	.LBE95:
 362:source\asw/swc_clock.c **** 
 507              		.loc 1 362 0
 508 01dc 39B0     		add	sp, sp, #228
 509              		.cfi_def_cfa_offset 28
 510              		@ sp needed
 511 01de BDE8F083 		pop	{r4, r5, r6, r7, r8, r9, pc}
 512              	.L29:
 513 01e2 00BF     		.align	2
 514              	.L28:
 515 01e4 00000000 		.word	SO_CLOCK_signal
 516 01e8 20000000 		.word	.LC1
 517 01ec 00000000 		.word	.LANCHOR0
 518 01f0 44000000 		.word	.LC2
 519              		.cfi_endproc
 520              	.LFE144:
 521              		.size	CLOCK__dispatch_wrapper, .-CLOCK__dispatch_wrapper
 522              		.section	.text.CLOCK__dispatch_250MS_Min,"ax",%progbits
 523              		.align	2
 524              		.thumb
 525              		.thumb_func
 526              		.type	CLOCK__dispatch_250MS_Min, %function
 527              	CLOCK__dispatch_250MS_Min:
 528              	.LFB154:
 406:source\asw/swc_clock.c **** 
 407:source\asw/swc_clock.c **** static void CLOCK__dispatch_KL_HoursMin()
 408:source\asw/swc_clock.c **** {
 409:source\asw/swc_clock.c ****     UART_LOG_PutString("In CLOCK__dispatch_KL_HoursMin function\n");
 410:source\asw/swc_clock.c ****     CLOCK__dispatch_wrapper(EV_KEYLEFT, CLOCK_HOURSWIDGET);
 411:source\asw/swc_clock.c ****     CLOCK__dispatch_wrapper(EV_KEYLEFT, CLOCK_MINUTESWIDGET);
 412:source\asw/swc_clock.c **** }
 413:source\asw/swc_clock.c **** 
 414:source\asw/swc_clock.c **** static void CLOCK__dispatch_KR_Hours()
 415:source\asw/swc_clock.c **** {
 416:source\asw/swc_clock.c ****     UART_LOG_PutString("In CLOCK__dispatch_KR_Hours function\n");
 417:source\asw/swc_clock.c ****     CLOCK__dispatch_wrapper(EV_KEYRIGHT, CLOCK_HOURSWIDGET);
ARM GAS  C:\Users\aditi\AppData\Local\Temp\ccxJli9U.s 			page 24


 418:source\asw/swc_clock.c **** 
 419:source\asw/swc_clock.c **** }
 420:source\asw/swc_clock.c **** 
 421:source\asw/swc_clock.c **** static void CLOCK__dispatch_KRLP_Hours()
 422:source\asw/swc_clock.c **** {
 423:source\asw/swc_clock.c ****     UART_LOG_PutString("In CLOCK__dispatch_KRLP_Hours function\n");
 424:source\asw/swc_clock.c ****     CLOCK__dispatch_wrapper(EV_KEYRIGHTLONGPRESS, CLOCK_HOURSWIDGET);
 425:source\asw/swc_clock.c **** }
 426:source\asw/swc_clock.c **** 
 427:source\asw/swc_clock.c **** static void CLOCK__dispatch_250MS_Hours()
 428:source\asw/swc_clock.c **** {
 429:source\asw/swc_clock.c ****     UART_LOG_PutString("In CLOCK__dispatch_250MS_Hours function\n");
 430:source\asw/swc_clock.c ****     CLOCK__dispatch_wrapper(EV_250MS, CLOCK_HOURSWIDGET);
 431:source\asw/swc_clock.c **** }
 432:source\asw/swc_clock.c **** 
 433:source\asw/swc_clock.c **** static void CLOCK__dispatch_KR_Min()
 434:source\asw/swc_clock.c **** {
 435:source\asw/swc_clock.c ****     UART_LOG_PutString("In CLOCK__dispatch_KR_Min function\n");
 436:source\asw/swc_clock.c ****     CLOCK__dispatch_wrapper(EV_KEYRIGHT, CLOCK_MINUTESWIDGET);
 437:source\asw/swc_clock.c **** }
 438:source\asw/swc_clock.c **** 
 439:source\asw/swc_clock.c **** static void CLOCK__dispatch_KRLP_Min()
 440:source\asw/swc_clock.c **** {
 441:source\asw/swc_clock.c ****     UART_LOG_PutString("In CLOCK__dispatch_KRLP_Min function\n"); 
 442:source\asw/swc_clock.c ****     CLOCK__dispatch_wrapper(EV_KEYRIGHTLONGPRESS, CLOCK_MINUTESWIDGET);
 443:source\asw/swc_clock.c **** }
 444:source\asw/swc_clock.c **** 
 445:source\asw/swc_clock.c **** static void CLOCK__dispatch_250MS_Min()
 446:source\asw/swc_clock.c **** {
 529              		.loc 1 446 0
 530              		.cfi_startproc
 531              		@ args = 0, pretend = 0, frame = 0
 532              		@ frame_needed = 0, uses_anonymous_args = 0
 533 0000 08B5     		push	{r3, lr}
 534              		.cfi_def_cfa_offset 8
 535              		.cfi_offset 3, -8
 536              		.cfi_offset 14, -4
 447:source\asw/swc_clock.c ****     UART_LOG_PutString("In CLOCK__dispatch_250MS_Min function\n");
 537              		.loc 1 447 0
 538 0002 0448     		ldr	r0, .L32
 539 0004 FFF7FEFF 		bl	UART_LOG_PutString
 540              	.LVL49:
 448:source\asw/swc_clock.c ****     CLOCK__dispatch_wrapper(EV_250MS, CLOCK_MINUTESWIDGET);
 541              		.loc 1 448 0
 542 0008 0121     		movs	r1, #1
 543 000a 0520     		movs	r0, #5
 544 000c FFF7FEFF 		bl	CLOCK__dispatch_wrapper
 545              	.LVL50:
 546 0010 08BD     		pop	{r3, pc}
 547              	.L33:
 548 0012 00BF     		.align	2
 549              	.L32:
 550 0014 6C000000 		.word	.LC3
 551              		.cfi_endproc
 552              	.LFE154:
 553              		.size	CLOCK__dispatch_250MS_Min, .-CLOCK__dispatch_250MS_Min
 554              		.section	.text.CLOCK__dispatch_KRLP_Min,"ax",%progbits
ARM GAS  C:\Users\aditi\AppData\Local\Temp\ccxJli9U.s 			page 25


 555              		.align	2
 556              		.thumb
 557              		.thumb_func
 558              		.type	CLOCK__dispatch_KRLP_Min, %function
 559              	CLOCK__dispatch_KRLP_Min:
 560              	.LFB153:
 440:source\asw/swc_clock.c ****     UART_LOG_PutString("In CLOCK__dispatch_KRLP_Min function\n"); 
 561              		.loc 1 440 0
 562              		.cfi_startproc
 563              		@ args = 0, pretend = 0, frame = 0
 564              		@ frame_needed = 0, uses_anonymous_args = 0
 565 0000 08B5     		push	{r3, lr}
 566              		.cfi_def_cfa_offset 8
 567              		.cfi_offset 3, -8
 568              		.cfi_offset 14, -4
 441:source\asw/swc_clock.c ****     CLOCK__dispatch_wrapper(EV_KEYRIGHTLONGPRESS, CLOCK_MINUTESWIDGET);
 569              		.loc 1 441 0
 570 0002 0448     		ldr	r0, .L36
 571 0004 FFF7FEFF 		bl	UART_LOG_PutString
 572              	.LVL51:
 442:source\asw/swc_clock.c **** }
 573              		.loc 1 442 0
 574 0008 0121     		movs	r1, #1
 575 000a 0320     		movs	r0, #3
 576 000c FFF7FEFF 		bl	CLOCK__dispatch_wrapper
 577              	.LVL52:
 578 0010 08BD     		pop	{r3, pc}
 579              	.L37:
 580 0012 00BF     		.align	2
 581              	.L36:
 582 0014 94000000 		.word	.LC4
 583              		.cfi_endproc
 584              	.LFE153:
 585              		.size	CLOCK__dispatch_KRLP_Min, .-CLOCK__dispatch_KRLP_Min
 586              		.section	.text.CLOCK__dispatch_KR_Min,"ax",%progbits
 587              		.align	2
 588              		.thumb
 589              		.thumb_func
 590              		.type	CLOCK__dispatch_KR_Min, %function
 591              	CLOCK__dispatch_KR_Min:
 592              	.LFB152:
 434:source\asw/swc_clock.c ****     UART_LOG_PutString("In CLOCK__dispatch_KR_Min function\n");
 593              		.loc 1 434 0
 594              		.cfi_startproc
 595              		@ args = 0, pretend = 0, frame = 0
 596              		@ frame_needed = 0, uses_anonymous_args = 0
 597 0000 08B5     		push	{r3, lr}
 598              		.cfi_def_cfa_offset 8
 599              		.cfi_offset 3, -8
 600              		.cfi_offset 14, -4
 435:source\asw/swc_clock.c ****     CLOCK__dispatch_wrapper(EV_KEYRIGHT, CLOCK_MINUTESWIDGET);
 601              		.loc 1 435 0
 602 0002 0448     		ldr	r0, .L40
 603 0004 FFF7FEFF 		bl	UART_LOG_PutString
 604              	.LVL53:
 436:source\asw/swc_clock.c **** }
 605              		.loc 1 436 0
ARM GAS  C:\Users\aditi\AppData\Local\Temp\ccxJli9U.s 			page 26


 606 0008 0121     		movs	r1, #1
 607 000a 0220     		movs	r0, #2
 608 000c FFF7FEFF 		bl	CLOCK__dispatch_wrapper
 609              	.LVL54:
 610 0010 08BD     		pop	{r3, pc}
 611              	.L41:
 612 0012 00BF     		.align	2
 613              	.L40:
 614 0014 BC000000 		.word	.LC5
 615              		.cfi_endproc
 616              	.LFE152:
 617              		.size	CLOCK__dispatch_KR_Min, .-CLOCK__dispatch_KR_Min
 618              		.section	.text.CLOCK__dispatch_KL_Min,"ax",%progbits
 619              		.align	2
 620              		.thumb
 621              		.thumb_func
 622              		.type	CLOCK__dispatch_KL_Min, %function
 623              	CLOCK__dispatch_KL_Min:
 624              	.LFB146:
 371:source\asw/swc_clock.c ****     UART_LOG_PutString("In CLOCK__dispatch_KL_Min function\n");
 625              		.loc 1 371 0
 626              		.cfi_startproc
 627              		@ args = 0, pretend = 0, frame = 0
 628              		@ frame_needed = 0, uses_anonymous_args = 0
 629 0000 08B5     		push	{r3, lr}
 630              		.cfi_def_cfa_offset 8
 631              		.cfi_offset 3, -8
 632              		.cfi_offset 14, -4
 372:source\asw/swc_clock.c ****     CLOCK__dispatch_wrapper(EV_KEYLEFT, CLOCK_MINUTESWIDGET);
 633              		.loc 1 372 0
 634 0002 0448     		ldr	r0, .L44
 635 0004 FFF7FEFF 		bl	UART_LOG_PutString
 636              	.LVL55:
 373:source\asw/swc_clock.c **** }
 637              		.loc 1 373 0
 638 0008 0121     		movs	r1, #1
 639 000a 0846     		mov	r0, r1
 640 000c FFF7FEFF 		bl	CLOCK__dispatch_wrapper
 641              	.LVL56:
 642 0010 08BD     		pop	{r3, pc}
 643              	.L45:
 644 0012 00BF     		.align	2
 645              	.L44:
 646 0014 E0000000 		.word	.LC6
 647              		.cfi_endproc
 648              	.LFE146:
 649              		.size	CLOCK__dispatch_KL_Min, .-CLOCK__dispatch_KL_Min
 650              		.section	.text.CLOCK__dispatch_250MS_Hours,"ax",%progbits
 651              		.align	2
 652              		.thumb
 653              		.thumb_func
 654              		.type	CLOCK__dispatch_250MS_Hours, %function
 655              	CLOCK__dispatch_250MS_Hours:
 656              	.LFB151:
 428:source\asw/swc_clock.c ****     UART_LOG_PutString("In CLOCK__dispatch_250MS_Hours function\n");
 657              		.loc 1 428 0
 658              		.cfi_startproc
ARM GAS  C:\Users\aditi\AppData\Local\Temp\ccxJli9U.s 			page 27


 659              		@ args = 0, pretend = 0, frame = 0
 660              		@ frame_needed = 0, uses_anonymous_args = 0
 661 0000 08B5     		push	{r3, lr}
 662              		.cfi_def_cfa_offset 8
 663              		.cfi_offset 3, -8
 664              		.cfi_offset 14, -4
 429:source\asw/swc_clock.c ****     CLOCK__dispatch_wrapper(EV_250MS, CLOCK_HOURSWIDGET);
 665              		.loc 1 429 0
 666 0002 0448     		ldr	r0, .L48
 667 0004 FFF7FEFF 		bl	UART_LOG_PutString
 668              	.LVL57:
 430:source\asw/swc_clock.c **** }
 669              		.loc 1 430 0
 670 0008 0021     		movs	r1, #0
 671 000a 0520     		movs	r0, #5
 672 000c FFF7FEFF 		bl	CLOCK__dispatch_wrapper
 673              	.LVL58:
 674 0010 08BD     		pop	{r3, pc}
 675              	.L49:
 676 0012 00BF     		.align	2
 677              	.L48:
 678 0014 04010000 		.word	.LC7
 679              		.cfi_endproc
 680              	.LFE151:
 681              		.size	CLOCK__dispatch_250MS_Hours, .-CLOCK__dispatch_250MS_Hours
 682              		.section	.text.CLOCK__dispatch_KRLP_Hours,"ax",%progbits
 683              		.align	2
 684              		.thumb
 685              		.thumb_func
 686              		.type	CLOCK__dispatch_KRLP_Hours, %function
 687              	CLOCK__dispatch_KRLP_Hours:
 688              	.LFB150:
 422:source\asw/swc_clock.c ****     UART_LOG_PutString("In CLOCK__dispatch_KRLP_Hours function\n");
 689              		.loc 1 422 0
 690              		.cfi_startproc
 691              		@ args = 0, pretend = 0, frame = 0
 692              		@ frame_needed = 0, uses_anonymous_args = 0
 693 0000 08B5     		push	{r3, lr}
 694              		.cfi_def_cfa_offset 8
 695              		.cfi_offset 3, -8
 696              		.cfi_offset 14, -4
 423:source\asw/swc_clock.c ****     CLOCK__dispatch_wrapper(EV_KEYRIGHTLONGPRESS, CLOCK_HOURSWIDGET);
 697              		.loc 1 423 0
 698 0002 0448     		ldr	r0, .L52
 699 0004 FFF7FEFF 		bl	UART_LOG_PutString
 700              	.LVL59:
 424:source\asw/swc_clock.c **** }
 701              		.loc 1 424 0
 702 0008 0021     		movs	r1, #0
 703 000a 0320     		movs	r0, #3
 704 000c FFF7FEFF 		bl	CLOCK__dispatch_wrapper
 705              	.LVL60:
 706 0010 08BD     		pop	{r3, pc}
 707              	.L53:
 708 0012 00BF     		.align	2
 709              	.L52:
 710 0014 30010000 		.word	.LC8
ARM GAS  C:\Users\aditi\AppData\Local\Temp\ccxJli9U.s 			page 28


 711              		.cfi_endproc
 712              	.LFE150:
 713              		.size	CLOCK__dispatch_KRLP_Hours, .-CLOCK__dispatch_KRLP_Hours
 714              		.section	.text.CLOCK__dispatch_KR_Hours,"ax",%progbits
 715              		.align	2
 716              		.thumb
 717              		.thumb_func
 718              		.type	CLOCK__dispatch_KR_Hours, %function
 719              	CLOCK__dispatch_KR_Hours:
 720              	.LFB149:
 415:source\asw/swc_clock.c ****     UART_LOG_PutString("In CLOCK__dispatch_KR_Hours function\n");
 721              		.loc 1 415 0
 722              		.cfi_startproc
 723              		@ args = 0, pretend = 0, frame = 0
 724              		@ frame_needed = 0, uses_anonymous_args = 0
 725 0000 08B5     		push	{r3, lr}
 726              		.cfi_def_cfa_offset 8
 727              		.cfi_offset 3, -8
 728              		.cfi_offset 14, -4
 416:source\asw/swc_clock.c ****     CLOCK__dispatch_wrapper(EV_KEYRIGHT, CLOCK_HOURSWIDGET);
 729              		.loc 1 416 0
 730 0002 0448     		ldr	r0, .L56
 731 0004 FFF7FEFF 		bl	UART_LOG_PutString
 732              	.LVL61:
 417:source\asw/swc_clock.c **** 
 733              		.loc 1 417 0
 734 0008 0021     		movs	r1, #0
 735 000a 0220     		movs	r0, #2
 736 000c FFF7FEFF 		bl	CLOCK__dispatch_wrapper
 737              	.LVL62:
 738 0010 08BD     		pop	{r3, pc}
 739              	.L57:
 740 0012 00BF     		.align	2
 741              	.L56:
 742 0014 58010000 		.word	.LC9
 743              		.cfi_endproc
 744              	.LFE149:
 745              		.size	CLOCK__dispatch_KR_Hours, .-CLOCK__dispatch_KR_Hours
 746              		.section	.text.CLOCK__dispatch_KL_HoursMin,"ax",%progbits
 747              		.align	2
 748              		.thumb
 749              		.thumb_func
 750              		.type	CLOCK__dispatch_KL_HoursMin, %function
 751              	CLOCK__dispatch_KL_HoursMin:
 752              	.LFB148:
 408:source\asw/swc_clock.c ****     UART_LOG_PutString("In CLOCK__dispatch_KL_HoursMin function\n");
 753              		.loc 1 408 0
 754              		.cfi_startproc
 755              		@ args = 0, pretend = 0, frame = 0
 756              		@ frame_needed = 0, uses_anonymous_args = 0
 757 0000 08B5     		push	{r3, lr}
 758              		.cfi_def_cfa_offset 8
 759              		.cfi_offset 3, -8
 760              		.cfi_offset 14, -4
 409:source\asw/swc_clock.c ****     CLOCK__dispatch_wrapper(EV_KEYLEFT, CLOCK_HOURSWIDGET);
 761              		.loc 1 409 0
 762 0002 0648     		ldr	r0, .L60
ARM GAS  C:\Users\aditi\AppData\Local\Temp\ccxJli9U.s 			page 29


 763 0004 FFF7FEFF 		bl	UART_LOG_PutString
 764              	.LVL63:
 410:source\asw/swc_clock.c ****     CLOCK__dispatch_wrapper(EV_KEYLEFT, CLOCK_MINUTESWIDGET);
 765              		.loc 1 410 0
 766 0008 0021     		movs	r1, #0
 767 000a 0120     		movs	r0, #1
 768 000c FFF7FEFF 		bl	CLOCK__dispatch_wrapper
 769              	.LVL64:
 411:source\asw/swc_clock.c **** }
 770              		.loc 1 411 0
 771 0010 0121     		movs	r1, #1
 772 0012 0846     		mov	r0, r1
 773 0014 FFF7FEFF 		bl	CLOCK__dispatch_wrapper
 774              	.LVL65:
 775 0018 08BD     		pop	{r3, pc}
 776              	.L61:
 777 001a 00BF     		.align	2
 778              	.L60:
 779 001c 80010000 		.word	.LC10
 780              		.cfi_endproc
 781              	.LFE148:
 782              		.size	CLOCK__dispatch_KL_HoursMin, .-CLOCK__dispatch_KL_HoursMin
 783              		.section	.text.CLOCK__dispatch_KL_Hours,"ax",%progbits
 784              		.align	2
 785              		.thumb
 786              		.thumb_func
 787              		.type	CLOCK__dispatch_KL_Hours, %function
 788              	CLOCK__dispatch_KL_Hours:
 789              	.LFB145:
 365:source\asw/swc_clock.c ****     UART_LOG_PutString("In CLOCK__dispatch_KL_Hours function\n");
 790              		.loc 1 365 0
 791              		.cfi_startproc
 792              		@ args = 0, pretend = 0, frame = 0
 793              		@ frame_needed = 0, uses_anonymous_args = 0
 794 0000 08B5     		push	{r3, lr}
 795              		.cfi_def_cfa_offset 8
 796              		.cfi_offset 3, -8
 797              		.cfi_offset 14, -4
 366:source\asw/swc_clock.c ****     CLOCK__dispatch_wrapper(EV_KEYLEFT, CLOCK_HOURSWIDGET);
 798              		.loc 1 366 0
 799 0002 0448     		ldr	r0, .L64
 800 0004 FFF7FEFF 		bl	UART_LOG_PutString
 801              	.LVL66:
 367:source\asw/swc_clock.c **** }
 802              		.loc 1 367 0
 803 0008 0021     		movs	r1, #0
 804 000a 0120     		movs	r0, #1
 805 000c FFF7FEFF 		bl	CLOCK__dispatch_wrapper
 806              	.LVL67:
 807 0010 08BD     		pop	{r3, pc}
 808              	.L65:
 809 0012 00BF     		.align	2
 810              	.L64:
 811 0014 AC010000 		.word	.LC11
 812              		.cfi_endproc
 813              	.LFE145:
 814              		.size	CLOCK__dispatch_KL_Hours, .-CLOCK__dispatch_KL_Hours
ARM GAS  C:\Users\aditi\AppData\Local\Temp\ccxJli9U.s 			page 30


 815              		.section	.text.CLOCK__setEditFonts,"ax",%progbits
 816              		.align	2
 817              		.thumb
 818              		.thumb_func
 819              		.type	CLOCK__setEditFonts, %function
 820              	CLOCK__setEditFonts:
 821              	.LFB155:
 449:source\asw/swc_clock.c **** }
 450:source\asw/swc_clock.c **** 
 451:source\asw/swc_clock.c **** static void CLOCK__setEditFonts()
 452:source\asw/swc_clock.c **** {
 822              		.loc 1 452 0
 823              		.cfi_startproc
 824              		@ args = 0, pretend = 0, frame = 40
 825              		@ frame_needed = 0, uses_anonymous_args = 0
 826 0000 30B5     		push	{r4, r5, lr}
 827              		.cfi_def_cfa_offset 12
 828              		.cfi_offset 4, -12
 829              		.cfi_offset 5, -8
 830              		.cfi_offset 14, -4
 831 0002 8DB0     		sub	sp, sp, #52
 832              		.cfi_def_cfa_offset 64
 453:source\asw/swc_clock.c ****     UART_LOG_PutString("In CLOCK__setEditFonts function\n");
 833              		.loc 1 453 0
 834 0004 2248     		ldr	r0, .L70
 835 0006 FFF7FEFF 		bl	UART_LOG_PutString
 836              	.LVL68:
 837              	.LBB101:
 838              	.LBB102:
 265:.\source\rte/sc_clock.h **** }                                                                                                  
 839              		.loc 2 265 0
 840 000a 03AC     		add	r4, sp, #12
 841 000c 214D     		ldr	r5, .L70+4
 842 000e 0FCD     		ldmia	r5!, {r0, r1, r2, r3}
 843 0010 0FC4     		stmia	r4!, {r0, r1, r2, r3}
 844 0012 0FCD     		ldmia	r5!, {r0, r1, r2, r3}
 845 0014 0FC4     		stmia	r4!, {r0, r1, r2, r3}
 846 0016 2B68     		ldr	r3, [r5]
 847 0018 2360     		str	r3, [r4]
 848              	.LVL69:
 849              	.LBE102:
 850              	.LBE101:
 454:source\asw/swc_clock.c ****     
 455:source\asw/swc_clock.c ****     //Get a local copy of the clock signal
 456:source\asw/swc_clock.c ****     SC_CLOCK_data_t clock = RTE_SC_CLOCK_get(&SO_CLOCK_signal);
 457:source\asw/swc_clock.c ****     
 458:source\asw/swc_clock.c ****     //Check for the active widget and set it to edit mode, reset the other widget to display mode
 459:source\asw/swc_clock.c ****     if(CLOCK_HOURSWIDGET == clock.m_activeWidget)
 851              		.loc 1 459 0
 852 001a 9DF81430 		ldrb	r3, [sp, #20]	@ zero_extendqisi2
 853 001e CBB9     		cbnz	r3, .L67
 460:source\asw/swc_clock.c ****     {
 461:source\asw/swc_clock.c ****         //Setting the hour widget to edit mode
 462:source\asw/swc_clock.c ****         TFT_setCursor(TFT_HOUR_X_COORDINATE, TFT_WIDGET_Y_COORDINATE);
 854              		.loc 1 462 0
 855 0020 4921     		movs	r1, #73
 856 0022 1820     		movs	r0, #24
ARM GAS  C:\Users\aditi\AppData\Local\Temp\ccxJli9U.s 			page 31


 857 0024 FFF7FEFF 		bl	TFT_setCursor
 858              	.LVL70:
 463:source\asw/swc_clock.c ****         TFT_fillRect(TFT_HOUR_X_COORDINATE, TFT_WIDGET_Y_COORDINATE, TFT_EDITMODE_WIDTH, TFT_EDITMO
 859              		.loc 1 463 0
 860 0028 4FF6FF73 		movw	r3, #65535
 861 002c 0093     		str	r3, [sp]
 862 002e 1B23     		movs	r3, #27
 863 0030 2422     		movs	r2, #36
 864 0032 4921     		movs	r1, #73
 865 0034 1820     		movs	r0, #24
 866 0036 FFF7FEFF 		bl	TFT_fillRect
 867              	.LVL71:
 464:source\asw/swc_clock.c ****         
 465:source\asw/swc_clock.c ****         //Resetting the minute widget to display mode
 466:source\asw/swc_clock.c ****         TFT_setCursor(TFT_MINUTE_X_COORDINATE, TFT_WIDGET_Y_COORDINATE);
 868              		.loc 1 466 0
 869 003a 4921     		movs	r1, #73
 870 003c 4420     		movs	r0, #68
 871 003e FFF7FEFF 		bl	TFT_setCursor
 872              	.LVL72:
 467:source\asw/swc_clock.c ****         TFT_fillRect(TFT_MINUTE_X_COORDINATE, TFT_WIDGET_Y_COORDINATE, 36, 27, BLACK);
 873              		.loc 1 467 0
 874 0042 0023     		movs	r3, #0
 875 0044 0093     		str	r3, [sp]
 876 0046 1B23     		movs	r3, #27
 877 0048 2422     		movs	r2, #36
 878 004a 4921     		movs	r1, #73
 879 004c 4420     		movs	r0, #68
 880 004e FFF7FEFF 		bl	TFT_fillRect
 881              	.LVL73:
 882 0052 1AE0     		b	.L66
 883              	.L67:
 468:source\asw/swc_clock.c ****     }
 469:source\asw/swc_clock.c ****     else if(CLOCK_MINUTESWIDGET == clock.m_activeWidget)
 884              		.loc 1 469 0
 885 0054 012B     		cmp	r3, #1
 886 0056 18D1     		bne	.L66
 470:source\asw/swc_clock.c ****     {
 471:source\asw/swc_clock.c ****         //Resetting the hour widget to display mode
 472:source\asw/swc_clock.c ****         TFT_setCursor(TFT_HOUR_X_COORDINATE, TFT_WIDGET_Y_COORDINATE);
 887              		.loc 1 472 0
 888 0058 4921     		movs	r1, #73
 889 005a 1820     		movs	r0, #24
 890 005c FFF7FEFF 		bl	TFT_setCursor
 891              	.LVL74:
 473:source\asw/swc_clock.c ****         TFT_fillRect(TFT_HOUR_X_COORDINATE, TFT_WIDGET_Y_COORDINATE, TFT_EDITMODE_WIDTH, TFT_EDITMO
 892              		.loc 1 473 0
 893 0060 0023     		movs	r3, #0
 894 0062 0093     		str	r3, [sp]
 895 0064 1B23     		movs	r3, #27
 896 0066 2422     		movs	r2, #36
 897 0068 4921     		movs	r1, #73
 898 006a 1820     		movs	r0, #24
 899 006c FFF7FEFF 		bl	TFT_fillRect
 900              	.LVL75:
 474:source\asw/swc_clock.c ****         
 475:source\asw/swc_clock.c ****         //Setting the minute widget to edit mode
ARM GAS  C:\Users\aditi\AppData\Local\Temp\ccxJli9U.s 			page 32


 476:source\asw/swc_clock.c ****         TFT_setCursor(TFT_MINUTE_X_COORDINATE, TFT_WIDGET_Y_COORDINATE);
 901              		.loc 1 476 0
 902 0070 4921     		movs	r1, #73
 903 0072 4420     		movs	r0, #68
 904 0074 FFF7FEFF 		bl	TFT_setCursor
 905              	.LVL76:
 477:source\asw/swc_clock.c ****         TFT_fillRect(TFT_MINUTE_X_COORDINATE, TFT_WIDGET_Y_COORDINATE, TFT_EDITMODE_WIDTH, TFT_EDIT
 906              		.loc 1 477 0
 907 0078 4FF6FF73 		movw	r3, #65535
 908 007c 0093     		str	r3, [sp]
 909 007e 1B23     		movs	r3, #27
 910 0080 2422     		movs	r2, #36
 911 0082 4921     		movs	r1, #73
 912 0084 4420     		movs	r0, #68
 913 0086 FFF7FEFF 		bl	TFT_fillRect
 914              	.LVL77:
 915              	.L66:
 478:source\asw/swc_clock.c ****     }
 479:source\asw/swc_clock.c ****     else {/*do nothing*/}
 480:source\asw/swc_clock.c **** }
 916              		.loc 1 480 0
 917 008a 0DB0     		add	sp, sp, #52
 918              		.cfi_def_cfa_offset 12
 919              		@ sp needed
 920 008c 30BD     		pop	{r4, r5, pc}
 921              	.L71:
 922 008e 00BF     		.align	2
 923              	.L70:
 924 0090 D4010000 		.word	.LC12
 925 0094 00000000 		.word	SO_CLOCK_signal
 926              		.cfi_endproc
 927              	.LFE155:
 928              		.size	CLOCK__setEditFonts, .-CLOCK__setEditFonts
 929              		.section	.text.CLOCK__setDisplayFonts,"ax",%progbits
 930              		.align	2
 931              		.thumb
 932              		.thumb_func
 933              		.type	CLOCK__setDisplayFonts, %function
 934              	CLOCK__setDisplayFonts:
 935              	.LFB157:
 481:source\asw/swc_clock.c **** 
 482:source\asw/swc_clock.c **** static void CLOCK__incrementWidget()
 483:source\asw/swc_clock.c **** {
 484:source\asw/swc_clock.c ****     UART_LOG_PutString("In CLOCK__incrementWidget function\n"); 
 485:source\asw/swc_clock.c ****     
 486:source\asw/swc_clock.c ****     //Get local copy of clock signal
 487:source\asw/swc_clock.c ****     SC_CLOCK_data_t clockData = RTE_SC_CLOCK_get(&SO_CLOCK_signal);
 488:source\asw/swc_clock.c ****     
 489:source\asw/swc_clock.c ****     //Check the active widget
 490:source\asw/swc_clock.c ****     if(CLOCK_HOURSWIDGET == clockData.m_activeWidget)
 491:source\asw/swc_clock.c ****     {
 492:source\asw/swc_clock.c ****         //Increment by 1 when hour value less than max, else reset to zero
 493:source\asw/swc_clock.c ****         if (clockData.m_hours.m_value < HOURFORMAT_24_MAX)
 494:source\asw/swc_clock.c ****         {
 495:source\asw/swc_clock.c ****             clockData.m_hours.m_value += 1;
 496:source\asw/swc_clock.c ****             UART_LOG_PutString("Hour value: ");
 497:source\asw/swc_clock.c ****             UART_LOG_PutChar(clockData.m_hours.m_value);
ARM GAS  C:\Users\aditi\AppData\Local\Temp\ccxJli9U.s 			page 33


 498:source\asw/swc_clock.c ****         }
 499:source\asw/swc_clock.c ****         else
 500:source\asw/swc_clock.c ****         {
 501:source\asw/swc_clock.c ****             clockData.m_hours.m_value = 0;
 502:source\asw/swc_clock.c ****         }
 503:source\asw/swc_clock.c ****     }
 504:source\asw/swc_clock.c ****     else if(CLOCK_MINUTESWIDGET == clockData.m_activeWidget)
 505:source\asw/swc_clock.c ****     {
 506:source\asw/swc_clock.c ****         //Increment by 1 when minute value less than maximum value, else reset to zero
 507:source\asw/swc_clock.c ****         if (clockData.m_minutes.m_value < MINUTES_MAX)
 508:source\asw/swc_clock.c ****         {
 509:source\asw/swc_clock.c ****             clockData.m_minutes.m_value += 1;
 510:source\asw/swc_clock.c ****             UART_LOG_PutString("Minute value: ");
 511:source\asw/swc_clock.c ****             UART_LOG_PutChar(clockData.m_minutes.m_value);
 512:source\asw/swc_clock.c ****         }
 513:source\asw/swc_clock.c ****         else
 514:source\asw/swc_clock.c ****         {
 515:source\asw/swc_clock.c ****             clockData.m_minutes.m_value = 0;
 516:source\asw/swc_clock.c ****         }
 517:source\asw/swc_clock.c ****     }  
 518:source\asw/swc_clock.c ****     
 519:source\asw/swc_clock.c ****     //Set the clock signal object 
 520:source\asw/swc_clock.c ****     RTE_SC_CLOCK_set(&SO_CLOCK_signal, clockData);  
 521:source\asw/swc_clock.c **** }
 522:source\asw/swc_clock.c **** 
 523:source\asw/swc_clock.c **** static void CLOCK__setDisplayFonts()
 524:source\asw/swc_clock.c **** {
 936              		.loc 1 524 0
 937              		.cfi_startproc
 938              		@ args = 0, pretend = 0, frame = 0
 939              		@ frame_needed = 0, uses_anonymous_args = 0
 940 0000 10B5     		push	{r4, lr}
 941              		.cfi_def_cfa_offset 8
 942              		.cfi_offset 4, -8
 943              		.cfi_offset 14, -4
 944 0002 82B0     		sub	sp, sp, #8
 945              		.cfi_def_cfa_offset 16
 525:source\asw/swc_clock.c ****     UART_LOG_PutString("In CLOCK__setDisplayFonts function\n"); 
 946              		.loc 1 525 0
 947 0004 0D48     		ldr	r0, .L74
 948 0006 FFF7FEFF 		bl	UART_LOG_PutString
 949              	.LVL78:
 526:source\asw/swc_clock.c ****     //Set hour widget to normal display mode
 527:source\asw/swc_clock.c ****     TFT_setCursor(24, 73);
 950              		.loc 1 527 0
 951 000a 4921     		movs	r1, #73
 952 000c 1820     		movs	r0, #24
 953 000e FFF7FEFF 		bl	TFT_setCursor
 954              	.LVL79:
 528:source\asw/swc_clock.c ****     TFT_fillRect(24, 73, 36, 27, BLACK);
 955              		.loc 1 528 0
 956 0012 0024     		movs	r4, #0
 957 0014 0094     		str	r4, [sp]
 958 0016 1B23     		movs	r3, #27
 959 0018 2422     		movs	r2, #36
 960 001a 4921     		movs	r1, #73
 961 001c 1820     		movs	r0, #24
ARM GAS  C:\Users\aditi\AppData\Local\Temp\ccxJli9U.s 			page 34


 962 001e FFF7FEFF 		bl	TFT_fillRect
 963              	.LVL80:
 529:source\asw/swc_clock.c ****     
 530:source\asw/swc_clock.c ****     //Set minute widget to normal display mode
 531:source\asw/swc_clock.c ****     TFT_setCursor(68, 73);
 964              		.loc 1 531 0
 965 0022 4921     		movs	r1, #73
 966 0024 4420     		movs	r0, #68
 967 0026 FFF7FEFF 		bl	TFT_setCursor
 968              	.LVL81:
 532:source\asw/swc_clock.c ****     TFT_fillRect(68, 73, 36, 27, BLACK);
 969              		.loc 1 532 0
 970 002a 0094     		str	r4, [sp]
 971 002c 1B23     		movs	r3, #27
 972 002e 2422     		movs	r2, #36
 973 0030 4921     		movs	r1, #73
 974 0032 4420     		movs	r0, #68
 975 0034 FFF7FEFF 		bl	TFT_fillRect
 976              	.LVL82:
 533:source\asw/swc_clock.c ****     
 534:source\asw/swc_clock.c **** }
 977              		.loc 1 534 0
 978 0038 02B0     		add	sp, sp, #8
 979              		.cfi_def_cfa_offset 8
 980              		@ sp needed
 981 003a 10BD     		pop	{r4, pc}
 982              	.L75:
 983              		.align	2
 984              	.L74:
 985 003c F8010000 		.word	.LC13
 986              		.cfi_endproc
 987              	.LFE157:
 988              		.size	CLOCK__setDisplayFonts, .-CLOCK__setDisplayFonts
 989              		.section	.text.CLOCK__incrementWidget,"ax",%progbits
 990              		.align	2
 991              		.thumb
 992              		.thumb_func
 993              		.type	CLOCK__incrementWidget, %function
 994              	CLOCK__incrementWidget:
 995              	.LFB156:
 483:source\asw/swc_clock.c ****     UART_LOG_PutString("In CLOCK__incrementWidget function\n"); 
 996              		.loc 1 483 0
 997              		.cfi_startproc
 998              		@ args = 0, pretend = 0, frame = 72
 999              		@ frame_needed = 0, uses_anonymous_args = 0
 1000 0000 F0B5     		push	{r4, r5, r6, r7, lr}
 1001              		.cfi_def_cfa_offset 20
 1002              		.cfi_offset 4, -20
 1003              		.cfi_offset 5, -16
 1004              		.cfi_offset 6, -12
 1005              		.cfi_offset 7, -8
 1006              		.cfi_offset 14, -4
 1007 0002 93B0     		sub	sp, sp, #76
 1008              		.cfi_def_cfa_offset 96
 484:source\asw/swc_clock.c ****     
 1009              		.loc 1 484 0
 1010 0004 3048     		ldr	r0, .L86
ARM GAS  C:\Users\aditi\AppData\Local\Temp\ccxJli9U.s 			page 35


 1011 0006 FFF7FEFF 		bl	UART_LOG_PutString
 1012              	.LVL83:
 1013              	.LBB103:
 1014              	.LBB104:
 265:.\source\rte/sc_clock.h **** }                                                                                                  
 1015              		.loc 2 265 0
 1016 000a 09AC     		add	r4, sp, #36
 1017 000c 2F4D     		ldr	r5, .L86+4
 1018 000e 0FCD     		ldmia	r5!, {r0, r1, r2, r3}
 1019 0010 0FC4     		stmia	r4!, {r0, r1, r2, r3}
 1020 0012 0FCD     		ldmia	r5!, {r0, r1, r2, r3}
 1021 0014 0FC4     		stmia	r4!, {r0, r1, r2, r3}
 1022 0016 2B68     		ldr	r3, [r5]
 1023 0018 2360     		str	r3, [r4]
 1024              	.LVL84:
 1025              	.LBE104:
 1026              	.LBE103:
 490:source\asw/swc_clock.c ****     {
 1027              		.loc 1 490 0
 1028 001a 9DF82C30 		ldrb	r3, [sp, #44]	@ zero_extendqisi2
 1029 001e 93B9     		cbnz	r3, .L77
 493:source\asw/swc_clock.c ****         {
 1030              		.loc 1 493 0
 1031 0020 9DF83830 		ldrb	r3, [sp, #56]	@ zero_extendqisi2
 1032 0024 172B     		cmp	r3, #23
 1033 0026 0AD8     		bhi	.L78
 495:source\asw/swc_clock.c ****             UART_LOG_PutString("Hour value: ");
 1034              		.loc 1 495 0
 1035 0028 0133     		adds	r3, r3, #1
 1036 002a DCB2     		uxtb	r4, r3
 1037 002c 8DF83840 		strb	r4, [sp, #56]
 496:source\asw/swc_clock.c ****             UART_LOG_PutChar(clockData.m_hours.m_value);
 1038              		.loc 1 496 0
 1039 0030 2748     		ldr	r0, .L86+8
 1040 0032 FFF7FEFF 		bl	UART_LOG_PutString
 1041              	.LVL85:
 497:source\asw/swc_clock.c ****         }
 1042              		.loc 1 497 0
 1043 0036 2046     		mov	r0, r4
 1044 0038 FFF7FEFF 		bl	UART_LOG_PutChar
 1045              	.LVL86:
 1046 003c 17E0     		b	.L79
 1047              	.L78:
 501:source\asw/swc_clock.c ****         }
 1048              		.loc 1 501 0
 1049 003e 0023     		movs	r3, #0
 1050 0040 8DF83830 		strb	r3, [sp, #56]
 1051 0044 13E0     		b	.L79
 1052              	.L77:
 504:source\asw/swc_clock.c ****     {
 1053              		.loc 1 504 0
 1054 0046 012B     		cmp	r3, #1
 1055 0048 11D1     		bne	.L79
 507:source\asw/swc_clock.c ****         {
 1056              		.loc 1 507 0
 1057 004a 9DF84430 		ldrb	r3, [sp, #68]	@ zero_extendqisi2
 1058 004e 3B2B     		cmp	r3, #59
ARM GAS  C:\Users\aditi\AppData\Local\Temp\ccxJli9U.s 			page 36


 1059 0050 0AD8     		bhi	.L80
 509:source\asw/swc_clock.c ****             UART_LOG_PutString("Minute value: ");
 1060              		.loc 1 509 0
 1061 0052 0133     		adds	r3, r3, #1
 1062 0054 DCB2     		uxtb	r4, r3
 1063 0056 8DF84440 		strb	r4, [sp, #68]
 510:source\asw/swc_clock.c ****             UART_LOG_PutChar(clockData.m_minutes.m_value);
 1064              		.loc 1 510 0
 1065 005a 1E48     		ldr	r0, .L86+12
 1066 005c FFF7FEFF 		bl	UART_LOG_PutString
 1067              	.LVL87:
 511:source\asw/swc_clock.c ****         }
 1068              		.loc 1 511 0
 1069 0060 2046     		mov	r0, r4
 1070 0062 FFF7FEFF 		bl	UART_LOG_PutChar
 1071              	.LVL88:
 1072 0066 02E0     		b	.L79
 1073              	.L80:
 515:source\asw/swc_clock.c ****         }
 1074              		.loc 1 515 0
 1075 0068 0023     		movs	r3, #0
 1076 006a 8DF84430 		strb	r3, [sp, #68]
 1077              	.L79:
 1078              	.LVL89:
 1079 006e 6C46     		mov	r4, sp
 1080 0070 09AD     		add	r5, sp, #36
 1081 0072 0FCD     		ldmia	r5!, {r0, r1, r2, r3}
 1082 0074 0FC4     		stmia	r4!, {r0, r1, r2, r3}
 1083 0076 0FCD     		ldmia	r5!, {r0, r1, r2, r3}
 1084 0078 0FC4     		stmia	r4!, {r0, r1, r2, r3}
 1085 007a D5F800E0 		ldr	lr, [r5]
 1086 007e C4F800E0 		str	lr, [r4]
 1087              	.LVL90:
 1088              	.LBB105:
 1089              	.LBB106:
 304:.\source\rte/sc_clock.h ****    signal->value  = value;
 1090              		.loc 2 304 0
 1091 0082 124E     		ldr	r6, .L86+4
 1092 0084 F76A     		ldr	r7, [r6, #44]
 305:.\source\rte/sc_clock.h ****    signal->age    = 0;
 1093              		.loc 2 305 0
 1094 0086 3446     		mov	r4, r6
 1095 0088 6D46     		mov	r5, sp
 1096 008a 0FCD     		ldmia	r5!, {r0, r1, r2, r3}
 1097 008c 0FC4     		stmia	r4!, {r0, r1, r2, r3}
 1098 008e 0FCD     		ldmia	r5!, {r0, r1, r2, r3}
 1099 0090 0FC4     		stmia	r4!, {r0, r1, r2, r3}
 1100 0092 C4F800E0 		str	lr, [r4]
 306:.\source\rte/sc_clock.h ****    signal->status = RTE_SIGNALSTATUS_VALID;
 1101              		.loc 2 306 0
 1102 0096 0023     		movs	r3, #0
 1103 0098 B362     		str	r3, [r6, #40]
 307:.\source\rte/sc_clock.h ****    if (TRUE == signal->pSigCfg->resourceActive) ReleaseResource(signal->pSigCfg->resource);
 1104              		.loc 2 307 0
 1105 009a 0223     		movs	r3, #2
 1106 009c 86F82430 		strb	r3, [r6, #36]
 311:.\source\rte/sc_clock.h **** 
ARM GAS  C:\Users\aditi\AppData\Local\Temp\ccxJli9U.s 			page 37


 1107              		.loc 2 311 0
 1108 00a0 7D69     		ldr	r5, [r7, #20]
 1109              	.LVL91:
 313:.\source\rte/sc_clock.h ****       for( taskNum=0 ; taskNum < signal->pSigCfg->onUpdateTaskCount ;taskNum++){
 1110              		.loc 2 313 0
 1111 00a2 BB68     		ldr	r3, [r7, #8]
 1112 00a4 73B1     		cbz	r3, .L76
 1113 00a6 3DB9     		cbnz	r5, .L84
 1114 00a8 0CE0     		b	.L76
 1115              	.LVL92:
 1116              	.L83:
 1117              	.LBB107:
 1118              		.loc 2 317 0
 1119 00aa 9968     		ldr	r1, [r3, #8]
 1120 00ac 55F82400 		ldr	r0, [r5, r4, lsl #2]
 1121 00b0 FFF7FEFF 		bl	EE_oo_SetEvent
 1122              	.LVL93:
 1123              	.LBE107:
 314:.\source\rte/sc_clock.h **** 		  
 1124              		.loc 2 314 0
 1125 00b4 0134     		adds	r4, r4, #1
 1126              	.LVL94:
 1127 00b6 00E0     		b	.L82
 1128              	.LVL95:
 1129              	.L84:
 313:.\source\rte/sc_clock.h ****       for( taskNum=0 ; taskNum < signal->pSigCfg->onUpdateTaskCount ;taskNum++){
 1130              		.loc 2 313 0
 1131 00b8 0024     		movs	r4, #0
 1132              	.LVL96:
 1133              	.L82:
 314:.\source\rte/sc_clock.h **** 		  
 1134              		.loc 2 314 0
 1135 00ba 044B     		ldr	r3, .L86+4
 1136 00bc DB6A     		ldr	r3, [r3, #44]
 1137 00be 1A69     		ldr	r2, [r3, #16]
 1138 00c0 9442     		cmp	r4, r2
 1139 00c2 F2D3     		bcc	.L83
 1140              	.LVL97:
 1141              	.L76:
 1142              	.LBE106:
 1143              	.LBE105:
 521:source\asw/swc_clock.c **** 
 1144              		.loc 1 521 0
 1145 00c4 13B0     		add	sp, sp, #76
 1146              		.cfi_def_cfa_offset 20
 1147              		@ sp needed
 1148 00c6 F0BD     		pop	{r4, r5, r6, r7, pc}
 1149              	.LVL98:
 1150              	.L87:
 1151              		.align	2
 1152              	.L86:
 1153 00c8 1C020000 		.word	.LC14
 1154 00cc 00000000 		.word	SO_CLOCK_signal
 1155 00d0 40020000 		.word	.LC15
 1156 00d4 50020000 		.word	.LC16
 1157              		.cfi_endproc
 1158              	.LFE156:
ARM GAS  C:\Users\aditi\AppData\Local\Temp\ccxJli9U.s 			page 38


 1159              		.size	CLOCK__incrementWidget, .-CLOCK__incrementWidget
 1160              		.section	.text.CLOCK_input_run,"ax",%progbits
 1161              		.align	2
 1162              		.global	CLOCK_input_run
 1163              		.thumb
 1164              		.thumb_func
 1165              		.type	CLOCK_input_run, %function
 1166              	CLOCK_input_run:
 1167              	.LFB141:
 187:source\asw/swc_clock.c **** 	
 1168              		.loc 1 187 0
 1169              		.cfi_startproc
 1170              		@ args = 0, pretend = 0, frame = 0
 1171              		@ frame_needed = 0, uses_anonymous_args = 0
 1172              	.LVL99:
 1173 0000 38B5     		push	{r3, r4, r5, lr}
 1174              		.cfi_def_cfa_offset 16
 1175              		.cfi_offset 3, -16
 1176              		.cfi_offset 4, -12
 1177              		.cfi_offset 5, -8
 1178              		.cfi_offset 14, -4
 195:source\asw/swc_clock.c ****     /** The current input runnable is being called every 50ms.
 1179              		.loc 1 195 0
 1180 0002 444A     		ldr	r2, .L102
 1181 0004 1388     		ldrh	r3, [r2]
 1182 0006 0133     		adds	r3, r3, #1
 1183 0008 9BB2     		uxth	r3, r3
 1184 000a 1380     		strh	r3, [r2]	@ movhi
 200:source\asw/swc_clock.c ****     {
 1185              		.loc 1 200 0
 1186 000c 424A     		ldr	r2, .L102+4
 1187 000e A2FB0312 		umull	r1, r2, r2, r3
 1188 0012 9208     		lsrs	r2, r2, #2
 1189 0014 02EB8202 		add	r2, r2, r2, lsl #2
 1190 0018 9B1A     		subs	r3, r3, r2
 1191 001a 9BB2     		uxth	r3, r3
 1192 001c CBB9     		cbnz	r3, .L89
 1193              	.LVL100:
 1194              	.LBB108:
 1195              	.LBB109:
 1196              		.file 3 ".\\source\\rte/sc_event.h"
   1:.\source\rte/sc_event.h **** 
   2:.\source\rte/sc_event.h **** 
   3:.\source\rte/sc_event.h **** /**
   4:.\source\rte/sc_event.h **** *  file    SC_EVENT_signal.h
   5:.\source\rte/sc_event.h **** *
   6:.\source\rte/sc_event.h **** *  brief   signal base class for signal sc_event
   7:.\source\rte/sc_event.h **** *
   8:.\source\rte/sc_event.h **** *  author  Autogenerated, Peter Fromm       <peter.fromm@h-da.de>
   9:.\source\rte/sc_event.h **** *
  10:.\source\rte/sc_event.h **** *
  11:.\source\rte/sc_event.h **** */
  12:.\source\rte/sc_event.h **** 
  13:.\source\rte/sc_event.h **** /*
  14:.\source\rte/sc_event.h **** * description: Events representation data type
  15:.\source\rte/sc_event.h **** * name: sc_event
  16:.\source\rte/sc_event.h **** * shortname: event
ARM GAS  C:\Users\aditi\AppData\Local\Temp\ccxJli9U.s 			page 39


  17:.\source\rte/sc_event.h **** */
  18:.\source\rte/sc_event.h **** 
  19:.\source\rte/sc_event.h **** #ifndef SC_EVENT_SIGNAL_H_INCLUDED
  20:.\source\rte/sc_event.h **** #define SC_EVENT_SIGNAL_H_INCLUDED
  21:.\source\rte/sc_event.h **** 
  22:.\source\rte/sc_event.h **** /*================================================[ public includes  ]=============================
  23:.\source\rte/sc_event.h **** #include "global.h"
  24:.\source\rte/sc_event.h **** #include "project.h"
  25:.\source\rte/sc_event.h **** #include "rte.h"
  26:.\source\rte/sc_event.h **** #include "rte_types.h"
  27:.\source\rte/sc_event.h **** 
  28:.\source\rte/sc_event.h **** #include "sc_event_type.h"
  29:.\source\rte/sc_event.h **** 
  30:.\source\rte/sc_event.h **** 
  31:.\source\rte/sc_event.h **** /**************************************************************************************************
  32:.\source\rte/sc_event.h **** /* The driver API block																						*/
  33:.\source\rte/sc_event.h **** /**************************************************************************************************
  34:.\source\rte/sc_event.h ****                                                                                                    
  35:.\source\rte/sc_event.h **** /**
  36:.\source\rte/sc_event.h ****  *  Definition of function types for driver interfaces.
  37:.\source\rte/sc_event.h ****  *  I-Port
  38:.\source\rte/sc_event.h ****  */
  39:.\source\rte/sc_event.h **** typedef RC_t (*SC_EVENT_driverIn_t)(SC_EVENT_data_t * const);
  40:.\source\rte/sc_event.h **** 
  41:.\source\rte/sc_event.h **** /**
  42:.\source\rte/sc_event.h ****  *  Definition of function types for driver interfaces.
  43:.\source\rte/sc_event.h ****  *  O-Port
  44:.\source\rte/sc_event.h ****  */
  45:.\source\rte/sc_event.h **** typedef RC_t (*SC_EVENT_driverOut_t)( const SC_EVENT_data_t * const);
  46:.\source\rte/sc_event.h **** 
  47:.\source\rte/sc_event.h **** 
  48:.\source\rte/sc_event.h **** /**************************************************************************************************
  49:.\source\rte/sc_event.h **** /* The signal configuration API block																				*/
  50:.\source\rte/sc_event.h **** /**************************************************************************************************
  51:.\source\rte/sc_event.h **** 
  52:.\source\rte/sc_event.h **** /**
  53:.\source\rte/sc_event.h ****  * Instances of the struct SC_EVENT_cfg_t represent the signal object configuration.
  54:.\source\rte/sc_event.h ****  */
  55:.\source\rte/sc_event.h **** struct SC_EVENT_cfg_s
  56:.\source\rte/sc_event.h **** {
  57:.\source\rte/sc_event.h ****     /**
  58:.\source\rte/sc_event.h ****      * Function pointer to the input driver
  59:.\source\rte/sc_event.h ****      */
  60:.\source\rte/sc_event.h ****     SC_EVENT_driverIn_t const inDriver;
  61:.\source\rte/sc_event.h **** 
  62:.\source\rte/sc_event.h ****     /**
  63:.\source\rte/sc_event.h ****      * Function pointer to the output driver table
  64:.\source\rte/sc_event.h ****      */
  65:.\source\rte/sc_event.h ****    SC_EVENT_driverOut_t const outDriver;
  66:.\source\rte/sc_event.h ****    
  67:.\source\rte/sc_event.h ****     /**
  68:.\source\rte/sc_event.h ****      * Event onUpdate
  69:.\source\rte/sc_event.h ****      */
  70:.\source\rte/sc_event.h ****     EventMaskType const evOnUpdate;
  71:.\source\rte/sc_event.h ****     
  72:.\source\rte/sc_event.h ****     
  73:.\source\rte/sc_event.h ****     /**
ARM GAS  C:\Users\aditi\AppData\Local\Temp\ccxJli9U.s 			page 40


  74:.\source\rte/sc_event.h ****      * Event onError
  75:.\source\rte/sc_event.h ****      */
  76:.\source\rte/sc_event.h ****     EventMaskType const evOnError;
  77:.\source\rte/sc_event.h ****     
  78:.\source\rte/sc_event.h ****     /**
  79:.\source\rte/sc_event.h ****      * Task Count onUpdate
  80:.\source\rte/sc_event.h ****      */
  81:.\source\rte/sc_event.h ****     size_t const onUpdateTaskCount;
  82:.\source\rte/sc_event.h **** 
  83:.\source\rte/sc_event.h ****     /**
  84:.\source\rte/sc_event.h ****      * Task List onUpdate
  85:.\source\rte/sc_event.h ****      */
  86:.\source\rte/sc_event.h ****     TaskTypeArray* const onUpdateTasks;
  87:.\source\rte/sc_event.h ****     
  88:.\source\rte/sc_event.h ****     /**
  89:.\source\rte/sc_event.h ****      * Task Count onError
  90:.\source\rte/sc_event.h ****      */
  91:.\source\rte/sc_event.h ****     size_t const onErrorTaskCount;
  92:.\source\rte/sc_event.h **** 
  93:.\source\rte/sc_event.h ****     /**
  94:.\source\rte/sc_event.h ****      * Task List onError
  95:.\source\rte/sc_event.h ****      */
  96:.\source\rte/sc_event.h ****     TaskTypeArray* const onErrorTasks;
  97:.\source\rte/sc_event.h **** 	
  98:.\source\rte/sc_event.h **** 	
  99:.\source\rte/sc_event.h **** 	/**
 100:.\source\rte/sc_event.h **** 	 * Ressourse is active? We need an additional boolean as a ressource value 0 is valid.
 101:.\source\rte/sc_event.h **** 	 */
 102:.\source\rte/sc_event.h **** 	 boolean_t const resourceActive;
 103:.\source\rte/sc_event.h **** 	 
 104:.\source\rte/sc_event.h **** 	/**
 105:.\source\rte/sc_event.h **** 	 * Ressourse 
 106:.\source\rte/sc_event.h **** 	 */
 107:.\source\rte/sc_event.h **** 	 ResourceType const resource;
 108:.\source\rte/sc_event.h **** 
 109:.\source\rte/sc_event.h **** };                                                                                                 
 110:.\source\rte/sc_event.h **** typedef const struct SC_EVENT_cfg_s SC_EVENT_cfg_t;
 111:.\source\rte/sc_event.h ****                               
 112:.\source\rte/sc_event.h **** /**************************************************************************************************
 113:.\source\rte/sc_event.h **** /* The data interface block																							*/
 114:.\source\rte/sc_event.h **** /**************************************************************************************************
 115:.\source\rte/sc_event.h **** 
 116:.\source\rte/sc_event.h ****                                                                                                    
 117:.\source\rte/sc_event.h **** 							  
 118:.\source\rte/sc_event.h **** /**
 119:.\source\rte/sc_event.h ****  * Instances of the struct SC_EVENT_t represent the signal objects.
 120:.\source\rte/sc_event.h ****  * A signal object contains the current application value 'value' as well as relevant meta data.
 121:.\source\rte/sc_event.h ****  */
 122:.\source\rte/sc_event.h **** struct SC_EVENT_s
 123:.\source\rte/sc_event.h **** {                                                                                                  
 124:.\source\rte/sc_event.h **** 
 125:.\source\rte/sc_event.h **** 	/**
 126:.\source\rte/sc_event.h **** 	 * Data buffer for the application value
 127:.\source\rte/sc_event.h **** 	 */
 128:.\source\rte/sc_event.h ****     SC_EVENT_data_t value;
 129:.\source\rte/sc_event.h **** 
 130:.\source\rte/sc_event.h ****     /**
ARM GAS  C:\Users\aditi\AppData\Local\Temp\ccxJli9U.s 			page 41


 131:.\source\rte/sc_event.h ****      * Current signal status
 132:.\source\rte/sc_event.h ****      */
 133:.\source\rte/sc_event.h ****     RTE_signalStatus_t status;
 134:.\source\rte/sc_event.h **** 
 135:.\source\rte/sc_event.h ****     /**
 136:.\source\rte/sc_event.h ****      * Current age of the signal (in calling cycles)
 137:.\source\rte/sc_event.h ****      */
 138:.\source\rte/sc_event.h ****     uint32_t age;
 139:.\source\rte/sc_event.h **** 
 140:.\source\rte/sc_event.h ****     /**
 141:.\source\rte/sc_event.h ****      * Pointer to the signal configuration
 142:.\source\rte/sc_event.h ****      */
 143:.\source\rte/sc_event.h **** 	const SC_EVENT_cfg_t * const    pSigCfg;
 144:.\source\rte/sc_event.h **** 
 145:.\source\rte/sc_event.h **** };                                                                                                 
 146:.\source\rte/sc_event.h **** typedef struct SC_EVENT_s SC_EVENT_t;
 147:.\source\rte/sc_event.h **** 
 148:.\source\rte/sc_event.h **** /**************************************************************************************************
 149:.\source\rte/sc_event.h **** /* Signal initialisation   																							*/
 150:.\source\rte/sc_event.h **** /**************************************************************************************************
 151:.\source\rte/sc_event.h **** 
 152:.\source\rte/sc_event.h **** /**
 153:.\source\rte/sc_event.h ****  * Initializes a signal instance with a passed init value.
 154:.\source\rte/sc_event.h ****  * Depending on the configured conversion or scaling function the raw_value will be calculated.
 155:.\source\rte/sc_event.h ****  * Signal status will change from RTE_SIGNALSTATUS_STARTUP to RTE_SIGNALSTATUS_INITIALIZED.
 156:.\source\rte/sc_event.h ****  *
 157:.\source\rte/sc_event.h ****  * @param  SC_EVENT_t * const signal: Pointer to the signal object which will be initialised
 158:.\source\rte/sc_event.h ****  * @param const sc_event_data_t * const value: Pointer to initial value of the application data
 159:.\source\rte/sc_event.h ****  * @return RC_t: standard return code, currently only RC_SUCCESS
 160:.\source\rte/sc_event.h ****  *
 161:.\source\rte/sc_event.h ****  **/
 162:.\source\rte/sc_event.h **** inline RC_t RTE_SC_EVENT_init( SC_EVENT_t * const signal, const SC_EVENT_data_t * const value )
 163:.\source\rte/sc_event.h **** {                                                                                                  
 164:.\source\rte/sc_event.h **** 
 165:.\source\rte/sc_event.h ****    RC_t ret = RC_SUCCESS;
 166:.\source\rte/sc_event.h **** 
 167:.\source\rte/sc_event.h ****    //Set value and raw value
 168:.\source\rte/sc_event.h ****    signal->value  = *value;
 169:.\source\rte/sc_event.h ****    signal->age    = 0;
 170:.\source\rte/sc_event.h ****    signal->status = RTE_SIGNALSTATUS_INITIALIZED;
 171:.\source\rte/sc_event.h **** 
 172:.\source\rte/sc_event.h ****    return ret;
 173:.\source\rte/sc_event.h **** }
 174:.\source\rte/sc_event.h **** 
 175:.\source\rte/sc_event.h **** /**************************************************************************************************
 176:.\source\rte/sc_event.h **** /* Status and timeout control																						*/
 177:.\source\rte/sc_event.h **** /**************************************************************************************************
 178:.\source\rte/sc_event.h **** 
 179:.\source\rte/sc_event.h **** /**
 180:.\source\rte/sc_event.h ****  *  Returns the current signal status of the passed signal instance.
 181:.\source\rte/sc_event.h ****  *
 182:.\source\rte/sc_event.h ****  * @param  SC_EVENT_t * const signal: Pointer to the signal object
 183:.\source\rte/sc_event.h ****  * @return  sig_status_t: The current signal status
 184:.\source\rte/sc_event.h ****  *
 185:.\source\rte/sc_event.h ****  **/
 186:.\source\rte/sc_event.h **** inline RTE_signalStatus_t RTE_SC_EVENT_getStatus( const SC_EVENT_t * const signal )
 187:.\source\rte/sc_event.h **** {
ARM GAS  C:\Users\aditi\AppData\Local\Temp\ccxJli9U.s 			page 42


 188:.\source\rte/sc_event.h ****    return signal->status;
 189:.\source\rte/sc_event.h **** }
 190:.\source\rte/sc_event.h **** 
 191:.\source\rte/sc_event.h **** 
 192:.\source\rte/sc_event.h **** /**
 193:.\source\rte/sc_event.h ****  *  Sets a new signal status of the passed signal instance by passing the new status.
 194:.\source\rte/sc_event.h ****  *
 195:.\source\rte/sc_event.h ****  * @param  SC_EVENT_t * const signal: Pointer to the signal object
 196:.\source\rte/sc_event.h ****  * @param  const sig_status_t status: New signal status
 197:.\source\rte/sc_event.h ****  * @return RC_t: standard return code, currently only RC_SUCCESS
 198:.\source\rte/sc_event.h ****  *
 199:.\source\rte/sc_event.h ****  */
 200:.\source\rte/sc_event.h **** inline RC_t RTE_SC_EVENT_setStatus( SC_EVENT_t * const signal, const RTE_signalStatus_t status )
 201:.\source\rte/sc_event.h **** {
 202:.\source\rte/sc_event.h ****    signal->status = status;
 203:.\source\rte/sc_event.h ****    size_t taskNum=0;
 204:.\source\rte/sc_event.h ****    
 205:.\source\rte/sc_event.h ****    //Fire error events in case of invalid state
 206:.\source\rte/sc_event.h ****    if (signal->status == RTE_SIGNALSTATUS_INVALID)
 207:.\source\rte/sc_event.h ****    {
 208:.\source\rte/sc_event.h **** 	    //Pointer to the Taskarray, containing the tasks receiving the onUpdate events
 209:.\source\rte/sc_event.h **** 		TaskTypeArray* pTaskArray = signal->pSigCfg->onErrorTasks;
 210:.\source\rte/sc_event.h **** 
 211:.\source\rte/sc_event.h **** 		if (NULL!=signal->pSigCfg->evOnError && NULL != pTaskArray){
 212:.\source\rte/sc_event.h **** 			for( taskNum=0 ; taskNum < signal->pSigCfg->onErrorTaskCount ;taskNum++){
 213:.\source\rte/sc_event.h **** 				TaskType task = (*pTaskArray)[taskNum];
 214:.\source\rte/sc_event.h **** 				SetEvent( task, signal->pSigCfg->evOnError);
 215:.\source\rte/sc_event.h **** 			}
 216:.\source\rte/sc_event.h **** 		}
 217:.\source\rte/sc_event.h ****    }
 218:.\source\rte/sc_event.h ****    
 219:.\source\rte/sc_event.h ****    return RC_SUCCESS;
 220:.\source\rte/sc_event.h **** }
 221:.\source\rte/sc_event.h **** 
 222:.\source\rte/sc_event.h **** 
 223:.\source\rte/sc_event.h **** /**
 224:.\source\rte/sc_event.h ****  * Returns the count of refreshing trials (refresh, set or set_raw) that failed.
 225:.\source\rte/sc_event.h ****  * Prerquisite: The signal is refreshed cyclically
 226:.\source\rte/sc_event.h ****  *
 227:.\source\rte/sc_event.h ****  * @param  SC_EVENT_t * const signal: Pointer to the signal object
 228:.\source\rte/sc_event.h ****  * @return uint32_t: Number of cycles since the signal has been updated for the last time
 229:.\source\rte/sc_event.h ****  */
 230:.\source\rte/sc_event.h **** inline uint32_t RTE_SC_EVENT_getAge( const SC_EVENT_t * const signal )
 231:.\source\rte/sc_event.h **** {
 232:.\source\rte/sc_event.h ****    return signal->age;
 233:.\source\rte/sc_event.h **** }
 234:.\source\rte/sc_event.h **** 
 235:.\source\rte/sc_event.h **** /**
 236:.\source\rte/sc_event.h ****  * Should be called by application or driver if no new value can be provided.
 237:.\source\rte/sc_event.h ****  * @param  SC_EVENT_t * const signal: Pointer to the signal object
 238:.\source\rte/sc_event.h ****  * @param uint32_t increment: incrementvalue, typically in [ms]
 239:.\source\rte/sc_event.h ****  * @return void
 240:.\source\rte/sc_event.h ****  */
 241:.\source\rte/sc_event.h **** inline void RTE_SC_EVENT_incAge(  SC_EVENT_t * const signal , uint32_t increment)
 242:.\source\rte/sc_event.h **** {
 243:.\source\rte/sc_event.h **** 	   //Hack....
 244:.\source\rte/sc_event.h **** 	   if ( 0xFFFF0000 > (signal->age + increment) )
ARM GAS  C:\Users\aditi\AppData\Local\Temp\ccxJli9U.s 			page 43


 245:.\source\rte/sc_event.h **** 	   {
 246:.\source\rte/sc_event.h **** 	      signal->age += increment;
 247:.\source\rte/sc_event.h **** 	   }
 248:.\source\rte/sc_event.h **** }
 249:.\source\rte/sc_event.h **** 
 250:.\source\rte/sc_event.h **** 
 251:.\source\rte/sc_event.h **** /**************************************************************************************************
 252:.\source\rte/sc_event.h **** /* Application Data read/write Interface																			*/
 253:.\source\rte/sc_event.h **** /**************************************************************************************************
 254:.\source\rte/sc_event.h **** 
 255:.\source\rte/sc_event.h **** /**
 256:.\source\rte/sc_event.h ****  * Returns the current application value of the passed signal instance.
 257:.\source\rte/sc_event.h ****  *
 258:.\source\rte/sc_event.h ****  * @param  SC_EVENT_t * const signal: Pointer to the signal object
 259:.\source\rte/sc_event.h ****  * @return sc_event_data_t: current value of the application data buffer
 260:.\source\rte/sc_event.h ****  *
 261:.\source\rte/sc_event.h ****  **/
 262:.\source\rte/sc_event.h **** inline SC_EVENT_data_t RTE_SC_EVENT_get( const SC_EVENT_t * const signal )
 263:.\source\rte/sc_event.h **** {               
 264:.\source\rte/sc_event.h ****    //Todo: Critical region cannot be protected using return values																						
 265:.\source\rte/sc_event.h ****    return signal->value;                                                                           
 266:.\source\rte/sc_event.h **** }                                                                                                  
 267:.\source\rte/sc_event.h ****                                                                                                    
 268:.\source\rte/sc_event.h **** /**
 269:.\source\rte/sc_event.h ****  * Returns the current application value of the passed signal instance threadsafe.
 270:.\source\rte/sc_event.h ****  *
 271:.\source\rte/sc_event.h ****  * @param  SC_EVENT_t * const signal: Pointer to the signal object
 272:.\source\rte/sc_event.h ****  * @param  SC_EVENT_data_t* data: Pointer to the return data Pointer to the signal object
 273:.\source\rte/sc_event.h ****  * @return RC_SUCCESS
 274:.\source\rte/sc_event.h ****  *
 275:.\source\rte/sc_event.h ****  **/
 276:.\source\rte/sc_event.h **** inline RC_t RTE_SC_EVENT_getThreadSafe( const SC_EVENT_t * const signal, SC_EVENT_data_t * const da
 277:.\source\rte/sc_event.h **** {    
 278:.\source\rte/sc_event.h ****    if (TRUE == signal->pSigCfg->resourceActive) GetResource(signal->pSigCfg->resource);
 279:.\source\rte/sc_event.h ****    *data = signal->value;
 280:.\source\rte/sc_event.h ****    if (TRUE == signal->pSigCfg->resourceActive) ReleaseResource(signal->pSigCfg->resource);        
 281:.\source\rte/sc_event.h **** 
 282:.\source\rte/sc_event.h ****    return RC_SUCCESS;                                                                   
 283:.\source\rte/sc_event.h ****    
 284:.\source\rte/sc_event.h **** }                                                                                                  
 285:.\source\rte/sc_event.h ****                                                                                                    
 286:.\source\rte/sc_event.h **** /**
 287:.\source\rte/sc_event.h ****  * Sets a new application value to the passed signal instance by passing the new value.
 288:.\source\rte/sc_event.h ****  * The corresponding driver raw value will be calculated immediately by using the default conversio
 289:.\source\rte/sc_event.h ****  * signal specific scaling function.
 290:.\source\rte/sc_event.h ****  * The signal age will be set to 0 and the new status will be 'RTE_SIGNALSTATUS_VALID'.
 291:.\source\rte/sc_event.h ****  *
 292:.\source\rte/sc_event.h ****  * @param  SC_EVENT_t * const signal: Pointer to the signal object
 293:.\source\rte/sc_event.h ****  * @param  sc_event_data_t const value: value for the application data buffer
 294:.\source\rte/sc_event.h ****  * @return RC_t: standard return code, currently only RC_SUCCESS
 295:.\source\rte/sc_event.h ****  *
 296:.\source\rte/sc_event.h ****  **/
 297:.\source\rte/sc_event.h **** inline RC_t RTE_SC_EVENT_set(SC_EVENT_t * const signal, const SC_EVENT_data_t value  )
 298:.\source\rte/sc_event.h **** {
 299:.\source\rte/sc_event.h **** 
 300:.\source\rte/sc_event.h ****    RC_t ret = RC_SUCCESS;
 301:.\source\rte/sc_event.h ****    size_t taskNum=0;
ARM GAS  C:\Users\aditi\AppData\Local\Temp\ccxJli9U.s 			page 44


 302:.\source\rte/sc_event.h **** 
 303:.\source\rte/sc_event.h **** 
 304:.\source\rte/sc_event.h ****    if (TRUE == signal->pSigCfg->resourceActive) GetResource(signal->pSigCfg->resource);
 1197              		.loc 3 304 0
 1198 001e 3F4B     		ldr	r3, .L102+8
 1199 0020 9A68     		ldr	r2, [r3, #8]
 305:.\source\rte/sc_event.h ****    signal->value  = value;
 1200              		.loc 3 305 0
 1201 0022 0521     		movs	r1, #5
 1202 0024 1970     		strb	r1, [r3]
 306:.\source\rte/sc_event.h ****    signal->age    = 0;
 1203              		.loc 3 306 0
 1204 0026 0021     		movs	r1, #0
 1205 0028 5960     		str	r1, [r3, #4]
 307:.\source\rte/sc_event.h ****    signal->status = RTE_SIGNALSTATUS_VALID;
 1206              		.loc 3 307 0
 1207 002a 0221     		movs	r1, #2
 1208 002c 5970     		strb	r1, [r3, #1]
 308:.\source\rte/sc_event.h ****    if (TRUE == signal->pSigCfg->resourceActive) ReleaseResource(signal->pSigCfg->resource);
 309:.\source\rte/sc_event.h **** 
 310:.\source\rte/sc_event.h ****    //Pointer to the Taskarray, containing the tasks receiving the onUpdate events
 311:.\source\rte/sc_event.h ****    TaskTypeArray* pTaskArray = signal->pSigCfg->onUpdateTasks;
 1209              		.loc 3 311 0
 1210 002e 5569     		ldr	r5, [r2, #20]
 1211              	.LVL101:
 312:.\source\rte/sc_event.h **** 
 313:.\source\rte/sc_event.h ****    if (NULL!=signal->pSigCfg->evOnUpdate && NULL != pTaskArray){
 1212              		.loc 3 313 0
 1213 0030 9368     		ldr	r3, [r2, #8]
 1214 0032 73B1     		cbz	r3, .L89
 1215 0034 3DB9     		cbnz	r5, .L98
 1216 0036 0CE0     		b	.L89
 1217              	.LVL102:
 1218              	.L91:
 1219              	.LBB110:
 314:.\source\rte/sc_event.h ****       for( taskNum=0 ; taskNum < signal->pSigCfg->onUpdateTaskCount ;taskNum++){
 315:.\source\rte/sc_event.h **** 		  
 316:.\source\rte/sc_event.h ****           TaskType task = (*pTaskArray)[taskNum];
 317:.\source\rte/sc_event.h **** 	      SetEvent( task, signal->pSigCfg->evOnUpdate);
 1220              		.loc 3 317 0
 1221 0038 9968     		ldr	r1, [r3, #8]
 1222 003a 55F82400 		ldr	r0, [r5, r4, lsl #2]
 1223 003e FFF7FEFF 		bl	EE_oo_SetEvent
 1224              	.LVL103:
 1225              	.LBE110:
 314:.\source\rte/sc_event.h ****       for( taskNum=0 ; taskNum < signal->pSigCfg->onUpdateTaskCount ;taskNum++){
 1226              		.loc 3 314 0
 1227 0042 0134     		adds	r4, r4, #1
 1228              	.LVL104:
 1229 0044 00E0     		b	.L90
 1230              	.LVL105:
 1231              	.L98:
 313:.\source\rte/sc_event.h ****       for( taskNum=0 ; taskNum < signal->pSigCfg->onUpdateTaskCount ;taskNum++){
 1232              		.loc 3 313 0
 1233 0046 0024     		movs	r4, #0
 1234              	.LVL106:
 1235              	.L90:
ARM GAS  C:\Users\aditi\AppData\Local\Temp\ccxJli9U.s 			page 45


 314:.\source\rte/sc_event.h ****       for( taskNum=0 ; taskNum < signal->pSigCfg->onUpdateTaskCount ;taskNum++){
 1236              		.loc 3 314 0
 1237 0048 344B     		ldr	r3, .L102+8
 1238 004a 9B68     		ldr	r3, [r3, #8]
 1239 004c 1A69     		ldr	r2, [r3, #16]
 1240 004e 9442     		cmp	r4, r2
 1241 0050 F2D3     		bcc	.L91
 1242              	.LVL107:
 1243              	.L89:
 1244              	.LBE109:
 1245              	.LBE108:
 211:source\asw/swc_clock.c ****     {
 1246              		.loc 1 211 0
 1247 0052 304B     		ldr	r3, .L102
 1248 0054 1B88     		ldrh	r3, [r3]
 1249 0056 324A     		ldr	r2, .L102+12
 1250 0058 A2FB0312 		umull	r1, r2, r2, r3
 1251 005c D209     		lsrs	r2, r2, #7
 1252 005e 4FF49661 		mov	r1, #1200
 1253 0062 01FB1233 		mls	r3, r1, r2, r3
 1254 0066 9BB2     		uxth	r3, r3
 1255 0068 F3B9     		cbnz	r3, .L92
 213:source\asw/swc_clock.c ****         eventSignal.m_ev = EV_1MIN;
 1256              		.loc 1 213 0
 1257 006a 0024     		movs	r4, #0
 1258 006c 294B     		ldr	r3, .L102
 1259 006e 1C80     		strh	r4, [r3]	@ movhi
 215:source\asw/swc_clock.c ****         RTE_SC_EVENT_set (&SO_EVENT_signal, eventSignal);
 1260              		.loc 1 215 0
 1261 0070 2C48     		ldr	r0, .L102+16
 1262 0072 FFF7FEFF 		bl	UART_LOG_PutString
 1263              	.LVL108:
 1264              	.LBB111:
 1265              	.LBB112:
 304:.\source\rte/sc_event.h ****    signal->value  = value;
 1266              		.loc 3 304 0
 1267 0076 294B     		ldr	r3, .L102+8
 1268 0078 9A68     		ldr	r2, [r3, #8]
 305:.\source\rte/sc_event.h ****    signal->age    = 0;
 1269              		.loc 3 305 0
 1270 007a 0421     		movs	r1, #4
 1271 007c 1970     		strb	r1, [r3]
 306:.\source\rte/sc_event.h ****    signal->status = RTE_SIGNALSTATUS_VALID;
 1272              		.loc 3 306 0
 1273 007e 5C60     		str	r4, [r3, #4]
 307:.\source\rte/sc_event.h ****    if (TRUE == signal->pSigCfg->resourceActive) ReleaseResource(signal->pSigCfg->resource);
 1274              		.loc 3 307 0
 1275 0080 0221     		movs	r1, #2
 1276 0082 5970     		strb	r1, [r3, #1]
 311:.\source\rte/sc_event.h **** 
 1277              		.loc 3 311 0
 1278 0084 5569     		ldr	r5, [r2, #20]
 1279              	.LVL109:
 313:.\source\rte/sc_event.h ****       for( taskNum=0 ; taskNum < signal->pSigCfg->onUpdateTaskCount ;taskNum++){
 1280              		.loc 3 313 0
 1281 0086 9368     		ldr	r3, [r2, #8]
 1282 0088 73B1     		cbz	r3, .L92
ARM GAS  C:\Users\aditi\AppData\Local\Temp\ccxJli9U.s 			page 46


 1283 008a 3DB9     		cbnz	r5, .L99
 1284 008c 0CE0     		b	.L92
 1285              	.LVL110:
 1286              	.L94:
 1287              	.LBB113:
 1288              		.loc 3 317 0
 1289 008e 9968     		ldr	r1, [r3, #8]
 1290 0090 55F82400 		ldr	r0, [r5, r4, lsl #2]
 1291 0094 FFF7FEFF 		bl	EE_oo_SetEvent
 1292              	.LVL111:
 1293              	.LBE113:
 314:.\source\rte/sc_event.h **** 		  
 1294              		.loc 3 314 0
 1295 0098 0134     		adds	r4, r4, #1
 1296              	.LVL112:
 1297 009a 00E0     		b	.L93
 1298              	.LVL113:
 1299              	.L99:
 313:.\source\rte/sc_event.h ****       for( taskNum=0 ; taskNum < signal->pSigCfg->onUpdateTaskCount ;taskNum++){
 1300              		.loc 3 313 0
 1301 009c 0024     		movs	r4, #0
 1302              	.LVL114:
 1303              	.L93:
 314:.\source\rte/sc_event.h **** 		  
 1304              		.loc 3 314 0
 1305 009e 1F4B     		ldr	r3, .L102+8
 1306 00a0 9B68     		ldr	r3, [r3, #8]
 1307 00a2 1A69     		ldr	r2, [r3, #16]
 1308 00a4 9442     		cmp	r4, r2
 1309 00a6 F2D3     		bcc	.L94
 1310              	.LVL115:
 1311              	.L92:
 1312              	.LBE112:
 1313              	.LBE111:
 220:source\asw/swc_clock.c ****     {
 1314              		.loc 1 220 0
 1315 00a8 1A4B     		ldr	r3, .L102
 1316 00aa 9B78     		ldrb	r3, [r3, #2]	@ zero_extendqisi2
 1317 00ac 012B     		cmp	r3, #1
 1318 00ae 2FD1     		bne	.L88
 220:source\asw/swc_clock.c ****     {
 1319              		.loc 1 220 0 is_stmt 0 discriminator 1
 1320 00b0 FFF7FEFF 		bl	Pin_ButtonRight_Read
 1321              	.LVL116:
 1322 00b4 0128     		cmp	r0, #1
 1323 00b6 2BD1     		bne	.L88
 1324              	.LBB114:
 223:source\asw/swc_clock.c ****         //Runnable called every 50ms, 50 x 20 = 1000ms = 1s
 1325              		.loc 1 223 0 is_stmt 1
 1326 00b8 164A     		ldr	r2, .L102
 1327 00ba D378     		ldrb	r3, [r2, #3]	@ zero_extendqisi2
 1328 00bc 0133     		adds	r3, r3, #1
 1329 00be DBB2     		uxtb	r3, r3
 1330 00c0 D370     		strb	r3, [r2, #3]
 225:source\asw/swc_clock.c ****         {
 1331              		.loc 1 225 0
 1332 00c2 154A     		ldr	r2, .L102+4
ARM GAS  C:\Users\aditi\AppData\Local\Temp\ccxJli9U.s 			page 47


 1333 00c4 A2FB0312 		umull	r1, r2, r2, r3
 1334 00c8 1209     		lsrs	r2, r2, #4
 1335 00ca 02EB8202 		add	r2, r2, r2, lsl #2
 1336 00ce 9100     		lsls	r1, r2, #2
 1337 00d0 5B1A     		subs	r3, r3, r1
 1338 00d2 13F0FF0F 		tst	r3, #255
 1339 00d6 1BD1     		bne	.L88
 228:source\asw/swc_clock.c ****             RTE_SC_EVENT_set (&SO_EVENT_signal, eventSignal);
 1340              		.loc 1 228 0
 1341 00d8 0021     		movs	r1, #0
 1342 00da 0E4B     		ldr	r3, .L102
 1343 00dc 9970     		strb	r1, [r3, #2]
 1344              	.LVL117:
 1345              	.LBB115:
 1346              	.LBB116:
 304:.\source\rte/sc_event.h ****    signal->value  = value;
 1347              		.loc 3 304 0
 1348 00de 0F4B     		ldr	r3, .L102+8
 1349 00e0 9A68     		ldr	r2, [r3, #8]
 305:.\source\rte/sc_event.h ****    signal->age    = 0;
 1350              		.loc 3 305 0
 1351 00e2 0320     		movs	r0, #3
 1352 00e4 1870     		strb	r0, [r3]
 306:.\source\rte/sc_event.h ****    signal->status = RTE_SIGNALSTATUS_VALID;
 1353              		.loc 3 306 0
 1354 00e6 5960     		str	r1, [r3, #4]
 307:.\source\rte/sc_event.h ****    if (TRUE == signal->pSigCfg->resourceActive) ReleaseResource(signal->pSigCfg->resource);
 1355              		.loc 3 307 0
 1356 00e8 0221     		movs	r1, #2
 1357 00ea 5970     		strb	r1, [r3, #1]
 311:.\source\rte/sc_event.h **** 
 1358              		.loc 3 311 0
 1359 00ec 5569     		ldr	r5, [r2, #20]
 1360              	.LVL118:
 313:.\source\rte/sc_event.h ****       for( taskNum=0 ; taskNum < signal->pSigCfg->onUpdateTaskCount ;taskNum++){
 1361              		.loc 3 313 0
 1362 00ee 9368     		ldr	r3, [r2, #8]
 1363 00f0 73B1     		cbz	r3, .L88
 1364 00f2 3DB9     		cbnz	r5, .L100
 1365 00f4 38BD     		pop	{r3, r4, r5, pc}
 1366              	.LVL119:
 1367              	.L97:
 1368              	.LBB117:
 1369              		.loc 3 317 0
 1370 00f6 9968     		ldr	r1, [r3, #8]
 1371 00f8 55F82400 		ldr	r0, [r5, r4, lsl #2]
 1372 00fc FFF7FEFF 		bl	EE_oo_SetEvent
 1373              	.LVL120:
 1374              	.LBE117:
 314:.\source\rte/sc_event.h **** 		  
 1375              		.loc 3 314 0
 1376 0100 0134     		adds	r4, r4, #1
 1377              	.LVL121:
 1378 0102 00E0     		b	.L96
 1379              	.LVL122:
 1380              	.L100:
 313:.\source\rte/sc_event.h ****       for( taskNum=0 ; taskNum < signal->pSigCfg->onUpdateTaskCount ;taskNum++){
ARM GAS  C:\Users\aditi\AppData\Local\Temp\ccxJli9U.s 			page 48


 1381              		.loc 3 313 0
 1382 0104 0024     		movs	r4, #0
 1383              	.LVL123:
 1384              	.L96:
 314:.\source\rte/sc_event.h **** 		  
 1385              		.loc 3 314 0
 1386 0106 054B     		ldr	r3, .L102+8
 1387 0108 9B68     		ldr	r3, [r3, #8]
 1388 010a 1A69     		ldr	r2, [r3, #16]
 1389 010c 9442     		cmp	r4, r2
 1390 010e F2D3     		bcc	.L97
 1391              	.LVL124:
 1392              	.L88:
 1393 0110 38BD     		pop	{r3, r4, r5, pc}
 1394              	.L103:
 1395 0112 00BF     		.align	2
 1396              	.L102:
 1397 0114 00000000 		.word	.LANCHOR1
 1398 0118 CDCCCCCC 		.word	-858993459
 1399 011c 00000000 		.word	SO_EVENT_signal
 1400 0120 B5814E1B 		.word	458129845
 1401 0124 60020000 		.word	.LC17
 1402              	.LBE116:
 1403              	.LBE115:
 1404              	.LBE114:
 1405              		.cfi_endproc
 1406              	.LFE141:
 1407              		.size	CLOCK_input_run, .-CLOCK_input_run
 1408              		.section	.text.CLOCK_control_run,"ax",%progbits
 1409              		.align	2
 1410              		.global	CLOCK_control_run
 1411              		.thumb
 1412              		.thumb_func
 1413              		.type	CLOCK_control_run, %function
 1414              	CLOCK_control_run:
 1415              	.LFB142:
 255:source\asw/swc_clock.c **** 	
 1416              		.loc 1 255 0
 1417              		.cfi_startproc
 1418              		@ args = 0, pretend = 0, frame = 40
 1419              		@ frame_needed = 0, uses_anonymous_args = 0
 1420              	.LVL125:
 1421 0000 F0B5     		push	{r4, r5, r6, r7, lr}
 1422              		.cfi_def_cfa_offset 20
 1423              		.cfi_offset 4, -20
 1424              		.cfi_offset 5, -16
 1425              		.cfi_offset 6, -12
 1426              		.cfi_offset 7, -8
 1427              		.cfi_offset 14, -4
 1428 0002 8DB0     		sub	sp, sp, #52
 1429              		.cfi_def_cfa_offset 72
 258:source\asw/swc_clock.c ****     
 1430              		.loc 1 258 0
 1431 0004 0F48     		ldr	r0, .L106
 1432              	.LVL126:
 1433 0006 FFF7FEFF 		bl	UART_LOG_PutString
 1434              	.LVL127:
ARM GAS  C:\Users\aditi\AppData\Local\Temp\ccxJli9U.s 			page 49


 1435              	.LBB118:
 1436              	.LBB119:
 265:.\source\rte/sc_event.h **** }                                                                                                  
 1437              		.loc 3 265 0
 1438 000a 0F4B     		ldr	r3, .L106+4
 1439 000c 1F78     		ldrb	r7, [r3]	@ zero_extendqisi2
 1440              	.LVL128:
 1441              	.LBE119:
 1442              	.LBE118:
 1443              	.LBB120:
 1444              	.LBB121:
 265:.\source\rte/sc_clock.h **** }                                                                                                  
 1445              		.loc 2 265 0
 1446 000e 0F4E     		ldr	r6, .L106+8
 1447 0010 03AC     		add	r4, sp, #12
 1448 0012 3546     		mov	r5, r6
 1449 0014 0FCD     		ldmia	r5!, {r0, r1, r2, r3}
 1450 0016 0FC4     		stmia	r4!, {r0, r1, r2, r3}
 1451 0018 0FCD     		ldmia	r5!, {r0, r1, r2, r3}
 1452 001a 0FC4     		stmia	r4!, {r0, r1, r2, r3}
 1453 001c 2B68     		ldr	r3, [r5]
 1454 001e 2360     		str	r3, [r4]
 1455              	.LVL129:
 1456              	.LBE121:
 1457              	.LBE120:
 267:source\asw/swc_clock.c ****                                     eventSignal_t.m_ev, &clockData.m_containerState);
 1458              		.loc 1 267 0
 1459 0020 03AB     		add	r3, sp, #12
 1460 0022 0193     		str	r3, [sp, #4]
 1461 0024 0097     		str	r7, [sp]
 1462 0026 0023     		movs	r3, #0
 1463 0028 1A46     		mov	r2, r3
 1464 002a 0321     		movs	r1, #3
 1465 002c 0848     		ldr	r0, .L106+12
 1466 002e FFF7FEFF 		bl	STATE_processEvent
 1467              	.LVL130:
 270:source\asw/swc_clock.c ****     
 1468              		.loc 1 270 0
 1469 0032 0848     		ldr	r0, .L106+16
 1470 0034 FFF7FEFF 		bl	UART_LOG_PutString
 1471              	.LVL131:
 278:source\asw/swc_clock.c ****     //RTE_SC_CLOCK_set(&SO_CLOCK_signal, clockData);
 1472              		.loc 1 278 0
 1473 0038 9DF80C30 		ldrb	r3, [sp, #12]	@ zero_extendqisi2
 1474 003c 3370     		strb	r3, [r6]
 282:source\asw/swc_clock.c **** 
 1475              		.loc 1 282 0
 1476 003e 0DB0     		add	sp, sp, #52
 1477              		.cfi_def_cfa_offset 20
 1478              		@ sp needed
 1479 0040 F0BD     		pop	{r4, r5, r6, r7, pc}
 1480              	.L107:
 1481 0042 00BF     		.align	2
 1482              	.L106:
 1483 0044 78020000 		.word	.LC18
 1484 0048 00000000 		.word	SO_EVENT_signal
 1485 004c 00000000 		.word	SO_CLOCK_signal
ARM GAS  C:\Users\aditi\AppData\Local\Temp\ccxJli9U.s 			page 50


 1486 0050 24000000 		.word	.LANCHOR0+36
 1487 0054 90020000 		.word	.LC19
 1488              		.cfi_endproc
 1489              	.LFE142:
 1490              		.size	CLOCK_control_run, .-CLOCK_control_run
 1491              		.section	.text.CLOCK_display_run,"ax",%progbits
 1492              		.align	2
 1493              		.global	CLOCK_display_run
 1494              		.thumb
 1495              		.thumb_func
 1496              		.type	CLOCK_display_run, %function
 1497              	CLOCK_display_run:
 1498              	.LFB143:
 295:source\asw/swc_clock.c **** 	
 1499              		.loc 1 295 0
 1500              		.cfi_startproc
 1501              		@ args = 0, pretend = 0, frame = 48
 1502              		@ frame_needed = 0, uses_anonymous_args = 0
 1503              	.LVL132:
 1504 0000 30B5     		push	{r4, r5, lr}
 1505              		.cfi_def_cfa_offset 12
 1506              		.cfi_offset 4, -12
 1507              		.cfi_offset 5, -8
 1508              		.cfi_offset 14, -4
 1509 0002 8DB0     		sub	sp, sp, #52
 1510              		.cfi_def_cfa_offset 64
 1511              	.LVL133:
 1512              	.LBB122:
 1513              	.LBB123:
 265:.\source\rte/sc_clock.h **** }                                                                                                  
 1514              		.loc 2 265 0
 1515 0004 03AC     		add	r4, sp, #12
 1516 0006 234D     		ldr	r5, .L115
 1517 0008 0FCD     		ldmia	r5!, {r0, r1, r2, r3}
 1518              	.LVL134:
 1519 000a 0FC4     		stmia	r4!, {r0, r1, r2, r3}
 1520 000c 0FCD     		ldmia	r5!, {r0, r1, r2, r3}
 1521 000e 0FC4     		stmia	r4!, {r0, r1, r2, r3}
 1522 0010 2B68     		ldr	r3, [r5]
 1523 0012 2360     		str	r3, [r4]
 1524              	.LVL135:
 1525              	.LBE123:
 1526              	.LBE122:
 306:source\asw/swc_clock.c ****     dispTFT.minutes.tensValue = (clock.m_minutes.m_value / 10);
 1527              		.loc 1 306 0
 1528 0014 9DF82C10 		ldrb	r1, [sp, #44]	@ zero_extendqisi2
 1529 0018 1F4B     		ldr	r3, .L115+4
 1530 001a A3FB0102 		umull	r0, r2, r3, r1
 1531 001e D208     		lsrs	r2, r2, #3
 1532 0020 02EB8204 		add	r4, r2, r2, lsl #2
 1533 0024 6000     		lsls	r0, r4, #1
 1534 0026 091A     		subs	r1, r1, r0
 1535 0028 8DF80A10 		strb	r1, [sp, #10]
 307:source\asw/swc_clock.c ****     
 1536              		.loc 1 307 0
 1537 002c 8DF80B20 		strb	r2, [sp, #11]
 309:source\asw/swc_clock.c ****     dispTFT.hours.tensValue = (clock.m_hours.m_value / 10);
ARM GAS  C:\Users\aditi\AppData\Local\Temp\ccxJli9U.s 			page 51


 1538              		.loc 1 309 0
 1539 0030 9DF82020 		ldrb	r2, [sp, #32]	@ zero_extendqisi2
 1540 0034 A3FB0213 		umull	r1, r3, r3, r2
 1541 0038 DB08     		lsrs	r3, r3, #3
 1542 003a 03EB8300 		add	r0, r3, r3, lsl #2
 1543 003e 4100     		lsls	r1, r0, #1
 1544 0040 521A     		subs	r2, r2, r1
 1545 0042 8DF80820 		strb	r2, [sp, #8]
 310:source\asw/swc_clock.c ****     
 1546              		.loc 1 310 0
 1547 0046 8DF80930 		strb	r3, [sp, #9]
 1548              	.LVL136:
 1549 004a 0299     		ldr	r1, [sp, #8]
 1550 004c 0191     		str	r1, [sp, #4]
 1551              	.LVL137:
 1552              	.LBB124:
 1553              	.LBB125:
 1554              		.file 4 ".\\source\\rte/sc_display.h"
   1:.\source\rte/sc_display.h **** 
   2:.\source\rte/sc_display.h **** 
   3:.\source\rte/sc_display.h **** /**
   4:.\source\rte/sc_display.h **** *  file    SC_DISPLAY_signal.h
   5:.\source\rte/sc_display.h **** *
   6:.\source\rte/sc_display.h **** *  brief   signal base class for signal sc_display
   7:.\source\rte/sc_display.h **** *
   8:.\source\rte/sc_display.h **** *  author  Autogenerated, Peter Fromm       <peter.fromm@h-da.de>
   9:.\source\rte/sc_display.h **** *
  10:.\source\rte/sc_display.h **** *
  11:.\source\rte/sc_display.h **** */
  12:.\source\rte/sc_display.h **** 
  13:.\source\rte/sc_display.h **** /*
  14:.\source\rte/sc_display.h **** * description: Display respresentation datatype
  15:.\source\rte/sc_display.h **** * name: sc_display
  16:.\source\rte/sc_display.h **** * shortname: display
  17:.\source\rte/sc_display.h **** */
  18:.\source\rte/sc_display.h **** 
  19:.\source\rte/sc_display.h **** #ifndef SC_DISPLAY_SIGNAL_H_INCLUDED
  20:.\source\rte/sc_display.h **** #define SC_DISPLAY_SIGNAL_H_INCLUDED
  21:.\source\rte/sc_display.h **** 
  22:.\source\rte/sc_display.h **** /*================================================[ public includes  ]=============================
  23:.\source\rte/sc_display.h **** #include "global.h"
  24:.\source\rte/sc_display.h **** #include "project.h"
  25:.\source\rte/sc_display.h **** #include "rte.h"
  26:.\source\rte/sc_display.h **** #include "rte_types.h"
  27:.\source\rte/sc_display.h **** 
  28:.\source\rte/sc_display.h **** #include "sc_display_type.h"
  29:.\source\rte/sc_display.h **** 
  30:.\source\rte/sc_display.h **** 
  31:.\source\rte/sc_display.h **** /**************************************************************************************************
  32:.\source\rte/sc_display.h **** /* The driver API block																						*/
  33:.\source\rte/sc_display.h **** /**************************************************************************************************
  34:.\source\rte/sc_display.h ****                                                                                                    
  35:.\source\rte/sc_display.h **** /**
  36:.\source\rte/sc_display.h ****  *  Definition of function types for driver interfaces.
  37:.\source\rte/sc_display.h ****  *  I-Port
  38:.\source\rte/sc_display.h ****  */
  39:.\source\rte/sc_display.h **** typedef RC_t (*SC_DISPLAY_driverIn_t)(SC_DISPLAY_data_t * const);
ARM GAS  C:\Users\aditi\AppData\Local\Temp\ccxJli9U.s 			page 52


  40:.\source\rte/sc_display.h **** 
  41:.\source\rte/sc_display.h **** /**
  42:.\source\rte/sc_display.h ****  *  Definition of function types for driver interfaces.
  43:.\source\rte/sc_display.h ****  *  O-Port
  44:.\source\rte/sc_display.h ****  */
  45:.\source\rte/sc_display.h **** typedef RC_t (*SC_DISPLAY_driverOut_t)( const SC_DISPLAY_data_t * const);
  46:.\source\rte/sc_display.h **** 
  47:.\source\rte/sc_display.h **** 
  48:.\source\rte/sc_display.h **** /**************************************************************************************************
  49:.\source\rte/sc_display.h **** /* The signal configuration API block																				*/
  50:.\source\rte/sc_display.h **** /**************************************************************************************************
  51:.\source\rte/sc_display.h **** 
  52:.\source\rte/sc_display.h **** /**
  53:.\source\rte/sc_display.h ****  * Instances of the struct SC_DISPLAY_cfg_t represent the signal object configuration.
  54:.\source\rte/sc_display.h ****  */
  55:.\source\rte/sc_display.h **** struct SC_DISPLAY_cfg_s
  56:.\source\rte/sc_display.h **** {
  57:.\source\rte/sc_display.h ****     /**
  58:.\source\rte/sc_display.h ****      * Function pointer to the input driver
  59:.\source\rte/sc_display.h ****      */
  60:.\source\rte/sc_display.h ****     SC_DISPLAY_driverIn_t const inDriver;
  61:.\source\rte/sc_display.h **** 
  62:.\source\rte/sc_display.h ****     /**
  63:.\source\rte/sc_display.h ****      * Function pointer to the output driver table
  64:.\source\rte/sc_display.h ****      */
  65:.\source\rte/sc_display.h ****    SC_DISPLAY_driverOut_t const outDriver;
  66:.\source\rte/sc_display.h ****    
  67:.\source\rte/sc_display.h ****     /**
  68:.\source\rte/sc_display.h ****      * Event onUpdate
  69:.\source\rte/sc_display.h ****      */
  70:.\source\rte/sc_display.h ****     EventMaskType const evOnUpdate;
  71:.\source\rte/sc_display.h ****     
  72:.\source\rte/sc_display.h ****     
  73:.\source\rte/sc_display.h ****     /**
  74:.\source\rte/sc_display.h ****      * Event onError
  75:.\source\rte/sc_display.h ****      */
  76:.\source\rte/sc_display.h ****     EventMaskType const evOnError;
  77:.\source\rte/sc_display.h ****     
  78:.\source\rte/sc_display.h ****     /**
  79:.\source\rte/sc_display.h ****      * Task Count onUpdate
  80:.\source\rte/sc_display.h ****      */
  81:.\source\rte/sc_display.h ****     size_t const onUpdateTaskCount;
  82:.\source\rte/sc_display.h **** 
  83:.\source\rte/sc_display.h ****     /**
  84:.\source\rte/sc_display.h ****      * Task List onUpdate
  85:.\source\rte/sc_display.h ****      */
  86:.\source\rte/sc_display.h ****     TaskTypeArray* const onUpdateTasks;
  87:.\source\rte/sc_display.h ****     
  88:.\source\rte/sc_display.h ****     /**
  89:.\source\rte/sc_display.h ****      * Task Count onError
  90:.\source\rte/sc_display.h ****      */
  91:.\source\rte/sc_display.h ****     size_t const onErrorTaskCount;
  92:.\source\rte/sc_display.h **** 
  93:.\source\rte/sc_display.h ****     /**
  94:.\source\rte/sc_display.h ****      * Task List onError
  95:.\source\rte/sc_display.h ****      */
  96:.\source\rte/sc_display.h ****     TaskTypeArray* const onErrorTasks;
ARM GAS  C:\Users\aditi\AppData\Local\Temp\ccxJli9U.s 			page 53


  97:.\source\rte/sc_display.h **** 	
  98:.\source\rte/sc_display.h **** 	
  99:.\source\rte/sc_display.h **** 	/**
 100:.\source\rte/sc_display.h **** 	 * Ressourse is active? We need an additional boolean as a ressource value 0 is valid.
 101:.\source\rte/sc_display.h **** 	 */
 102:.\source\rte/sc_display.h **** 	 boolean_t const resourceActive;
 103:.\source\rte/sc_display.h **** 	 
 104:.\source\rte/sc_display.h **** 	/**
 105:.\source\rte/sc_display.h **** 	 * Ressourse 
 106:.\source\rte/sc_display.h **** 	 */
 107:.\source\rte/sc_display.h **** 	 ResourceType const resource;
 108:.\source\rte/sc_display.h **** 
 109:.\source\rte/sc_display.h **** };                                                                                                 
 110:.\source\rte/sc_display.h **** typedef const struct SC_DISPLAY_cfg_s SC_DISPLAY_cfg_t;
 111:.\source\rte/sc_display.h ****                               
 112:.\source\rte/sc_display.h **** /**************************************************************************************************
 113:.\source\rte/sc_display.h **** /* The data interface block																							*/
 114:.\source\rte/sc_display.h **** /**************************************************************************************************
 115:.\source\rte/sc_display.h **** 
 116:.\source\rte/sc_display.h ****                                                                                                    
 117:.\source\rte/sc_display.h **** 							  
 118:.\source\rte/sc_display.h **** /**
 119:.\source\rte/sc_display.h ****  * Instances of the struct SC_DISPLAY_t represent the signal objects.
 120:.\source\rte/sc_display.h ****  * A signal object contains the current application value 'value' as well as relevant meta data.
 121:.\source\rte/sc_display.h ****  */
 122:.\source\rte/sc_display.h **** struct SC_DISPLAY_s
 123:.\source\rte/sc_display.h **** {                                                                                                  
 124:.\source\rte/sc_display.h **** 
 125:.\source\rte/sc_display.h **** 	/**
 126:.\source\rte/sc_display.h **** 	 * Data buffer for the application value
 127:.\source\rte/sc_display.h **** 	 */
 128:.\source\rte/sc_display.h ****     SC_DISPLAY_data_t value;
 129:.\source\rte/sc_display.h **** 
 130:.\source\rte/sc_display.h ****     /**
 131:.\source\rte/sc_display.h ****      * Current signal status
 132:.\source\rte/sc_display.h ****      */
 133:.\source\rte/sc_display.h ****     RTE_signalStatus_t status;
 134:.\source\rte/sc_display.h **** 
 135:.\source\rte/sc_display.h ****     /**
 136:.\source\rte/sc_display.h ****      * Current age of the signal (in calling cycles)
 137:.\source\rte/sc_display.h ****      */
 138:.\source\rte/sc_display.h ****     uint32_t age;
 139:.\source\rte/sc_display.h **** 
 140:.\source\rte/sc_display.h ****     /**
 141:.\source\rte/sc_display.h ****      * Pointer to the signal configuration
 142:.\source\rte/sc_display.h ****      */
 143:.\source\rte/sc_display.h **** 	const SC_DISPLAY_cfg_t * const    pSigCfg;
 144:.\source\rte/sc_display.h **** 
 145:.\source\rte/sc_display.h **** };                                                                                                 
 146:.\source\rte/sc_display.h **** typedef struct SC_DISPLAY_s SC_DISPLAY_t;
 147:.\source\rte/sc_display.h **** 
 148:.\source\rte/sc_display.h **** /**************************************************************************************************
 149:.\source\rte/sc_display.h **** /* Signal initialisation   																							*/
 150:.\source\rte/sc_display.h **** /**************************************************************************************************
 151:.\source\rte/sc_display.h **** 
 152:.\source\rte/sc_display.h **** /**
 153:.\source\rte/sc_display.h ****  * Initializes a signal instance with a passed init value.
ARM GAS  C:\Users\aditi\AppData\Local\Temp\ccxJli9U.s 			page 54


 154:.\source\rte/sc_display.h ****  * Depending on the configured conversion or scaling function the raw_value will be calculated.
 155:.\source\rte/sc_display.h ****  * Signal status will change from RTE_SIGNALSTATUS_STARTUP to RTE_SIGNALSTATUS_INITIALIZED.
 156:.\source\rte/sc_display.h ****  *
 157:.\source\rte/sc_display.h ****  * @param  SC_DISPLAY_t * const signal: Pointer to the signal object which will be initialised
 158:.\source\rte/sc_display.h ****  * @param const sc_display_data_t * const value: Pointer to initial value of the application data
 159:.\source\rte/sc_display.h ****  * @return RC_t: standard return code, currently only RC_SUCCESS
 160:.\source\rte/sc_display.h ****  *
 161:.\source\rte/sc_display.h ****  **/
 162:.\source\rte/sc_display.h **** inline RC_t RTE_SC_DISPLAY_init( SC_DISPLAY_t * const signal, const SC_DISPLAY_data_t * const value
 163:.\source\rte/sc_display.h **** {                                                                                                  
 164:.\source\rte/sc_display.h **** 
 165:.\source\rte/sc_display.h ****    RC_t ret = RC_SUCCESS;
 166:.\source\rte/sc_display.h **** 
 167:.\source\rte/sc_display.h ****    //Set value and raw value
 168:.\source\rte/sc_display.h ****    signal->value  = *value;
 169:.\source\rte/sc_display.h ****    signal->age    = 0;
 170:.\source\rte/sc_display.h ****    signal->status = RTE_SIGNALSTATUS_INITIALIZED;
 171:.\source\rte/sc_display.h **** 
 172:.\source\rte/sc_display.h ****    return ret;
 173:.\source\rte/sc_display.h **** }
 174:.\source\rte/sc_display.h **** 
 175:.\source\rte/sc_display.h **** /**************************************************************************************************
 176:.\source\rte/sc_display.h **** /* Status and timeout control																						*/
 177:.\source\rte/sc_display.h **** /**************************************************************************************************
 178:.\source\rte/sc_display.h **** 
 179:.\source\rte/sc_display.h **** /**
 180:.\source\rte/sc_display.h ****  *  Returns the current signal status of the passed signal instance.
 181:.\source\rte/sc_display.h ****  *
 182:.\source\rte/sc_display.h ****  * @param  SC_DISPLAY_t * const signal: Pointer to the signal object
 183:.\source\rte/sc_display.h ****  * @return  sig_status_t: The current signal status
 184:.\source\rte/sc_display.h ****  *
 185:.\source\rte/sc_display.h ****  **/
 186:.\source\rte/sc_display.h **** inline RTE_signalStatus_t RTE_SC_DISPLAY_getStatus( const SC_DISPLAY_t * const signal )
 187:.\source\rte/sc_display.h **** {
 188:.\source\rte/sc_display.h ****    return signal->status;
 189:.\source\rte/sc_display.h **** }
 190:.\source\rte/sc_display.h **** 
 191:.\source\rte/sc_display.h **** 
 192:.\source\rte/sc_display.h **** /**
 193:.\source\rte/sc_display.h ****  *  Sets a new signal status of the passed signal instance by passing the new status.
 194:.\source\rte/sc_display.h ****  *
 195:.\source\rte/sc_display.h ****  * @param  SC_DISPLAY_t * const signal: Pointer to the signal object
 196:.\source\rte/sc_display.h ****  * @param  const sig_status_t status: New signal status
 197:.\source\rte/sc_display.h ****  * @return RC_t: standard return code, currently only RC_SUCCESS
 198:.\source\rte/sc_display.h ****  *
 199:.\source\rte/sc_display.h ****  */
 200:.\source\rte/sc_display.h **** inline RC_t RTE_SC_DISPLAY_setStatus( SC_DISPLAY_t * const signal, const RTE_signalStatus_t status 
 201:.\source\rte/sc_display.h **** {
 202:.\source\rte/sc_display.h ****    signal->status = status;
 203:.\source\rte/sc_display.h ****    size_t taskNum=0;
 204:.\source\rte/sc_display.h ****    
 205:.\source\rte/sc_display.h ****    //Fire error events in case of invalid state
 206:.\source\rte/sc_display.h ****    if (signal->status == RTE_SIGNALSTATUS_INVALID)
 207:.\source\rte/sc_display.h ****    {
 208:.\source\rte/sc_display.h **** 	    //Pointer to the Taskarray, containing the tasks receiving the onUpdate events
 209:.\source\rte/sc_display.h **** 		TaskTypeArray* pTaskArray = signal->pSigCfg->onErrorTasks;
 210:.\source\rte/sc_display.h **** 
ARM GAS  C:\Users\aditi\AppData\Local\Temp\ccxJli9U.s 			page 55


 211:.\source\rte/sc_display.h **** 		if (NULL!=signal->pSigCfg->evOnError && NULL != pTaskArray){
 212:.\source\rte/sc_display.h **** 			for( taskNum=0 ; taskNum < signal->pSigCfg->onErrorTaskCount ;taskNum++){
 213:.\source\rte/sc_display.h **** 				TaskType task = (*pTaskArray)[taskNum];
 214:.\source\rte/sc_display.h **** 				SetEvent( task, signal->pSigCfg->evOnError);
 215:.\source\rte/sc_display.h **** 			}
 216:.\source\rte/sc_display.h **** 		}
 217:.\source\rte/sc_display.h ****    }
 218:.\source\rte/sc_display.h ****    
 219:.\source\rte/sc_display.h ****    return RC_SUCCESS;
 220:.\source\rte/sc_display.h **** }
 221:.\source\rte/sc_display.h **** 
 222:.\source\rte/sc_display.h **** 
 223:.\source\rte/sc_display.h **** /**
 224:.\source\rte/sc_display.h ****  * Returns the count of refreshing trials (refresh, set or set_raw) that failed.
 225:.\source\rte/sc_display.h ****  * Prerquisite: The signal is refreshed cyclically
 226:.\source\rte/sc_display.h ****  *
 227:.\source\rte/sc_display.h ****  * @param  SC_DISPLAY_t * const signal: Pointer to the signal object
 228:.\source\rte/sc_display.h ****  * @return uint32_t: Number of cycles since the signal has been updated for the last time
 229:.\source\rte/sc_display.h ****  */
 230:.\source\rte/sc_display.h **** inline uint32_t RTE_SC_DISPLAY_getAge( const SC_DISPLAY_t * const signal )
 231:.\source\rte/sc_display.h **** {
 232:.\source\rte/sc_display.h ****    return signal->age;
 233:.\source\rte/sc_display.h **** }
 234:.\source\rte/sc_display.h **** 
 235:.\source\rte/sc_display.h **** /**
 236:.\source\rte/sc_display.h ****  * Should be called by application or driver if no new value can be provided.
 237:.\source\rte/sc_display.h ****  * @param  SC_DISPLAY_t * const signal: Pointer to the signal object
 238:.\source\rte/sc_display.h ****  * @param uint32_t increment: incrementvalue, typically in [ms]
 239:.\source\rte/sc_display.h ****  * @return void
 240:.\source\rte/sc_display.h ****  */
 241:.\source\rte/sc_display.h **** inline void RTE_SC_DISPLAY_incAge(  SC_DISPLAY_t * const signal , uint32_t increment)
 242:.\source\rte/sc_display.h **** {
 243:.\source\rte/sc_display.h **** 	   //Hack....
 244:.\source\rte/sc_display.h **** 	   if ( 0xFFFF0000 > (signal->age + increment) )
 245:.\source\rte/sc_display.h **** 	   {
 246:.\source\rte/sc_display.h **** 	      signal->age += increment;
 247:.\source\rte/sc_display.h **** 	   }
 248:.\source\rte/sc_display.h **** }
 249:.\source\rte/sc_display.h **** 
 250:.\source\rte/sc_display.h **** 
 251:.\source\rte/sc_display.h **** /**************************************************************************************************
 252:.\source\rte/sc_display.h **** /* Application Data read/write Interface																			*/
 253:.\source\rte/sc_display.h **** /**************************************************************************************************
 254:.\source\rte/sc_display.h **** 
 255:.\source\rte/sc_display.h **** /**
 256:.\source\rte/sc_display.h ****  * Returns the current application value of the passed signal instance.
 257:.\source\rte/sc_display.h ****  *
 258:.\source\rte/sc_display.h ****  * @param  SC_DISPLAY_t * const signal: Pointer to the signal object
 259:.\source\rte/sc_display.h ****  * @return sc_display_data_t: current value of the application data buffer
 260:.\source\rte/sc_display.h ****  *
 261:.\source\rte/sc_display.h ****  **/
 262:.\source\rte/sc_display.h **** inline SC_DISPLAY_data_t RTE_SC_DISPLAY_get( const SC_DISPLAY_t * const signal )
 263:.\source\rte/sc_display.h **** {               
 264:.\source\rte/sc_display.h ****    //Todo: Critical region cannot be protected using return values																						
 265:.\source\rte/sc_display.h ****    return signal->value;                                                                           
 266:.\source\rte/sc_display.h **** }                                                                                                  
 267:.\source\rte/sc_display.h ****                                                                                                    
ARM GAS  C:\Users\aditi\AppData\Local\Temp\ccxJli9U.s 			page 56


 268:.\source\rte/sc_display.h **** /**
 269:.\source\rte/sc_display.h ****  * Returns the current application value of the passed signal instance threadsafe.
 270:.\source\rte/sc_display.h ****  *
 271:.\source\rte/sc_display.h ****  * @param  SC_DISPLAY_t * const signal: Pointer to the signal object
 272:.\source\rte/sc_display.h ****  * @param  SC_DISPLAY_data_t* data: Pointer to the return data Pointer to the signal object
 273:.\source\rte/sc_display.h ****  * @return RC_SUCCESS
 274:.\source\rte/sc_display.h ****  *
 275:.\source\rte/sc_display.h ****  **/
 276:.\source\rte/sc_display.h **** inline RC_t RTE_SC_DISPLAY_getThreadSafe( const SC_DISPLAY_t * const signal, SC_DISPLAY_data_t * co
 277:.\source\rte/sc_display.h **** {    
 278:.\source\rte/sc_display.h ****    if (TRUE == signal->pSigCfg->resourceActive) GetResource(signal->pSigCfg->resource);
 279:.\source\rte/sc_display.h ****    *data = signal->value;
 280:.\source\rte/sc_display.h ****    if (TRUE == signal->pSigCfg->resourceActive) ReleaseResource(signal->pSigCfg->resource);        
 281:.\source\rte/sc_display.h **** 
 282:.\source\rte/sc_display.h ****    return RC_SUCCESS;                                                                   
 283:.\source\rte/sc_display.h ****    
 284:.\source\rte/sc_display.h **** }                                                                                                  
 285:.\source\rte/sc_display.h ****                                                                                                    
 286:.\source\rte/sc_display.h **** /**
 287:.\source\rte/sc_display.h ****  * Sets a new application value to the passed signal instance by passing the new value.
 288:.\source\rte/sc_display.h ****  * The corresponding driver raw value will be calculated immediately by using the default conversio
 289:.\source\rte/sc_display.h ****  * signal specific scaling function.
 290:.\source\rte/sc_display.h ****  * The signal age will be set to 0 and the new status will be 'RTE_SIGNALSTATUS_VALID'.
 291:.\source\rte/sc_display.h ****  *
 292:.\source\rte/sc_display.h ****  * @param  SC_DISPLAY_t * const signal: Pointer to the signal object
 293:.\source\rte/sc_display.h ****  * @param  sc_display_data_t const value: value for the application data buffer
 294:.\source\rte/sc_display.h ****  * @return RC_t: standard return code, currently only RC_SUCCESS
 295:.\source\rte/sc_display.h ****  *
 296:.\source\rte/sc_display.h ****  **/
 297:.\source\rte/sc_display.h **** inline RC_t RTE_SC_DISPLAY_set(SC_DISPLAY_t * const signal, const SC_DISPLAY_data_t value  )
 298:.\source\rte/sc_display.h **** {
 299:.\source\rte/sc_display.h **** 
 300:.\source\rte/sc_display.h ****    RC_t ret = RC_SUCCESS;
 301:.\source\rte/sc_display.h ****    size_t taskNum=0;
 302:.\source\rte/sc_display.h **** 
 303:.\source\rte/sc_display.h **** 
 304:.\source\rte/sc_display.h ****    if (TRUE == signal->pSigCfg->resourceActive) GetResource(signal->pSigCfg->resource);
 1555              		.loc 4 304 0
 1556 004e 134B     		ldr	r3, .L115+8
 1557 0050 DA68     		ldr	r2, [r3, #12]
 305:.\source\rte/sc_display.h ****    signal->value  = value;
 1558              		.loc 4 305 0
 1559 0052 1960     		str	r1, [r3]
 306:.\source\rte/sc_display.h ****    signal->age    = 0;
 1560              		.loc 4 306 0
 1561 0054 0021     		movs	r1, #0
 1562 0056 9960     		str	r1, [r3, #8]
 307:.\source\rte/sc_display.h ****    signal->status = RTE_SIGNALSTATUS_VALID;
 1563              		.loc 4 307 0
 1564 0058 0221     		movs	r1, #2
 1565 005a 1971     		strb	r1, [r3, #4]
 308:.\source\rte/sc_display.h ****    if (TRUE == signal->pSigCfg->resourceActive) ReleaseResource(signal->pSigCfg->resource);
 309:.\source\rte/sc_display.h **** 
 310:.\source\rte/sc_display.h ****    //Pointer to the Taskarray, containing the tasks receiving the onUpdate events
 311:.\source\rte/sc_display.h ****    TaskTypeArray* pTaskArray = signal->pSigCfg->onUpdateTasks;
 1566              		.loc 4 311 0
 1567 005c 5569     		ldr	r5, [r2, #20]
ARM GAS  C:\Users\aditi\AppData\Local\Temp\ccxJli9U.s 			page 57


 1568              	.LVL138:
 312:.\source\rte/sc_display.h **** 
 313:.\source\rte/sc_display.h ****    if (NULL!=signal->pSigCfg->evOnUpdate && NULL != pTaskArray){
 1569              		.loc 4 313 0
 1570 005e 9368     		ldr	r3, [r2, #8]
 1571 0060 73B1     		cbz	r3, .L109
 1572 0062 3DB9     		cbnz	r5, .L113
 1573 0064 0CE0     		b	.L109
 1574              	.LVL139:
 1575              	.L111:
 1576              	.LBB126:
 314:.\source\rte/sc_display.h ****       for( taskNum=0 ; taskNum < signal->pSigCfg->onUpdateTaskCount ;taskNum++){
 315:.\source\rte/sc_display.h **** 		  
 316:.\source\rte/sc_display.h ****           TaskType task = (*pTaskArray)[taskNum];
 317:.\source\rte/sc_display.h **** 	      SetEvent( task, signal->pSigCfg->evOnUpdate);
 1577              		.loc 4 317 0
 1578 0066 9968     		ldr	r1, [r3, #8]
 1579 0068 55F82400 		ldr	r0, [r5, r4, lsl #2]
 1580 006c FFF7FEFF 		bl	EE_oo_SetEvent
 1581              	.LVL140:
 1582              	.LBE126:
 314:.\source\rte/sc_display.h ****       for( taskNum=0 ; taskNum < signal->pSigCfg->onUpdateTaskCount ;taskNum++){
 1583              		.loc 4 314 0
 1584 0070 0134     		adds	r4, r4, #1
 1585              	.LVL141:
 1586 0072 00E0     		b	.L110
 1587              	.LVL142:
 1588              	.L113:
 313:.\source\rte/sc_display.h ****       for( taskNum=0 ; taskNum < signal->pSigCfg->onUpdateTaskCount ;taskNum++){
 1589              		.loc 4 313 0
 1590 0074 0024     		movs	r4, #0
 1591              	.LVL143:
 1592              	.L110:
 314:.\source\rte/sc_display.h ****       for( taskNum=0 ; taskNum < signal->pSigCfg->onUpdateTaskCount ;taskNum++){
 1593              		.loc 4 314 0
 1594 0076 094B     		ldr	r3, .L115+8
 1595 0078 DB68     		ldr	r3, [r3, #12]
 1596 007a 1A69     		ldr	r2, [r3, #16]
 1597 007c 9442     		cmp	r4, r2
 1598 007e F2D3     		bcc	.L111
 1599              	.LVL144:
 1600              	.L109:
 1601              	.LBE125:
 1602              	.LBE124:
 1603              	.LBB127:
 1604              	.LBB128:
 318:.\source\rte/sc_display.h ****       }
 319:.\source\rte/sc_display.h ****    }
 320:.\source\rte/sc_display.h **** 
 321:.\source\rte/sc_display.h ****    return ret;
 322:.\source\rte/sc_display.h **** }                                                                                                  
 323:.\source\rte/sc_display.h ****                                                                                                    
 324:.\source\rte/sc_display.h ****                                                                                                    
 325:.\source\rte/sc_display.h **** /**************************************************************************************************
 326:.\source\rte/sc_display.h **** /* Call functions to the connected drivers																			*/
 327:.\source\rte/sc_display.h **** /**************************************************************************************************
 328:.\source\rte/sc_display.h **** 
ARM GAS  C:\Users\aditi\AppData\Local\Temp\ccxJli9U.s 			page 58


 329:.\source\rte/sc_display.h ****                                                                                                    
 330:.\source\rte/sc_display.h **** /**
 331:.\source\rte/sc_display.h ****  *  Calls the connected driver interface to get a new value.
 332:.\source\rte/sc_display.h ****  *
 333:.\source\rte/sc_display.h ****  * @param SC_DISPLAY_t * const signal: Pointer to the signal object
 334:.\source\rte/sc_display.h ****  * @return  RC_t: Return value of the driver call
 335:.\source\rte/sc_display.h ****  *
 336:.\source\rte/sc_display.h ****  */
 337:.\source\rte/sc_display.h **** inline RC_t RTE_SC_DISPLAY_pullPort( SC_DISPLAY_t * const signal )
 338:.\source\rte/sc_display.h **** {                                                                                                  
 339:.\source\rte/sc_display.h ****    RC_t ret = RC_SUCCESS;
 340:.\source\rte/sc_display.h **** 
 341:.\source\rte/sc_display.h ****                                                                                                    
 342:.\source\rte/sc_display.h ****    if ( NULL != signal->pSigCfg->inDriver )
 343:.\source\rte/sc_display.h ****    {
 344:.\source\rte/sc_display.h **** 	  SC_DISPLAY_data_t value = signal->value;
 345:.\source\rte/sc_display.h ****       ret = signal->pSigCfg->inDriver(&value);
 346:.\source\rte/sc_display.h ****                                                                                                    
 347:.\source\rte/sc_display.h ****       if ( ret == RC_SUCCESS )                                                                     
 348:.\source\rte/sc_display.h ****       {
 349:.\source\rte/sc_display.h ****     	  //Critical Section
 350:.\source\rte/sc_display.h ****     	  RTE_SC_DISPLAY_set(signal, value);
 351:.\source\rte/sc_display.h ****       }
 352:.\source\rte/sc_display.h ****       else
 353:.\source\rte/sc_display.h ****       {
 354:.\source\rte/sc_display.h **** 		  //Signal is invalid. Error event (if present) will be fired
 355:.\source\rte/sc_display.h **** 		  RTE_SC_DISPLAY_setStatus(signal, RTE_SIGNALSTATUS_INVALID);
 356:.\source\rte/sc_display.h ****       }
 357:.\source\rte/sc_display.h **** 
 358:.\source\rte/sc_display.h ****    }                                                                                               
 359:.\source\rte/sc_display.h ****                                                                                                    
 360:.\source\rte/sc_display.h ****    return ret;                                                                                     
 361:.\source\rte/sc_display.h **** }                                                                                                  
 362:.\source\rte/sc_display.h ****                                                                                                    
 363:.\source\rte/sc_display.h **** /**
 364:.\source\rte/sc_display.h ****  *  Calls the connected driver interfaces to send a value. Value will not be sent if it is INVALID.
 365:.\source\rte/sc_display.h ****  *
 366:.\source\rte/sc_display.h ****  * @param SC_DISPLAY_t * const signal: Pointer to the signal object
 367:.\source\rte/sc_display.h ****  * @return  RC_t: Return value of the driver call
 368:.\source\rte/sc_display.h ****  *
 369:.\source\rte/sc_display.h ****  **/
 370:.\source\rte/sc_display.h **** inline RC_t RTE_SC_DISPLAY_pushPort( const SC_DISPLAY_t * const signal )
 371:.\source\rte/sc_display.h **** {                                                                                                  
 372:.\source\rte/sc_display.h ****    RC_t ret = RC_ERROR;
 373:.\source\rte/sc_display.h **** 
 374:.\source\rte/sc_display.h ****    if (RTE_SIGNALSTATUS_VALID == signal->status)
 1605              		.loc 4 374 0
 1606 0080 064B     		ldr	r3, .L115+8
 1607 0082 1B79     		ldrb	r3, [r3, #4]	@ zero_extendqisi2
 1608 0084 022B     		cmp	r3, #2
 1609 0086 03D1     		bne	.L108
 375:.\source\rte/sc_display.h ****    {
 376:.\source\rte/sc_display.h **** 	   ret = signal->pSigCfg->outDriver(&(signal->value));
 1610              		.loc 4 376 0
 1611 0088 0448     		ldr	r0, .L115+8
 1612 008a C368     		ldr	r3, [r0, #12]
 1613 008c 5B68     		ldr	r3, [r3, #4]
ARM GAS  C:\Users\aditi\AppData\Local\Temp\ccxJli9U.s 			page 59


 1614 008e 9847     		blx	r3
 1615              	.LVL145:
 1616              	.L108:
 1617              	.LBE128:
 1618              	.LBE127:
 318:source\asw/swc_clock.c **** 
 1619              		.loc 1 318 0
 1620 0090 0DB0     		add	sp, sp, #52
 1621              		.cfi_def_cfa_offset 12
 1622              		@ sp needed
 1623 0092 30BD     		pop	{r4, r5, pc}
 1624              	.L116:
 1625              		.align	2
 1626              	.L115:
 1627 0094 00000000 		.word	SO_CLOCK_signal
 1628 0098 CDCCCCCC 		.word	-858993459
 1629 009c 00000000 		.word	SO_DISPLAY_signal
 1630              		.cfi_endproc
 1631              	.LFE143:
 1632              		.size	CLOCK_display_run, .-CLOCK_display_run
 1633              		.section	.text.ISR2_isr_button,"ax",%progbits
 1634              		.align	2
 1635              		.global	ISR2_isr_button
 1636              		.thumb
 1637              		.thumb_func
 1638              		.type	ISR2_isr_button, %function
 1639              	ISR2_isr_button:
 1640              	.LFB159:
 535:source\asw/swc_clock.c **** 
 536:source\asw/swc_clock.c **** /********************************************************************************
 537:source\asw/swc_clock.c ****  * ISR Definitions
 538:source\asw/swc_clock.c ****  ********************************************************************************/
 539:source\asw/swc_clock.c **** 
 540:source\asw/swc_clock.c **** ISR2(isr_button)
 541:source\asw/swc_clock.c **** {
 1641              		.loc 1 541 0
 1642              		.cfi_startproc
 1643              		@ args = 0, pretend = 0, frame = 0
 1644              		@ frame_needed = 0, uses_anonymous_args = 0
 1645 0000 38B5     		push	{r3, r4, r5, lr}
 1646              		.cfi_def_cfa_offset 16
 1647              		.cfi_offset 3, -16
 1648              		.cfi_offset 4, -12
 1649              		.cfi_offset 5, -8
 1650              		.cfi_offset 14, -4
 542:source\asw/swc_clock.c ****     //Local copy of event signal
 543:source\asw/swc_clock.c ****     SC_EVENT_data_t eventSignal_t;
 544:source\asw/swc_clock.c ****     
 545:source\asw/swc_clock.c ****     if(1 == Pin_ButtonLeft_Read())          
 1651              		.loc 1 545 0
 1652 0002 FFF7FEFF 		bl	Pin_ButtonLeft_Read
 1653              	.LVL146:
 1654 0006 0128     		cmp	r0, #1
 1655 0008 02D1     		bne	.L118
 546:source\asw/swc_clock.c ****     {
 547:source\asw/swc_clock.c ****         eventSignal_t.m_ev = EV_KEYLEFT;
 1656              		.loc 1 547 0
ARM GAS  C:\Users\aditi\AppData\Local\Temp\ccxJli9U.s 			page 60


 1657 000a 4FF00104 		mov	r4, #1
 1658              	.LVL147:
 1659 000e 08E0     		b	.L119
 1660              	.L118:
 548:source\asw/swc_clock.c ****     }
 549:source\asw/swc_clock.c ****     else if (1 == Pin_ButtonRight_Read())   
 1661              		.loc 1 549 0
 1662 0010 FFF7FEFF 		bl	Pin_ButtonRight_Read
 1663              	.LVL148:
 1664 0014 0128     		cmp	r0, #1
 1665 0016 04D1     		bne	.L119
 550:source\asw/swc_clock.c ****     {
 551:source\asw/swc_clock.c ****         interruptFlag = 1;
 1666              		.loc 1 551 0
 1667 0018 0122     		movs	r2, #1
 1668 001a 0F4B     		ldr	r3, .L125
 1669 001c 9A70     		strb	r2, [r3, #2]
 552:source\asw/swc_clock.c ****         eventSignal_t.m_ev = EV_KEYRIGHT;
 1670              		.loc 1 552 0
 1671 001e 4FF00204 		mov	r4, #2
 1672              	.L119:
 1673              	.LVL149:
 1674              	.LBB129:
 1675              	.LBB130:
 304:.\source\rte/sc_event.h ****    signal->value  = value;
 1676              		.loc 3 304 0
 1677 0022 0E4B     		ldr	r3, .L125+4
 1678 0024 9A68     		ldr	r2, [r3, #8]
 1679              	.LVL150:
 305:.\source\rte/sc_event.h ****    signal->age    = 0;
 1680              		.loc 3 305 0
 1681 0026 1C70     		strb	r4, [r3]
 306:.\source\rte/sc_event.h ****    signal->status = RTE_SIGNALSTATUS_VALID;
 1682              		.loc 3 306 0
 1683 0028 0021     		movs	r1, #0
 1684 002a 5960     		str	r1, [r3, #4]
 307:.\source\rte/sc_event.h ****    if (TRUE == signal->pSigCfg->resourceActive) ReleaseResource(signal->pSigCfg->resource);
 1685              		.loc 3 307 0
 1686 002c 0221     		movs	r1, #2
 1687 002e 5970     		strb	r1, [r3, #1]
 311:.\source\rte/sc_event.h **** 
 1688              		.loc 3 311 0
 1689 0030 5569     		ldr	r5, [r2, #20]
 1690              	.LVL151:
 313:.\source\rte/sc_event.h ****       for( taskNum=0 ; taskNum < signal->pSigCfg->onUpdateTaskCount ;taskNum++){
 1691              		.loc 3 313 0
 1692 0032 9368     		ldr	r3, [r2, #8]
 1693 0034 73B1     		cbz	r3, .L117
 1694 0036 3DB9     		cbnz	r5, .L123
 1695 0038 38BD     		pop	{r3, r4, r5, pc}
 1696              	.LVL152:
 1697              	.L122:
 1698              	.LBB131:
 1699              		.loc 3 317 0
 1700 003a 9968     		ldr	r1, [r3, #8]
 1701 003c 55F82400 		ldr	r0, [r5, r4, lsl #2]
 1702 0040 FFF7FEFF 		bl	EE_oo_SetEvent
ARM GAS  C:\Users\aditi\AppData\Local\Temp\ccxJli9U.s 			page 61


 1703              	.LVL153:
 1704              	.LBE131:
 314:.\source\rte/sc_event.h **** 		  
 1705              		.loc 3 314 0
 1706 0044 0134     		adds	r4, r4, #1
 1707              	.LVL154:
 1708 0046 00E0     		b	.L121
 1709              	.LVL155:
 1710              	.L123:
 313:.\source\rte/sc_event.h ****       for( taskNum=0 ; taskNum < signal->pSigCfg->onUpdateTaskCount ;taskNum++){
 1711              		.loc 3 313 0
 1712 0048 0024     		movs	r4, #0
 1713              	.LVL156:
 1714              	.L121:
 314:.\source\rte/sc_event.h **** 		  
 1715              		.loc 3 314 0
 1716 004a 044B     		ldr	r3, .L125+4
 1717 004c 9B68     		ldr	r3, [r3, #8]
 1718 004e 1A69     		ldr	r2, [r3, #16]
 1719 0050 9442     		cmp	r4, r2
 1720 0052 F2D3     		bcc	.L122
 1721              	.LVL157:
 1722              	.L117:
 1723 0054 38BD     		pop	{r3, r4, r5, pc}
 1724              	.LVL158:
 1725              	.L126:
 1726 0056 00BF     		.align	2
 1727              	.L125:
 1728 0058 00000000 		.word	.LANCHOR1
 1729 005c 00000000 		.word	SO_EVENT_signal
 1730              	.LBE130:
 1731              	.LBE129:
 1732              		.cfi_endproc
 1733              	.LFE159:
 1734              		.size	ISR2_isr_button, .-ISR2_isr_button
 1735              		.section	.text.isr_button,"ax",%progbits
 1736              		.align	2
 1737              		.global	isr_button
 1738              		.thumb
 1739              		.thumb_func
 1740              		.type	isr_button, %function
 1741              	isr_button:
 1742              	.LFB158:
 540:source\asw/swc_clock.c **** {
 1743              		.loc 1 540 0
 1744              		.cfi_startproc
 1745              		@ Stack Align: May be called with mis-aligned SP.
 1746              		@ args = 0, pretend = 0, frame = 0
 1747              		@ frame_needed = 0, uses_anonymous_args = 0
 1748 0000 6846     		mov	r0, sp
 1749              		.cfi_register 13, 0
 1750 0002 20F00701 		bic	r1, r0, #7
 1751 0006 8D46     		mov	sp, r1
 1752 0008 19B5     		push	{r0, r3, r4, lr}
 1753              		.cfi_def_cfa_offset 16
 1754              		.cfi_offset 13, -16
 1755              		.cfi_offset 3, -12
ARM GAS  C:\Users\aditi\AppData\Local\Temp\ccxJli9U.s 			page 62


 1756              		.cfi_offset 4, -8
 1757              		.cfi_offset 14, -4
 1758              	.LVL159:
 1759              	.LBB156:
 1760              	.LBB157:
 1761              		.file 5 "Generated_Source\\PSoC5/ErikaOS_cortex_mx_ee_cpu.inc"
   1:Generated_Source\PSoC5/ErikaOS_cortex_mx_ee_cpu.inc **** /* ###*B*###
   2:Generated_Source\PSoC5/ErikaOS_cortex_mx_ee_cpu.inc ****  * ERIKA Enterprise - a tiny RTOS for small microcontrollers
   3:Generated_Source\PSoC5/ErikaOS_cortex_mx_ee_cpu.inc ****  *
   4:Generated_Source\PSoC5/ErikaOS_cortex_mx_ee_cpu.inc ****  * Copyright (C) 2002-2011  Evidence Srl
   5:Generated_Source\PSoC5/ErikaOS_cortex_mx_ee_cpu.inc ****  *
   6:Generated_Source\PSoC5/ErikaOS_cortex_mx_ee_cpu.inc ****  * This file is part of ERIKA Enterprise.
   7:Generated_Source\PSoC5/ErikaOS_cortex_mx_ee_cpu.inc ****  *
   8:Generated_Source\PSoC5/ErikaOS_cortex_mx_ee_cpu.inc ****  * ERIKA Enterprise is free software; you can redistribute it
   9:Generated_Source\PSoC5/ErikaOS_cortex_mx_ee_cpu.inc ****  * and/or modify it under the terms of the GNU General Public License
  10:Generated_Source\PSoC5/ErikaOS_cortex_mx_ee_cpu.inc ****  * version 2 as published by the Free Software Foundation, 
  11:Generated_Source\PSoC5/ErikaOS_cortex_mx_ee_cpu.inc ****  * (with a special exception described below).
  12:Generated_Source\PSoC5/ErikaOS_cortex_mx_ee_cpu.inc ****  *
  13:Generated_Source\PSoC5/ErikaOS_cortex_mx_ee_cpu.inc ****  * Linking this code statically or dynamically with other modules is
  14:Generated_Source\PSoC5/ErikaOS_cortex_mx_ee_cpu.inc ****  * making a combined work based on this code.  Thus, the terms and
  15:Generated_Source\PSoC5/ErikaOS_cortex_mx_ee_cpu.inc ****  * conditions of the GNU General Public License cover the whole
  16:Generated_Source\PSoC5/ErikaOS_cortex_mx_ee_cpu.inc ****  * combination.
  17:Generated_Source\PSoC5/ErikaOS_cortex_mx_ee_cpu.inc ****  *
  18:Generated_Source\PSoC5/ErikaOS_cortex_mx_ee_cpu.inc ****  * As a special exception, the copyright holders of this library give you
  19:Generated_Source\PSoC5/ErikaOS_cortex_mx_ee_cpu.inc ****  * permission to link this code with independent modules to produce an
  20:Generated_Source\PSoC5/ErikaOS_cortex_mx_ee_cpu.inc ****  * executable, regardless of the license terms of these independent
  21:Generated_Source\PSoC5/ErikaOS_cortex_mx_ee_cpu.inc ****  * modules, and to copy and distribute the resulting executable under
  22:Generated_Source\PSoC5/ErikaOS_cortex_mx_ee_cpu.inc ****  * terms of your choice, provided that you also meet, for each linked
  23:Generated_Source\PSoC5/ErikaOS_cortex_mx_ee_cpu.inc ****  * independent module, the terms and conditions of the license of that
  24:Generated_Source\PSoC5/ErikaOS_cortex_mx_ee_cpu.inc ****  * module.  An independent module is a module which is not derived from
  25:Generated_Source\PSoC5/ErikaOS_cortex_mx_ee_cpu.inc ****  * or based on this library.  If you modify this code, you may extend
  26:Generated_Source\PSoC5/ErikaOS_cortex_mx_ee_cpu.inc ****  * this exception to your version of the code, but you are not
  27:Generated_Source\PSoC5/ErikaOS_cortex_mx_ee_cpu.inc ****  * obligated to do so.  If you do not wish to do so, delete this
  28:Generated_Source\PSoC5/ErikaOS_cortex_mx_ee_cpu.inc ****  * exception statement from your version.
  29:Generated_Source\PSoC5/ErikaOS_cortex_mx_ee_cpu.inc ****  *
  30:Generated_Source\PSoC5/ErikaOS_cortex_mx_ee_cpu.inc ****  * ERIKA Enterprise is distributed in the hope that it will be
  31:Generated_Source\PSoC5/ErikaOS_cortex_mx_ee_cpu.inc ****  * useful, but WITHOUT ANY WARRANTY; without even the implied warranty
  32:Generated_Source\PSoC5/ErikaOS_cortex_mx_ee_cpu.inc ****  * of MERCHANTABILITY or FITNESS FOR A PARTICULAR PURPOSE.  See the
  33:Generated_Source\PSoC5/ErikaOS_cortex_mx_ee_cpu.inc ****  * GNU General Public License version 2 for more details.
  34:Generated_Source\PSoC5/ErikaOS_cortex_mx_ee_cpu.inc ****  *
  35:Generated_Source\PSoC5/ErikaOS_cortex_mx_ee_cpu.inc ****  * You should have received a copy of the GNU General Public License
  36:Generated_Source\PSoC5/ErikaOS_cortex_mx_ee_cpu.inc ****  * version 2 along with ERIKA Enterprise; if not, write to the
  37:Generated_Source\PSoC5/ErikaOS_cortex_mx_ee_cpu.inc ****  * Free Software Foundation, Inc., 51 Franklin Street, Fifth Floor,
  38:Generated_Source\PSoC5/ErikaOS_cortex_mx_ee_cpu.inc ****  * Boston, MA 02110-1301 USA.
  39:Generated_Source\PSoC5/ErikaOS_cortex_mx_ee_cpu.inc ****  * ###*E*### */
  40:Generated_Source\PSoC5/ErikaOS_cortex_mx_ee_cpu.inc **** 
  41:Generated_Source\PSoC5/ErikaOS_cortex_mx_ee_cpu.inc **** /** 
  42:Generated_Source\PSoC5/ErikaOS_cortex_mx_ee_cpu.inc **** 	@file ee_cpu.h
  43:Generated_Source\PSoC5/ErikaOS_cortex_mx_ee_cpu.inc **** 	@brief CPU-dependent part of HAL. Derived from pkg/cpu/pic30/inc/ee_cpu.h
  44:Generated_Source\PSoC5/ErikaOS_cortex_mx_ee_cpu.inc **** 	@author Gianluca Franchino
  45:Generated_Source\PSoC5/ErikaOS_cortex_mx_ee_cpu.inc **** 	@author Giuseppe Serano
  46:Generated_Source\PSoC5/ErikaOS_cortex_mx_ee_cpu.inc **** 	@date 2011
  47:Generated_Source\PSoC5/ErikaOS_cortex_mx_ee_cpu.inc **** */ 
  48:Generated_Source\PSoC5/ErikaOS_cortex_mx_ee_cpu.inc ****     
  49:Generated_Source\PSoC5/ErikaOS_cortex_mx_ee_cpu.inc **** /*
  50:Generated_Source\PSoC5/ErikaOS_cortex_mx_ee_cpu.inc ****  * PSoC Port and API Generation
  51:Generated_Source\PSoC5/ErikaOS_cortex_mx_ee_cpu.inc ****  * Carlos Fernando Meier Martinez
ARM GAS  C:\Users\aditi\AppData\Local\Temp\ccxJli9U.s 			page 63


  52:Generated_Source\PSoC5/ErikaOS_cortex_mx_ee_cpu.inc ****  * Hochschule Darmstadt, Germany. 2017.
  53:Generated_Source\PSoC5/ErikaOS_cortex_mx_ee_cpu.inc ****  */
  54:Generated_Source\PSoC5/ErikaOS_cortex_mx_ee_cpu.inc **** 
  55:Generated_Source\PSoC5/ErikaOS_cortex_mx_ee_cpu.inc **** #ifndef __INCLUDE_CORTEX_MX_EE_CPU_H__
  56:Generated_Source\PSoC5/ErikaOS_cortex_mx_ee_cpu.inc **** #define __INCLUDE_CORTEX_MX_EE_CPU_H__
  57:Generated_Source\PSoC5/ErikaOS_cortex_mx_ee_cpu.inc **** 
  58:Generated_Source\PSoC5/ErikaOS_cortex_mx_ee_cpu.inc **** #include "ErikaOS_eecfg.inc"
  59:Generated_Source\PSoC5/ErikaOS_cortex_mx_ee_cpu.inc **** 
  60:Generated_Source\PSoC5/ErikaOS_cortex_mx_ee_cpu.inc **** 
  61:Generated_Source\PSoC5/ErikaOS_cortex_mx_ee_cpu.inc **** #ifdef __GNU__
  62:Generated_Source\PSoC5/ErikaOS_cortex_mx_ee_cpu.inc **** #include "ErikaOS_common_ee_compiler_gcc.inc"
  63:Generated_Source\PSoC5/ErikaOS_cortex_mx_ee_cpu.inc **** #endif
  64:Generated_Source\PSoC5/ErikaOS_cortex_mx_ee_cpu.inc **** 
  65:Generated_Source\PSoC5/ErikaOS_cortex_mx_ee_cpu.inc **** /* Initial stack offset (in words): Used in multistack. */
  66:Generated_Source\PSoC5/ErikaOS_cortex_mx_ee_cpu.inc **** #ifndef CORTEX_MX_INIT_TOS_OFFSET
  67:Generated_Source\PSoC5/ErikaOS_cortex_mx_ee_cpu.inc **** #define CORTEX_MX_INIT_TOS_OFFSET 10
  68:Generated_Source\PSoC5/ErikaOS_cortex_mx_ee_cpu.inc **** #endif
  69:Generated_Source\PSoC5/ErikaOS_cortex_mx_ee_cpu.inc **** 
  70:Generated_Source\PSoC5/ErikaOS_cortex_mx_ee_cpu.inc **** /*************************************************************************
  71:Generated_Source\PSoC5/ErikaOS_cortex_mx_ee_cpu.inc ****  HAL Types and structures
  72:Generated_Source\PSoC5/ErikaOS_cortex_mx_ee_cpu.inc ****  *************************************************************************/
  73:Generated_Source\PSoC5/ErikaOS_cortex_mx_ee_cpu.inc **** 
  74:Generated_Source\PSoC5/ErikaOS_cortex_mx_ee_cpu.inc **** /* Primitive data types */
  75:Generated_Source\PSoC5/ErikaOS_cortex_mx_ee_cpu.inc **** #include "ErikaOS_common_ee_types.inc"
  76:Generated_Source\PSoC5/ErikaOS_cortex_mx_ee_cpu.inc **** 
  77:Generated_Source\PSoC5/ErikaOS_cortex_mx_ee_cpu.inc **** typedef EE_UINT32 EE_UREG;
  78:Generated_Source\PSoC5/ErikaOS_cortex_mx_ee_cpu.inc **** typedef EE_INT32  EE_SREG;
  79:Generated_Source\PSoC5/ErikaOS_cortex_mx_ee_cpu.inc **** typedef EE_UINT32 EE_FREG;
  80:Generated_Source\PSoC5/ErikaOS_cortex_mx_ee_cpu.inc **** #define EE_UREG_SIZE 4
  81:Generated_Source\PSoC5/ErikaOS_cortex_mx_ee_cpu.inc **** 
  82:Generated_Source\PSoC5/ErikaOS_cortex_mx_ee_cpu.inc **** /* boolean type */
  83:Generated_Source\PSoC5/ErikaOS_cortex_mx_ee_cpu.inc **** #ifndef EE_TYPEBOOL
  84:Generated_Source\PSoC5/ErikaOS_cortex_mx_ee_cpu.inc **** typedef EE_UREG EE_TYPEBOOL;
  85:Generated_Source\PSoC5/ErikaOS_cortex_mx_ee_cpu.inc **** #endif
  86:Generated_Source\PSoC5/ErikaOS_cortex_mx_ee_cpu.inc **** 
  87:Generated_Source\PSoC5/ErikaOS_cortex_mx_ee_cpu.inc **** /* boolean true define */
  88:Generated_Source\PSoC5/ErikaOS_cortex_mx_ee_cpu.inc **** #ifndef EE_TRUE
  89:Generated_Source\PSoC5/ErikaOS_cortex_mx_ee_cpu.inc **** #define EE_TRUE ((EE_TYPEBOOL)1U)
  90:Generated_Source\PSoC5/ErikaOS_cortex_mx_ee_cpu.inc **** #endif
  91:Generated_Source\PSoC5/ErikaOS_cortex_mx_ee_cpu.inc **** 
  92:Generated_Source\PSoC5/ErikaOS_cortex_mx_ee_cpu.inc **** /* boolean false define */
  93:Generated_Source\PSoC5/ErikaOS_cortex_mx_ee_cpu.inc **** #ifndef EE_FALSE
  94:Generated_Source\PSoC5/ErikaOS_cortex_mx_ee_cpu.inc **** #define EE_FALSE ((EE_TYPEBOOL)0U)
  95:Generated_Source\PSoC5/ErikaOS_cortex_mx_ee_cpu.inc **** #endif
  96:Generated_Source\PSoC5/ErikaOS_cortex_mx_ee_cpu.inc **** 
  97:Generated_Source\PSoC5/ErikaOS_cortex_mx_ee_cpu.inc **** #define	EE_HWREG_PTR		volatile EE_UREG *
  98:Generated_Source\PSoC5/ErikaOS_cortex_mx_ee_cpu.inc **** #define	EE_HWREG_ADDR(x)	((EE_HWREG_PTR)(x))
  99:Generated_Source\PSoC5/ErikaOS_cortex_mx_ee_cpu.inc **** #define	EE_HWREG(x)		(*EE_HWREG_ADDR(x))
 100:Generated_Source\PSoC5/ErikaOS_cortex_mx_ee_cpu.inc **** 
 101:Generated_Source\PSoC5/ErikaOS_cortex_mx_ee_cpu.inc **** #ifdef __GNU__
 102:Generated_Source\PSoC5/ErikaOS_cortex_mx_ee_cpu.inc **** 
 103:Generated_Source\PSoC5/ErikaOS_cortex_mx_ee_cpu.inc **** /* Get current SP */
 104:Generated_Source\PSoC5/ErikaOS_cortex_mx_ee_cpu.inc **** __INLINE__ EE_UINT32  __current_sp(void)
 105:Generated_Source\PSoC5/ErikaOS_cortex_mx_ee_cpu.inc **** {
 106:Generated_Source\PSoC5/ErikaOS_cortex_mx_ee_cpu.inc **** EE_UINT32 temp;
 107:Generated_Source\PSoC5/ErikaOS_cortex_mx_ee_cpu.inc **** __ASM ("mov %0, sp" : "=r" (temp) : );
 108:Generated_Source\PSoC5/ErikaOS_cortex_mx_ee_cpu.inc **** return temp;
ARM GAS  C:\Users\aditi\AppData\Local\Temp\ccxJli9U.s 			page 64


 109:Generated_Source\PSoC5/ErikaOS_cortex_mx_ee_cpu.inc **** }
 110:Generated_Source\PSoC5/ErikaOS_cortex_mx_ee_cpu.inc **** 
 111:Generated_Source\PSoC5/ErikaOS_cortex_mx_ee_cpu.inc **** /* Set a breakpoint */
 112:Generated_Source\PSoC5/ErikaOS_cortex_mx_ee_cpu.inc **** #define __breakpoint(value)	__ASM ("bkpt "#value)
 113:Generated_Source\PSoC5/ErikaOS_cortex_mx_ee_cpu.inc **** 
 114:Generated_Source\PSoC5/ErikaOS_cortex_mx_ee_cpu.inc **** #endif
 115:Generated_Source\PSoC5/ErikaOS_cortex_mx_ee_cpu.inc **** 
 116:Generated_Source\PSoC5/ErikaOS_cortex_mx_ee_cpu.inc **** /* ISR Priority representation type */
 117:Generated_Source\PSoC5/ErikaOS_cortex_mx_ee_cpu.inc **** typedef EE_UREG EE_TYPEISR2PRIO;
 118:Generated_Source\PSoC5/ErikaOS_cortex_mx_ee_cpu.inc **** 
 119:Generated_Source\PSoC5/ErikaOS_cortex_mx_ee_cpu.inc **** /* Thread IDs */
 120:Generated_Source\PSoC5/ErikaOS_cortex_mx_ee_cpu.inc **** typedef EE_INT32 EE_TID;
 121:Generated_Source\PSoC5/ErikaOS_cortex_mx_ee_cpu.inc **** 
 122:Generated_Source\PSoC5/ErikaOS_cortex_mx_ee_cpu.inc **** /* Thread IDs - unsigned version*/
 123:Generated_Source\PSoC5/ErikaOS_cortex_mx_ee_cpu.inc **** typedef EE_UINT32 EE_UTID;
 124:Generated_Source\PSoC5/ErikaOS_cortex_mx_ee_cpu.inc **** 
 125:Generated_Source\PSoC5/ErikaOS_cortex_mx_ee_cpu.inc **** /* Used by the common layer to decide whether to start a new thread */
 126:Generated_Source\PSoC5/ErikaOS_cortex_mx_ee_cpu.inc **** #define TID_IS_STACKED_MARK 0x80000000
 127:Generated_Source\PSoC5/ErikaOS_cortex_mx_ee_cpu.inc **** 
 128:Generated_Source\PSoC5/ErikaOS_cortex_mx_ee_cpu.inc **** /* EE_TYPEIRQ is currently unused */
 129:Generated_Source\PSoC5/ErikaOS_cortex_mx_ee_cpu.inc **** 
 130:Generated_Source\PSoC5/ErikaOS_cortex_mx_ee_cpu.inc **** /* XXX: define EE_TIME? */
 131:Generated_Source\PSoC5/ErikaOS_cortex_mx_ee_cpu.inc **** 
 132:Generated_Source\PSoC5/ErikaOS_cortex_mx_ee_cpu.inc **** /* Use the "standard" implementation */
 133:Generated_Source\PSoC5/ErikaOS_cortex_mx_ee_cpu.inc **** #include "ErikaOS_common_ee_hal_structs.inc"
 134:Generated_Source\PSoC5/ErikaOS_cortex_mx_ee_cpu.inc **** 
 135:Generated_Source\PSoC5/ErikaOS_cortex_mx_ee_cpu.inc **** /******************************************************************************
 136:Generated_Source\PSoC5/ErikaOS_cortex_mx_ee_cpu.inc ****  Application dependent data types
 137:Generated_Source\PSoC5/ErikaOS_cortex_mx_ee_cpu.inc ****  ******************************************************************************/
 138:Generated_Source\PSoC5/ErikaOS_cortex_mx_ee_cpu.inc **** 
 139:Generated_Source\PSoC5/ErikaOS_cortex_mx_ee_cpu.inc **** #ifdef	__HAS_TYPES_H__
 140:Generated_Source\PSoC5/ErikaOS_cortex_mx_ee_cpu.inc **** #include	"types.h"
 141:Generated_Source\PSoC5/ErikaOS_cortex_mx_ee_cpu.inc **** #endif
 142:Generated_Source\PSoC5/ErikaOS_cortex_mx_ee_cpu.inc **** 
 143:Generated_Source\PSoC5/ErikaOS_cortex_mx_ee_cpu.inc **** /******************************************************************************
 144:Generated_Source\PSoC5/ErikaOS_cortex_mx_ee_cpu.inc ****  CPU Peripherals
 145:Generated_Source\PSoC5/ErikaOS_cortex_mx_ee_cpu.inc ****  ******************************************************************************/
 146:Generated_Source\PSoC5/ErikaOS_cortex_mx_ee_cpu.inc **** 
 147:Generated_Source\PSoC5/ErikaOS_cortex_mx_ee_cpu.inc **** #ifdef __CORTEX_MX__
 148:Generated_Source\PSoC5/ErikaOS_cortex_mx_ee_cpu.inc **** #include "ErikaOS_cortex_mx_ee_nvic.inc"
 149:Generated_Source\PSoC5/ErikaOS_cortex_mx_ee_cpu.inc **** #include "ErikaOS_cortex_mx_ee_systick.inc"
 150:Generated_Source\PSoC5/ErikaOS_cortex_mx_ee_cpu.inc **** #endif
 151:Generated_Source\PSoC5/ErikaOS_cortex_mx_ee_cpu.inc **** 
 152:Generated_Source\PSoC5/ErikaOS_cortex_mx_ee_cpu.inc **** /******************************************************************************
 153:Generated_Source\PSoC5/ErikaOS_cortex_mx_ee_cpu.inc ****  HAL Variables
 154:Generated_Source\PSoC5/ErikaOS_cortex_mx_ee_cpu.inc ****  ******************************************************************************/
 155:Generated_Source\PSoC5/ErikaOS_cortex_mx_ee_cpu.inc **** 
 156:Generated_Source\PSoC5/ErikaOS_cortex_mx_ee_cpu.inc **** #ifdef __MULTI__
 157:Generated_Source\PSoC5/ErikaOS_cortex_mx_ee_cpu.inc **** 
 158:Generated_Source\PSoC5/ErikaOS_cortex_mx_ee_cpu.inc **** /* Top-of-stack of each private stack */
 159:Generated_Source\PSoC5/ErikaOS_cortex_mx_ee_cpu.inc **** extern struct EE_TOS EE_cortex_mx_system_tos[];
 160:Generated_Source\PSoC5/ErikaOS_cortex_mx_ee_cpu.inc **** //#define	EE_std_system_tos EE_cortex_mx_system_tos
 161:Generated_Source\PSoC5/ErikaOS_cortex_mx_ee_cpu.inc **** 
 162:Generated_Source\PSoC5/ErikaOS_cortex_mx_ee_cpu.inc **** /* Index of the current stack */
 163:Generated_Source\PSoC5/ErikaOS_cortex_mx_ee_cpu.inc **** extern EE_UREG EE_cortex_mx_active_tos;
 164:Generated_Source\PSoC5/ErikaOS_cortex_mx_ee_cpu.inc **** #define	EE_hal_active_tos EE_cortex_mx_active_tos
 165:Generated_Source\PSoC5/ErikaOS_cortex_mx_ee_cpu.inc **** 
ARM GAS  C:\Users\aditi\AppData\Local\Temp\ccxJli9U.s 			page 65


 166:Generated_Source\PSoC5/ErikaOS_cortex_mx_ee_cpu.inc **** /*extern	EE_UREG EE_pic30_thread_tos[];
 167:Generated_Source\PSoC5/ErikaOS_cortex_mx_ee_cpu.inc **** #define	EE_std_thread_tos EE_pic30_thread_tos */
 168:Generated_Source\PSoC5/ErikaOS_cortex_mx_ee_cpu.inc **** #endif /* __MULTI__ */
 169:Generated_Source\PSoC5/ErikaOS_cortex_mx_ee_cpu.inc **** 
 170:Generated_Source\PSoC5/ErikaOS_cortex_mx_ee_cpu.inc **** /*********************************************************************
 171:Generated_Source\PSoC5/ErikaOS_cortex_mx_ee_cpu.inc ****  Cortex M0 interrupt disabling/enabling
 172:Generated_Source\PSoC5/ErikaOS_cortex_mx_ee_cpu.inc ****  *********************************************************************/
 173:Generated_Source\PSoC5/ErikaOS_cortex_mx_ee_cpu.inc **** 
 174:Generated_Source\PSoC5/ErikaOS_cortex_mx_ee_cpu.inc **** /* Used to check the value returned by EE_cortex_mx_disableIRQ */
 175:Generated_Source\PSoC5/ErikaOS_cortex_mx_ee_cpu.inc **** #define EE_cortex_mx_are_IRQs_enabled(ie) ((ie) ^ 1)
 176:Generated_Source\PSoC5/ErikaOS_cortex_mx_ee_cpu.inc **** 
 177:Generated_Source\PSoC5/ErikaOS_cortex_mx_ee_cpu.inc **** /**
 178:Generated_Source\PSoC5/ErikaOS_cortex_mx_ee_cpu.inc ****  * Enable interrupts
 179:Generated_Source\PSoC5/ErikaOS_cortex_mx_ee_cpu.inc ****  */
 180:Generated_Source\PSoC5/ErikaOS_cortex_mx_ee_cpu.inc **** __INLINE__ void  EE_cortex_mx_enableIRQ(void)
 181:Generated_Source\PSoC5/ErikaOS_cortex_mx_ee_cpu.inc **** {
 182:Generated_Source\PSoC5/ErikaOS_cortex_mx_ee_cpu.inc **** #ifdef __IAR__
 183:Generated_Source\PSoC5/ErikaOS_cortex_mx_ee_cpu.inc **** 	__ASM ("cpsie i");
 184:Generated_Source\PSoC5/ErikaOS_cortex_mx_ee_cpu.inc **** #else	/* __IAR__ */
 185:Generated_Source\PSoC5/ErikaOS_cortex_mx_ee_cpu.inc **** #ifdef __CCS__
 186:Generated_Source\PSoC5/ErikaOS_cortex_mx_ee_cpu.inc **** 	__ASM ("    cpsie    i\n");
 187:Generated_Source\PSoC5/ErikaOS_cortex_mx_ee_cpu.inc **** #else	/* __CCS__ */
 188:Generated_Source\PSoC5/ErikaOS_cortex_mx_ee_cpu.inc **** #ifdef __KEIL__
 189:Generated_Source\PSoC5/ErikaOS_cortex_mx_ee_cpu.inc **** 	__enable_irq();
 190:Generated_Source\PSoC5/ErikaOS_cortex_mx_ee_cpu.inc **** #else	/* __KEIL__ */
 191:Generated_Source\PSoC5/ErikaOS_cortex_mx_ee_cpu.inc **** 	__ASM volatile("cpsie i");
 192:Generated_Source\PSoC5/ErikaOS_cortex_mx_ee_cpu.inc **** #endif	/* !__KEIL__ */
 193:Generated_Source\PSoC5/ErikaOS_cortex_mx_ee_cpu.inc **** #endif	/* !__CCS__ */
 194:Generated_Source\PSoC5/ErikaOS_cortex_mx_ee_cpu.inc **** #endif	/* !__IAR__ */
 195:Generated_Source\PSoC5/ErikaOS_cortex_mx_ee_cpu.inc **** }
 196:Generated_Source\PSoC5/ErikaOS_cortex_mx_ee_cpu.inc **** 
 197:Generated_Source\PSoC5/ErikaOS_cortex_mx_ee_cpu.inc **** /**
 198:Generated_Source\PSoC5/ErikaOS_cortex_mx_ee_cpu.inc ****  * Disable interrupts
 199:Generated_Source\PSoC5/ErikaOS_cortex_mx_ee_cpu.inc ****  */
 200:Generated_Source\PSoC5/ErikaOS_cortex_mx_ee_cpu.inc **** __INLINE__ void  EE_cortex_mx_disableIRQ(void)
 201:Generated_Source\PSoC5/ErikaOS_cortex_mx_ee_cpu.inc **** {
 202:Generated_Source\PSoC5/ErikaOS_cortex_mx_ee_cpu.inc **** #ifdef __IAR__
 203:Generated_Source\PSoC5/ErikaOS_cortex_mx_ee_cpu.inc **** 	__ASM ("cpsid i");
 204:Generated_Source\PSoC5/ErikaOS_cortex_mx_ee_cpu.inc **** #else	/* __IAR__ */
 205:Generated_Source\PSoC5/ErikaOS_cortex_mx_ee_cpu.inc **** #ifdef __CCS__
 206:Generated_Source\PSoC5/ErikaOS_cortex_mx_ee_cpu.inc **** 	__ASM ("    cpsid    i\n");
 207:Generated_Source\PSoC5/ErikaOS_cortex_mx_ee_cpu.inc **** #else	/* __CCS__ */
 208:Generated_Source\PSoC5/ErikaOS_cortex_mx_ee_cpu.inc **** #ifdef __KEIL__
 209:Generated_Source\PSoC5/ErikaOS_cortex_mx_ee_cpu.inc **** 	__disable_irq();
 210:Generated_Source\PSoC5/ErikaOS_cortex_mx_ee_cpu.inc **** #else	/* __KEIL__ */
 211:Generated_Source\PSoC5/ErikaOS_cortex_mx_ee_cpu.inc **** 	__ASM volatile("cpsid i");
 1762              		.loc 5 211 0
 1763              		.syntax unified
 1764              	@ 211 "Generated_Source\PSoC5/ErikaOS_cortex_mx_ee_cpu.inc" 1
 1765 000a 72B6     		cpsid i
 1766              	@ 0 "" 2
 1767              		.thumb
 1768              		.syntax unified
 1769              	.LBE157:
 1770              	.LBE156:
 1771              	.LBB158:
 1772              	.LBB159:
ARM GAS  C:\Users\aditi\AppData\Local\Temp\ccxJli9U.s 			page 66


 212:Generated_Source\PSoC5/ErikaOS_cortex_mx_ee_cpu.inc **** #endif	/* !__KEIL__ */
 213:Generated_Source\PSoC5/ErikaOS_cortex_mx_ee_cpu.inc **** #endif	/* !__CCS__ */
 214:Generated_Source\PSoC5/ErikaOS_cortex_mx_ee_cpu.inc **** #endif	/* !__IAR__ */
 215:Generated_Source\PSoC5/ErikaOS_cortex_mx_ee_cpu.inc **** }
 216:Generated_Source\PSoC5/ErikaOS_cortex_mx_ee_cpu.inc **** 
 217:Generated_Source\PSoC5/ErikaOS_cortex_mx_ee_cpu.inc **** /**
 218:Generated_Source\PSoC5/ErikaOS_cortex_mx_ee_cpu.inc ****  * Resume interrupts
 219:Generated_Source\PSoC5/ErikaOS_cortex_mx_ee_cpu.inc ****  */
 220:Generated_Source\PSoC5/ErikaOS_cortex_mx_ee_cpu.inc **** __INLINE__ void  EE_cortex_mx_resumeIRQ(EE_FREG f)
 221:Generated_Source\PSoC5/ErikaOS_cortex_mx_ee_cpu.inc **** {
 222:Generated_Source\PSoC5/ErikaOS_cortex_mx_ee_cpu.inc **** #ifdef __IAR__
 223:Generated_Source\PSoC5/ErikaOS_cortex_mx_ee_cpu.inc **** 	__set_PRIMASK(f);
 224:Generated_Source\PSoC5/ErikaOS_cortex_mx_ee_cpu.inc **** #else	/* __IAR__ */
 225:Generated_Source\PSoC5/ErikaOS_cortex_mx_ee_cpu.inc **** #ifdef __CCS__
 226:Generated_Source\PSoC5/ErikaOS_cortex_mx_ee_cpu.inc **** 	__ASM ("    msr    primask, r0\n");
 227:Generated_Source\PSoC5/ErikaOS_cortex_mx_ee_cpu.inc **** #else	/* __CCS__ */
 228:Generated_Source\PSoC5/ErikaOS_cortex_mx_ee_cpu.inc **** #ifdef __KEIL__
 229:Generated_Source\PSoC5/ErikaOS_cortex_mx_ee_cpu.inc **** 	register EE_FREG PRIMASK __ASM("primask");
 230:Generated_Source\PSoC5/ErikaOS_cortex_mx_ee_cpu.inc **** 	PRIMASK = f;
 231:Generated_Source\PSoC5/ErikaOS_cortex_mx_ee_cpu.inc **** #else	/* __KEIL__ */
 232:Generated_Source\PSoC5/ErikaOS_cortex_mx_ee_cpu.inc **** 	__ASM volatile("msr primask, %0" :: "r" (f));
 233:Generated_Source\PSoC5/ErikaOS_cortex_mx_ee_cpu.inc **** #endif	/* !__KEIL__ */
 234:Generated_Source\PSoC5/ErikaOS_cortex_mx_ee_cpu.inc **** #endif	/* !__CCS__ */
 235:Generated_Source\PSoC5/ErikaOS_cortex_mx_ee_cpu.inc **** #endif	/* !__IAR__ */
 236:Generated_Source\PSoC5/ErikaOS_cortex_mx_ee_cpu.inc **** }
 237:Generated_Source\PSoC5/ErikaOS_cortex_mx_ee_cpu.inc **** 
 238:Generated_Source\PSoC5/ErikaOS_cortex_mx_ee_cpu.inc **** /**
 239:Generated_Source\PSoC5/ErikaOS_cortex_mx_ee_cpu.inc ****  * Suspend interrupts
 240:Generated_Source\PSoC5/ErikaOS_cortex_mx_ee_cpu.inc ****  */
 241:Generated_Source\PSoC5/ErikaOS_cortex_mx_ee_cpu.inc **** __INLINE__ EE_FREG  EE_cortex_mx_suspendIRQ(void)
 242:Generated_Source\PSoC5/ErikaOS_cortex_mx_ee_cpu.inc **** {
 243:Generated_Source\PSoC5/ErikaOS_cortex_mx_ee_cpu.inc **** #ifndef __CCS__
 244:Generated_Source\PSoC5/ErikaOS_cortex_mx_ee_cpu.inc **** 	EE_FREG istat;
 245:Generated_Source\PSoC5/ErikaOS_cortex_mx_ee_cpu.inc **** #endif
 246:Generated_Source\PSoC5/ErikaOS_cortex_mx_ee_cpu.inc **** #ifdef __IAR__
 247:Generated_Source\PSoC5/ErikaOS_cortex_mx_ee_cpu.inc **** 	 istat = __get_PRIMASK();
 248:Generated_Source\PSoC5/ErikaOS_cortex_mx_ee_cpu.inc **** 	__ASM ("cpsid i");
 249:Generated_Source\PSoC5/ErikaOS_cortex_mx_ee_cpu.inc **** #else	/* __IAR__ */
 250:Generated_Source\PSoC5/ErikaOS_cortex_mx_ee_cpu.inc **** #ifdef __CCS__
 251:Generated_Source\PSoC5/ErikaOS_cortex_mx_ee_cpu.inc **** 	__ASM ("    mrs     r0, primask\n"
 252:Generated_Source\PSoC5/ErikaOS_cortex_mx_ee_cpu.inc **** 	       "    cpsid   i\n"
 253:Generated_Source\PSoC5/ErikaOS_cortex_mx_ee_cpu.inc **** 	       "    bx      lr\n");
 254:Generated_Source\PSoC5/ErikaOS_cortex_mx_ee_cpu.inc **** #else	/* __CCS__ */
 255:Generated_Source\PSoC5/ErikaOS_cortex_mx_ee_cpu.inc **** #ifdef __KEIL__
 256:Generated_Source\PSoC5/ErikaOS_cortex_mx_ee_cpu.inc **** 	register EE_FREG PRIMASK __ASM("primask");
 257:Generated_Source\PSoC5/ErikaOS_cortex_mx_ee_cpu.inc **** 	istat = PRIMASK;
 258:Generated_Source\PSoC5/ErikaOS_cortex_mx_ee_cpu.inc **** 	__disable_irq();
 259:Generated_Source\PSoC5/ErikaOS_cortex_mx_ee_cpu.inc **** #else	/* __KEIL__ */
 260:Generated_Source\PSoC5/ErikaOS_cortex_mx_ee_cpu.inc **** 	__ASM volatile ("mrs %0, primask" : "=r" (istat) );
 261:Generated_Source\PSoC5/ErikaOS_cortex_mx_ee_cpu.inc **** 	__ASM volatile ("cpsid i");
 262:Generated_Source\PSoC5/ErikaOS_cortex_mx_ee_cpu.inc **** #endif	/* !__KEIL__ */
 263:Generated_Source\PSoC5/ErikaOS_cortex_mx_ee_cpu.inc **** #endif	/* !__CCS__ */
 264:Generated_Source\PSoC5/ErikaOS_cortex_mx_ee_cpu.inc **** #endif	/* !__IAR__ */
 265:Generated_Source\PSoC5/ErikaOS_cortex_mx_ee_cpu.inc **** #ifdef __CCS__
 266:Generated_Source\PSoC5/ErikaOS_cortex_mx_ee_cpu.inc **** 	return 0;
 267:Generated_Source\PSoC5/ErikaOS_cortex_mx_ee_cpu.inc **** #else
 268:Generated_Source\PSoC5/ErikaOS_cortex_mx_ee_cpu.inc **** 	return istat;
ARM GAS  C:\Users\aditi\AppData\Local\Temp\ccxJli9U.s 			page 67


 269:Generated_Source\PSoC5/ErikaOS_cortex_mx_ee_cpu.inc **** #endif
 270:Generated_Source\PSoC5/ErikaOS_cortex_mx_ee_cpu.inc **** }
 271:Generated_Source\PSoC5/ErikaOS_cortex_mx_ee_cpu.inc **** 
 272:Generated_Source\PSoC5/ErikaOS_cortex_mx_ee_cpu.inc **** /**
 273:Generated_Source\PSoC5/ErikaOS_cortex_mx_ee_cpu.inc ****  * Return true (not 0) if IRQs are enabled, 0 (false) if IRQ are disabled.
 274:Generated_Source\PSoC5/ErikaOS_cortex_mx_ee_cpu.inc ****  */
 275:Generated_Source\PSoC5/ErikaOS_cortex_mx_ee_cpu.inc **** __INLINE__ EE_UINT32  EE_cortex_mx_get_IRQ_enabled(void)
 276:Generated_Source\PSoC5/ErikaOS_cortex_mx_ee_cpu.inc **** {
 277:Generated_Source\PSoC5/ErikaOS_cortex_mx_ee_cpu.inc **** #ifndef __CCS__
 278:Generated_Source\PSoC5/ErikaOS_cortex_mx_ee_cpu.inc **** 	EE_UREG ie;
 279:Generated_Source\PSoC5/ErikaOS_cortex_mx_ee_cpu.inc **** #endif
 280:Generated_Source\PSoC5/ErikaOS_cortex_mx_ee_cpu.inc **** #ifdef __IAR__
 281:Generated_Source\PSoC5/ErikaOS_cortex_mx_ee_cpu.inc **** 	ie = __get_PRIMASK();
 282:Generated_Source\PSoC5/ErikaOS_cortex_mx_ee_cpu.inc **** #else	/* __IAR__ */
 283:Generated_Source\PSoC5/ErikaOS_cortex_mx_ee_cpu.inc **** #ifdef __CCS__
 284:Generated_Source\PSoC5/ErikaOS_cortex_mx_ee_cpu.inc **** 	__ASM ("    MRS     r0, PRIMASK\n"
 285:Generated_Source\PSoC5/ErikaOS_cortex_mx_ee_cpu.inc **** 	       "    EOR     r0, #1\n"
 286:Generated_Source\PSoC5/ErikaOS_cortex_mx_ee_cpu.inc **** 	       "    bx      lr\n");
 287:Generated_Source\PSoC5/ErikaOS_cortex_mx_ee_cpu.inc **** #else	/* __CCS__ */
 288:Generated_Source\PSoC5/ErikaOS_cortex_mx_ee_cpu.inc **** #ifdef __KEIL__
 289:Generated_Source\PSoC5/ErikaOS_cortex_mx_ee_cpu.inc **** 	register EE_FREG PRIMASK __ASM("primask");
 290:Generated_Source\PSoC5/ErikaOS_cortex_mx_ee_cpu.inc **** 	ie = PRIMASK;
 291:Generated_Source\PSoC5/ErikaOS_cortex_mx_ee_cpu.inc **** #else	/* __KEIL__ */
 292:Generated_Source\PSoC5/ErikaOS_cortex_mx_ee_cpu.inc **** 	__ASM volatile ("MRS %0, primask" : "=r" (ie) );
 293:Generated_Source\PSoC5/ErikaOS_cortex_mx_ee_cpu.inc **** #endif	/* !__KEIL__ */
 294:Generated_Source\PSoC5/ErikaOS_cortex_mx_ee_cpu.inc **** #endif	/* !__CCS__ */
 295:Generated_Source\PSoC5/ErikaOS_cortex_mx_ee_cpu.inc **** #endif	/* !__IAR__ */
 296:Generated_Source\PSoC5/ErikaOS_cortex_mx_ee_cpu.inc **** #ifdef __CCS__
 297:Generated_Source\PSoC5/ErikaOS_cortex_mx_ee_cpu.inc **** 	return 0;
 298:Generated_Source\PSoC5/ErikaOS_cortex_mx_ee_cpu.inc **** #else
 299:Generated_Source\PSoC5/ErikaOS_cortex_mx_ee_cpu.inc **** 	return EE_cortex_mx_are_IRQs_enabled(ie);
 300:Generated_Source\PSoC5/ErikaOS_cortex_mx_ee_cpu.inc **** #endif
 301:Generated_Source\PSoC5/ErikaOS_cortex_mx_ee_cpu.inc **** }
 302:Generated_Source\PSoC5/ErikaOS_cortex_mx_ee_cpu.inc **** 
 303:Generated_Source\PSoC5/ErikaOS_cortex_mx_ee_cpu.inc **** __INLINE__ EE_TYPEISR2PRIO  EE_cortex_mx_get_int_prio(void)
 304:Generated_Source\PSoC5/ErikaOS_cortex_mx_ee_cpu.inc **** {
 305:Generated_Source\PSoC5/ErikaOS_cortex_mx_ee_cpu.inc **** #ifdef __CORTEX_M4__
 306:Generated_Source\PSoC5/ErikaOS_cortex_mx_ee_cpu.inc **** 
 307:Generated_Source\PSoC5/ErikaOS_cortex_mx_ee_cpu.inc **** #ifndef __CCS__
 308:Generated_Source\PSoC5/ErikaOS_cortex_mx_ee_cpu.inc **** 	register EE_UREG prio;
 309:Generated_Source\PSoC5/ErikaOS_cortex_mx_ee_cpu.inc **** #ifdef	__KEIL__
 310:Generated_Source\PSoC5/ErikaOS_cortex_mx_ee_cpu.inc **** 	register EE_FREG BASEPRI __ASM("basepri");
 311:Generated_Source\PSoC5/ErikaOS_cortex_mx_ee_cpu.inc **** #endif
 312:Generated_Source\PSoC5/ErikaOS_cortex_mx_ee_cpu.inc **** 
 313:Generated_Source\PSoC5/ErikaOS_cortex_mx_ee_cpu.inc **** #endif
 314:Generated_Source\PSoC5/ErikaOS_cortex_mx_ee_cpu.inc **** 
 315:Generated_Source\PSoC5/ErikaOS_cortex_mx_ee_cpu.inc **** #ifdef __CCS__
 316:Generated_Source\PSoC5/ErikaOS_cortex_mx_ee_cpu.inc **** 	/* NVIC_INT_PRI_S = 5 */
 317:Generated_Source\PSoC5/ErikaOS_cortex_mx_ee_cpu.inc **** 	__ASM ("    MRS     R0, BASEPRI\n"
 318:Generated_Source\PSoC5/ErikaOS_cortex_mx_ee_cpu.inc **** 	       "    ASR     R0, #5\n"
 319:Generated_Source\PSoC5/ErikaOS_cortex_mx_ee_cpu.inc **** 	       "    BLX     LR\n");
 320:Generated_Source\PSoC5/ErikaOS_cortex_mx_ee_cpu.inc **** #else	/* __CCS__ */
 321:Generated_Source\PSoC5/ErikaOS_cortex_mx_ee_cpu.inc **** #ifdef __KEIL__
 322:Generated_Source\PSoC5/ErikaOS_cortex_mx_ee_cpu.inc **** 	prio = BASEPRI;
 323:Generated_Source\PSoC5/ErikaOS_cortex_mx_ee_cpu.inc **** #else	/* __KEIL__ */
 324:Generated_Source\PSoC5/ErikaOS_cortex_mx_ee_cpu.inc **** #ifdef __GNU__
 325:Generated_Source\PSoC5/ErikaOS_cortex_mx_ee_cpu.inc **** 	__ASM volatile("MRS %0, BASEPRI" : "=r" (prio) :: );
ARM GAS  C:\Users\aditi\AppData\Local\Temp\ccxJli9U.s 			page 68


 1773              		.loc 5 325 0
 1774              		.syntax unified
 1775              	@ 325 "Generated_Source\PSoC5/ErikaOS_cortex_mx_ee_cpu.inc" 1
 1776 000c EFF31184 		MRS r4, BASEPRI
 1777              	@ 0 "" 2
 1778              	.LVL160:
 1779              		.thumb
 1780              		.syntax unified
 1781              	.LBE159:
 1782              	.LBE158:
 1783              	.LBB160:
 1784              	.LBB161:
 326:Generated_Source\PSoC5/ErikaOS_cortex_mx_ee_cpu.inc **** #else
 327:Generated_Source\PSoC5/ErikaOS_cortex_mx_ee_cpu.inc **** 	__ASM volatile("MRS %0, BASEPRI" :: "=r" (prio));
 328:Generated_Source\PSoC5/ErikaOS_cortex_mx_ee_cpu.inc **** #endif	/* !__GNU__ */
 329:Generated_Source\PSoC5/ErikaOS_cortex_mx_ee_cpu.inc **** #endif	/* !__KEIL__ */
 330:Generated_Source\PSoC5/ErikaOS_cortex_mx_ee_cpu.inc **** #endif	/* !__CCS__ */
 331:Generated_Source\PSoC5/ErikaOS_cortex_mx_ee_cpu.inc **** 
 332:Generated_Source\PSoC5/ErikaOS_cortex_mx_ee_cpu.inc **** #ifdef __CCS__
 333:Generated_Source\PSoC5/ErikaOS_cortex_mx_ee_cpu.inc **** 	return 0;
 334:Generated_Source\PSoC5/ErikaOS_cortex_mx_ee_cpu.inc **** #else
 335:Generated_Source\PSoC5/ErikaOS_cortex_mx_ee_cpu.inc **** 	return prio >> NVIC_INT_PRI_S;
 336:Generated_Source\PSoC5/ErikaOS_cortex_mx_ee_cpu.inc **** #endif
 337:Generated_Source\PSoC5/ErikaOS_cortex_mx_ee_cpu.inc **** 
 338:Generated_Source\PSoC5/ErikaOS_cortex_mx_ee_cpu.inc **** #else	/* __CORTEX_M4__ */
 339:Generated_Source\PSoC5/ErikaOS_cortex_mx_ee_cpu.inc **** 	return 0;
 340:Generated_Source\PSoC5/ErikaOS_cortex_mx_ee_cpu.inc **** #endif	/* !__CORTEX_M4__ */
 341:Generated_Source\PSoC5/ErikaOS_cortex_mx_ee_cpu.inc **** }
 342:Generated_Source\PSoC5/ErikaOS_cortex_mx_ee_cpu.inc **** 
 343:Generated_Source\PSoC5/ErikaOS_cortex_mx_ee_cpu.inc **** __INLINE__ void  EE_cortex_mx_set_int_prio(
 344:Generated_Source\PSoC5/ErikaOS_cortex_mx_ee_cpu.inc ****   EE_TYPEISR2PRIO prio
 345:Generated_Source\PSoC5/ErikaOS_cortex_mx_ee_cpu.inc **** )
 346:Generated_Source\PSoC5/ErikaOS_cortex_mx_ee_cpu.inc **** {
 347:Generated_Source\PSoC5/ErikaOS_cortex_mx_ee_cpu.inc **** #ifdef __CORTEX_M4__
 348:Generated_Source\PSoC5/ErikaOS_cortex_mx_ee_cpu.inc **** #ifdef __CCS__
 349:Generated_Source\PSoC5/ErikaOS_cortex_mx_ee_cpu.inc **** 	/* NVIC_INT_PRI_S = 5 */
 350:Generated_Source\PSoC5/ErikaOS_cortex_mx_ee_cpu.inc **** 	__ASM ("    LSL    R0, #5\n"
 351:Generated_Source\PSoC5/ErikaOS_cortex_mx_ee_cpu.inc **** 	       "    MSR    BASEPRI, R0\n");
 352:Generated_Source\PSoC5/ErikaOS_cortex_mx_ee_cpu.inc **** #else	/* __CCS__ */
 353:Generated_Source\PSoC5/ErikaOS_cortex_mx_ee_cpu.inc **** #ifdef __KEIL__
 354:Generated_Source\PSoC5/ErikaOS_cortex_mx_ee_cpu.inc **** 	register EE_FREG BASEPRI __ASM("basepri");
 355:Generated_Source\PSoC5/ErikaOS_cortex_mx_ee_cpu.inc **** 	BASEPRI = (prio << NVIC_INT_PRI_S);
 356:Generated_Source\PSoC5/ErikaOS_cortex_mx_ee_cpu.inc **** #else	/* __KEIL__ */
 357:Generated_Source\PSoC5/ErikaOS_cortex_mx_ee_cpu.inc **** #ifdef __GNU__
 358:Generated_Source\PSoC5/ErikaOS_cortex_mx_ee_cpu.inc **** 	__ASM volatile("MSR BASEPRI, %0" :: "r" (prio << NVIC_INT_PRI_S) : );
 359:Generated_Source\PSoC5/ErikaOS_cortex_mx_ee_cpu.inc **** #else
 360:Generated_Source\PSoC5/ErikaOS_cortex_mx_ee_cpu.inc **** 	__ASM volatile("MSR BASEPRI, %0" :: "r" (prio << NVIC_INT_PRI_S));
 361:Generated_Source\PSoC5/ErikaOS_cortex_mx_ee_cpu.inc **** #endif	/* !__GNU__ */
 362:Generated_Source\PSoC5/ErikaOS_cortex_mx_ee_cpu.inc **** #endif	/* !__KEIL__ */
 363:Generated_Source\PSoC5/ErikaOS_cortex_mx_ee_cpu.inc **** #endif	/* !__CCS__ */
 364:Generated_Source\PSoC5/ErikaOS_cortex_mx_ee_cpu.inc **** #endif	/* __CORTEX_M4__ */
 365:Generated_Source\PSoC5/ErikaOS_cortex_mx_ee_cpu.inc **** }
 366:Generated_Source\PSoC5/ErikaOS_cortex_mx_ee_cpu.inc **** 
 367:Generated_Source\PSoC5/ErikaOS_cortex_mx_ee_cpu.inc **** __INLINE__ EE_TYPEISR2PRIO  EE_cortex_mx_get_isr_prio(
 368:Generated_Source\PSoC5/ErikaOS_cortex_mx_ee_cpu.inc ****   void
 369:Generated_Source\PSoC5/ErikaOS_cortex_mx_ee_cpu.inc **** )
 370:Generated_Source\PSoC5/ErikaOS_cortex_mx_ee_cpu.inc **** {
ARM GAS  C:\Users\aditi\AppData\Local\Temp\ccxJli9U.s 			page 69


 371:Generated_Source\PSoC5/ErikaOS_cortex_mx_ee_cpu.inc **** #ifdef __CORTEX_M4__
 372:Generated_Source\PSoC5/ErikaOS_cortex_mx_ee_cpu.inc ****   register EE_UREG vectact = NVIC_INT_CTRL_R & NVIC_INT_CTRL_VEC_ACT_M;
 1785              		.loc 5 372 0
 1786 0010 1E4B     		ldr	r3, .L133
 1787 0012 1B68     		ldr	r3, [r3]
 1788 0014 DBB2     		uxtb	r3, r3
 1789              	.LVL161:
 373:Generated_Source\PSoC5/ErikaOS_cortex_mx_ee_cpu.inc ****   register EE_TYPEISR2PRIO prio = 0;
 374:Generated_Source\PSoC5/ErikaOS_cortex_mx_ee_cpu.inc **** 
 375:Generated_Source\PSoC5/ErikaOS_cortex_mx_ee_cpu.inc ****   if (vectact > EE_CORTEX_MX_SYSTICK_EXC_NUM) {
 1790              		.loc 5 375 0
 1791 0016 0F2B     		cmp	r3, #15
 1792 0018 10D9     		bls	.L128
 376:Generated_Source\PSoC5/ErikaOS_cortex_mx_ee_cpu.inc ****     vectact -= EE_CORTEX_MX_SYSTICK_EXC_NUM + 1;
 1793              		.loc 5 376 0
 1794 001a 103B     		subs	r3, r3, #16
 1795              	.LVL162:
 377:Generated_Source\PSoC5/ErikaOS_cortex_mx_ee_cpu.inc ****     prio = NVIC_GET_PRI(vectact);
 1796              		.loc 5 377 0
 1797 001c 23F00302 		bic	r2, r3, #3
 1798 0020 02F16042 		add	r2, r2, #-536870912
 1799 0024 02F56442 		add	r2, r2, #58368
 1800 0028 1168     		ldr	r1, [r2]
 1801 002a DB00     		lsls	r3, r3, #3
 1802              	.LVL163:
 1803 002c 03F01803 		and	r3, r3, #24
 1804 0030 E022     		movs	r2, #224
 1805 0032 9A40     		lsls	r2, r2, r3
 1806 0034 0A40     		ands	r2, r2, r1
 1807 0036 22FA03F3 		lsr	r3, r2, r3
 1808              	.LVL164:
 1809 003a 06E0     		b	.L129
 1810              	.LVL165:
 1811              	.L128:
 378:Generated_Source\PSoC5/ErikaOS_cortex_mx_ee_cpu.inc ****   }
 379:Generated_Source\PSoC5/ErikaOS_cortex_mx_ee_cpu.inc **** #ifdef	__USE_SYSTICK__
 380:Generated_Source\PSoC5/ErikaOS_cortex_mx_ee_cpu.inc ****   else if (vectact == EE_CORTEX_MX_SYSTICK_EXC_NUM) {
 1812              		.loc 5 380 0
 1813 003c 0F2B     		cmp	r3, #15
 1814 003e 03D1     		bne	.L132
 381:Generated_Source\PSoC5/ErikaOS_cortex_mx_ee_cpu.inc ****     prio = NVIC_SYS_PRI3_R >> NVIC_SYS_PRI3_TICK_S;
 1815              		.loc 5 381 0
 1816 0040 134B     		ldr	r3, .L133+4
 1817              	.LVL166:
 1818 0042 1B68     		ldr	r3, [r3]
 1819 0044 1B0E     		lsrs	r3, r3, #24
 1820              	.LVL167:
 1821 0046 00E0     		b	.L129
 1822              	.LVL168:
 1823              	.L132:
 373:Generated_Source\PSoC5/ErikaOS_cortex_mx_ee_cpu.inc **** 
 1824              		.loc 5 373 0
 1825 0048 0023     		movs	r3, #0
 1826              	.LVL169:
 1827              	.L129:
 1828              	.LBE161:
 1829              	.LBE160:
ARM GAS  C:\Users\aditi\AppData\Local\Temp\ccxJli9U.s 			page 70


 1830              	.LBB162:
 1831              	.LBB163:
 358:Generated_Source\PSoC5/ErikaOS_cortex_mx_ee_cpu.inc **** #else
 1832              		.loc 5 358 0
 1833              		.syntax unified
 1834              	@ 358 "Generated_Source\PSoC5/ErikaOS_cortex_mx_ee_cpu.inc" 1
 1835 004a 83F31188 		MSR BASEPRI, r3
 1836              	@ 0 "" 2
 1837              		.thumb
 1838              		.syntax unified
 1839              	.LBE163:
 1840              	.LBE162:
 1841              	.LBB164:
 1842              	.LBB165:
 1843              		.file 6 "Generated_Source\\PSoC5/ErikaOS_common_ee_irqstub.inc"
   1:Generated_Source\PSoC5/ErikaOS_common_ee_irqstub.inc **** /* ###*B*###
   2:Generated_Source\PSoC5/ErikaOS_common_ee_irqstub.inc ****  * ERIKA Enterprise - a tiny RTOS for small microcontrollers
   3:Generated_Source\PSoC5/ErikaOS_common_ee_irqstub.inc ****  *
   4:Generated_Source\PSoC5/ErikaOS_common_ee_irqstub.inc ****  * Copyright (C) 2002-2010  Evidence Srl
   5:Generated_Source\PSoC5/ErikaOS_common_ee_irqstub.inc ****  *
   6:Generated_Source\PSoC5/ErikaOS_common_ee_irqstub.inc ****  * This file is part of ERIKA Enterprise.
   7:Generated_Source\PSoC5/ErikaOS_common_ee_irqstub.inc ****  *
   8:Generated_Source\PSoC5/ErikaOS_common_ee_irqstub.inc ****  * ERIKA Enterprise is free software; you can redistribute it
   9:Generated_Source\PSoC5/ErikaOS_common_ee_irqstub.inc ****  * and/or modify it under the terms of the GNU General Public License
  10:Generated_Source\PSoC5/ErikaOS_common_ee_irqstub.inc ****  * version 2 as published by the Free Software Foundation,
  11:Generated_Source\PSoC5/ErikaOS_common_ee_irqstub.inc ****  * (with a special exception described below).
  12:Generated_Source\PSoC5/ErikaOS_common_ee_irqstub.inc ****  *
  13:Generated_Source\PSoC5/ErikaOS_common_ee_irqstub.inc ****  * Linking this code statically or dynamically with other modules is
  14:Generated_Source\PSoC5/ErikaOS_common_ee_irqstub.inc ****  * making a combined work based on this code.  Thus, the terms and
  15:Generated_Source\PSoC5/ErikaOS_common_ee_irqstub.inc ****  * conditions of the GNU General Public License cover the whole
  16:Generated_Source\PSoC5/ErikaOS_common_ee_irqstub.inc ****  * combination.
  17:Generated_Source\PSoC5/ErikaOS_common_ee_irqstub.inc ****  *
  18:Generated_Source\PSoC5/ErikaOS_common_ee_irqstub.inc ****  * As a special exception, the copyright holders of this library give you
  19:Generated_Source\PSoC5/ErikaOS_common_ee_irqstub.inc ****  * permission to link this code with independent modules to produce an
  20:Generated_Source\PSoC5/ErikaOS_common_ee_irqstub.inc ****  * executable, regardless of the license terms of these independent
  21:Generated_Source\PSoC5/ErikaOS_common_ee_irqstub.inc ****  * modules, and to copy and distribute the resulting executable under
  22:Generated_Source\PSoC5/ErikaOS_common_ee_irqstub.inc ****  * terms of your choice, provided that you also meet, for each linked
  23:Generated_Source\PSoC5/ErikaOS_common_ee_irqstub.inc ****  * independent module, the terms and conditions of the license of that
  24:Generated_Source\PSoC5/ErikaOS_common_ee_irqstub.inc ****  * module.  An independent module is a module which is not derived from
  25:Generated_Source\PSoC5/ErikaOS_common_ee_irqstub.inc ****  * or based on this library.  If you modify this code, you may extend
  26:Generated_Source\PSoC5/ErikaOS_common_ee_irqstub.inc ****  * this exception to your version of the code, but you are not
  27:Generated_Source\PSoC5/ErikaOS_common_ee_irqstub.inc ****  * obligated to do so.  If you do not wish to do so, delete this
  28:Generated_Source\PSoC5/ErikaOS_common_ee_irqstub.inc ****  * exception statement from your version.
  29:Generated_Source\PSoC5/ErikaOS_common_ee_irqstub.inc ****  *
  30:Generated_Source\PSoC5/ErikaOS_common_ee_irqstub.inc ****  * ERIKA Enterprise is distributed in the hope that it will be
  31:Generated_Source\PSoC5/ErikaOS_common_ee_irqstub.inc ****  * useful, but WITHOUT ANY WARRANTY; without even the implied warranty
  32:Generated_Source\PSoC5/ErikaOS_common_ee_irqstub.inc ****  * of MERCHANTABILITY or FITNESS FOR A PARTICULAR PURPOSE.  See the
  33:Generated_Source\PSoC5/ErikaOS_common_ee_irqstub.inc ****  * GNU General Public License version 2 for more details.
  34:Generated_Source\PSoC5/ErikaOS_common_ee_irqstub.inc ****  *
  35:Generated_Source\PSoC5/ErikaOS_common_ee_irqstub.inc ****  * You should have received a copy of the GNU General Public License
  36:Generated_Source\PSoC5/ErikaOS_common_ee_irqstub.inc ****  * version 2 along with ERIKA Enterprise; if not, write to the
  37:Generated_Source\PSoC5/ErikaOS_common_ee_irqstub.inc ****  * Free Software Foundation, Inc., 51 Franklin Street, Fifth Floor,
  38:Generated_Source\PSoC5/ErikaOS_common_ee_irqstub.inc ****  * Boston, MA 02110-1301 USA.
  39:Generated_Source\PSoC5/ErikaOS_common_ee_irqstub.inc ****  * ###*E*### */
  40:Generated_Source\PSoC5/ErikaOS_common_ee_irqstub.inc **** 
  41:Generated_Source\PSoC5/ErikaOS_common_ee_irqstub.inc **** /*
  42:Generated_Source\PSoC5/ErikaOS_common_ee_irqstub.inc ****  * Some IRQ-related stuff.
ARM GAS  C:\Users\aditi\AppData\Local\Temp\ccxJli9U.s 			page 71


  43:Generated_Source\PSoC5/ErikaOS_common_ee_irqstub.inc ****  * Author: 2009-2010,  Bernardo  Dal Seno
  44:Generated_Source\PSoC5/ErikaOS_common_ee_irqstub.inc ****  */
  45:Generated_Source\PSoC5/ErikaOS_common_ee_irqstub.inc **** 
  46:Generated_Source\PSoC5/ErikaOS_common_ee_irqstub.inc **** /*
  47:Generated_Source\PSoC5/ErikaOS_common_ee_irqstub.inc ****  * PSoC Port and API Generation
  48:Generated_Source\PSoC5/ErikaOS_common_ee_irqstub.inc ****  * Carlos Fernando Meier Martinez
  49:Generated_Source\PSoC5/ErikaOS_common_ee_irqstub.inc ****  * Hochschule Darmstadt, Germany. 2017.
  50:Generated_Source\PSoC5/ErikaOS_common_ee_irqstub.inc ****  */
  51:Generated_Source\PSoC5/ErikaOS_common_ee_irqstub.inc **** 
  52:Generated_Source\PSoC5/ErikaOS_common_ee_irqstub.inc **** /*******************************************************************************
  53:Generated_Source\PSoC5/ErikaOS_common_ee_irqstub.inc ****  *                        !!!WARNING!!!
  54:Generated_Source\PSoC5/ErikaOS_common_ee_irqstub.inc ****  * This header depends on "cpu/common/inc/ee_context.inc" or your own
  55:Generated_Source\PSoC5/ErikaOS_common_ee_irqstub.inc ****  * implementation of the same. You should include it file before including this
  56:Generated_Source\PSoC5/ErikaOS_common_ee_irqstub.inc ****  * file
  57:Generated_Source\PSoC5/ErikaOS_common_ee_irqstub.inc ****  ******************************************************************************/
  58:Generated_Source\PSoC5/ErikaOS_common_ee_irqstub.inc **** 
  59:Generated_Source\PSoC5/ErikaOS_common_ee_irqstub.inc **** #ifndef PKG_CPU_COMMON_INC_EE_IRQSTUB_H
  60:Generated_Source\PSoC5/ErikaOS_common_ee_irqstub.inc **** #define PKG_CPU_COMMON_INC_EE_IRQSTUB_H
  61:Generated_Source\PSoC5/ErikaOS_common_ee_irqstub.inc **** 
  62:Generated_Source\PSoC5/ErikaOS_common_ee_irqstub.inc **** /* this bring EE_IRQ_nesting_level definition */
  63:Generated_Source\PSoC5/ErikaOS_common_ee_irqstub.inc **** #include "ErikaOS_common_ee_primitives.inc"
  64:Generated_Source\PSoC5/ErikaOS_common_ee_irqstub.inc **** 
  65:Generated_Source\PSoC5/ErikaOS_common_ee_irqstub.inc **** /* True if we are inside an interrupt-serving routine */
  66:Generated_Source\PSoC5/ErikaOS_common_ee_irqstub.inc **** __INLINE__ EE_TYPEBOOL  EE_is_inside_ISR_call( void )
  67:Generated_Source\PSoC5/ErikaOS_common_ee_irqstub.inc **** {
  68:Generated_Source\PSoC5/ErikaOS_common_ee_irqstub.inc ****   return (EE_IRQ_nesting_level > 0U);
  69:Generated_Source\PSoC5/ErikaOS_common_ee_irqstub.inc **** }
  70:Generated_Source\PSoC5/ErikaOS_common_ee_irqstub.inc **** 
  71:Generated_Source\PSoC5/ErikaOS_common_ee_irqstub.inc **** 
  72:Generated_Source\PSoC5/ErikaOS_common_ee_irqstub.inc **** /* EE_decrement_IRQ_nesting_level() and EE_increment_IRQ_nesting_level() are
  73:Generated_Source\PSoC5/ErikaOS_common_ee_irqstub.inc ****  * used to keep track of the current IRQ nesting level.
  74:Generated_Source\PSoC5/ErikaOS_common_ee_irqstub.inc ****  * EE_std_enableIRQ_nested() and EE_std_disableIRQ_nested() are used to control
  75:Generated_Source\PSoC5/ErikaOS_common_ee_irqstub.inc ****  * when IRQ nesting is enabled.
  76:Generated_Source\PSoC5/ErikaOS_common_ee_irqstub.inc ****  */
  77:Generated_Source\PSoC5/ErikaOS_common_ee_irqstub.inc **** #if defined(__AS_SC4__)
  78:Generated_Source\PSoC5/ErikaOS_common_ee_irqstub.inc **** /* For SC4 the nesting level is updated inside the prestub and postub */
  79:Generated_Source\PSoC5/ErikaOS_common_ee_irqstub.inc **** __INLINE__ void  EE_decrement_IRQ_nesting_level(void) {}
  80:Generated_Source\PSoC5/ErikaOS_common_ee_irqstub.inc **** __INLINE__ void  EE_increment_IRQ_nesting_level(void) {}
  81:Generated_Source\PSoC5/ErikaOS_common_ee_irqstub.inc **** __INLINE__ void  EE_std_enableIRQ_nested(void) {}
  82:Generated_Source\PSoC5/ErikaOS_common_ee_irqstub.inc **** __INLINE__ void  EE_std_disableIRQ_nested(void) {}
  83:Generated_Source\PSoC5/ErikaOS_common_ee_irqstub.inc **** #elif defined(__ALLOW_NESTED_IRQ__)
  84:Generated_Source\PSoC5/ErikaOS_common_ee_irqstub.inc **** __INLINE__ void  EE_decrement_IRQ_nesting_level(void) { --EE_IRQ_nesting_level; }
  85:Generated_Source\PSoC5/ErikaOS_common_ee_irqstub.inc **** __INLINE__ void  EE_increment_IRQ_nesting_level(void) { ++EE_IRQ_nesting_level; }
 1844              		.loc 6 85 0
 1845 004e 114A     		ldr	r2, .L133+8
 1846 0050 1368     		ldr	r3, [r2]
 1847 0052 0133     		adds	r3, r3, #1
 1848 0054 1360     		str	r3, [r2]
 1849              	.LBE165:
 1850              	.LBE164:
 540:source\asw/swc_clock.c **** {
 1851              		.loc 1 540 0
 1852 0056 012B     		cmp	r3, #1
 1853 0058 01D1     		bne	.L130
 540:source\asw/swc_clock.c **** {
 1854              		.loc 1 540 0 is_stmt 0 discriminator 1
 1855 005a FFF7FEFF 		bl	EE_cortex_mx_change_IRQ_stack
ARM GAS  C:\Users\aditi\AppData\Local\Temp\ccxJli9U.s 			page 72


 1856              	.LVL170:
 1857              	.L130:
 1858              	.LBB166:
 1859              	.LBB167:
 191:Generated_Source\PSoC5/ErikaOS_cortex_mx_ee_cpu.inc **** #endif	/* !__KEIL__ */
 1860              		.loc 5 191 0 is_stmt 1 discriminator 3
 1861              		.syntax unified
 1862              	@ 191 "Generated_Source\PSoC5/ErikaOS_cortex_mx_ee_cpu.inc" 1
 1863 005e 62B6     		cpsie i
 1864              	@ 0 "" 2
 1865              		.thumb
 1866              		.syntax unified
 1867              	.LBE167:
 1868              	.LBE166:
 540:source\asw/swc_clock.c **** {
 1869              		.loc 1 540 0 discriminator 3
 1870 0060 FFF7FEFF 		bl	ISR2_isr_button
 1871              	.LVL171:
 1872              	.LBB168:
 1873              	.LBB169:
 211:Generated_Source\PSoC5/ErikaOS_cortex_mx_ee_cpu.inc **** #endif	/* !__KEIL__ */
 1874              		.loc 5 211 0 discriminator 3
 1875              		.syntax unified
 1876              	@ 211 "Generated_Source\PSoC5/ErikaOS_cortex_mx_ee_cpu.inc" 1
 1877 0064 72B6     		cpsid i
 1878              	@ 0 "" 2
 1879              	.LVL172:
 1880              		.thumb
 1881              		.syntax unified
 1882              	.LBE169:
 1883              	.LBE168:
 1884              	.LBB170:
 1885              	.LBB171:
 358:Generated_Source\PSoC5/ErikaOS_cortex_mx_ee_cpu.inc **** #else
 1886              		.loc 5 358 0 discriminator 3
 1887              		.syntax unified
 1888              	@ 358 "Generated_Source\PSoC5/ErikaOS_cortex_mx_ee_cpu.inc" 1
 1889 0066 84F31188 		MSR BASEPRI, r4
 1890              	@ 0 "" 2
 1891              	.LVL173:
 1892              		.thumb
 1893              		.syntax unified
 1894              	.LBE171:
 1895              	.LBE170:
 1896              	.LBB172:
 1897              	.LBB173:
  86:Generated_Source\PSoC5/ErikaOS_common_ee_irqstub.inc **** /*  EE_std_enableIRQ_nested() and EE_std_disableIRQ_nested() must be defined in
  87:Generated_Source\PSoC5/ErikaOS_common_ee_irqstub.inc ****  *  the platform-dependent part, as they dependend on the particular way
  88:Generated_Source\PSoC5/ErikaOS_common_ee_irqstub.inc ****  *  interrupts are handled by the CPU. */
  89:Generated_Source\PSoC5/ErikaOS_common_ee_irqstub.inc **** #else
  90:Generated_Source\PSoC5/ErikaOS_common_ee_irqstub.inc **** __INLINE__ void  EE_decrement_IRQ_nesting_level(void) { EE_IRQ_nesting_level = 0U; }
  91:Generated_Source\PSoC5/ErikaOS_common_ee_irqstub.inc **** __INLINE__ void  EE_increment_IRQ_nesting_level(void) { EE_IRQ_nesting_level = 1U; }
  92:Generated_Source\PSoC5/ErikaOS_common_ee_irqstub.inc **** __INLINE__ void  EE_std_enableIRQ_nested(void) {}
  93:Generated_Source\PSoC5/ErikaOS_common_ee_irqstub.inc **** __INLINE__ void  EE_std_disableIRQ_nested(void) {}
  94:Generated_Source\PSoC5/ErikaOS_common_ee_irqstub.inc **** #endif
  95:Generated_Source\PSoC5/ErikaOS_common_ee_irqstub.inc **** 
  96:Generated_Source\PSoC5/ErikaOS_common_ee_irqstub.inc **** #if (defined(__OO_BCC1__)) || (defined(__OO_BCC2__)) || (defined(__OO_ECC1__)) \
ARM GAS  C:\Users\aditi\AppData\Local\Temp\ccxJli9U.s 			page 73


  97:Generated_Source\PSoC5/ErikaOS_common_ee_irqstub.inc ****   || (defined(__OO_ECC2__)) || (defined(__AS_SC4__))
  98:Generated_Source\PSoC5/ErikaOS_common_ee_irqstub.inc **** /* Function to be called at the end of a function service interrupt, to execute
  99:Generated_Source\PSoC5/ErikaOS_common_ee_irqstub.inc ****    clean-up specifiend in Autosar standard */
 100:Generated_Source\PSoC5/ErikaOS_common_ee_irqstub.inc **** __INLINE__ void  EE_std_end_IRQ_post_stub(void)
 101:Generated_Source\PSoC5/ErikaOS_common_ee_irqstub.inc **** {
 102:Generated_Source\PSoC5/ErikaOS_common_ee_irqstub.inc ****   EE_IRQ_end_post_stub();
 1898              		.loc 6 102 0 discriminator 3
 1899 006a FFF7FEFF 		bl	EE_IRQ_end_post_stub
 1900              	.LVL174:
 1901              	.LBE173:
 1902              	.LBE172:
 1903              	.LBB174:
 1904              	.LBB175:
  84:Generated_Source\PSoC5/ErikaOS_common_ee_irqstub.inc **** __INLINE__ void  EE_increment_IRQ_nesting_level(void) { ++EE_IRQ_nesting_level; }
 1905              		.loc 6 84 0 discriminator 3
 1906 006e 094A     		ldr	r2, .L133+8
 1907 0070 1368     		ldr	r3, [r2]
 1908 0072 013B     		subs	r3, r3, #1
 1909 0074 1360     		str	r3, [r2]
 1910              	.LBE175:
 1911              	.LBE174:
 540:source\asw/swc_clock.c **** {
 1912              		.loc 1 540 0 discriminator 3
 1913 0076 1BB9     		cbnz	r3, .L131
 540:source\asw/swc_clock.c **** {
 1914              		.loc 1 540 0 is_stmt 0 discriminator 4
 1915 0078 FFF7FEFF 		bl	EE_cortex_mx_change_IRQ_stack_back
 1916              	.LVL175:
 1917              	.LBB176:
 1918              	.LBB177:
 1919              		.file 7 "Generated_Source\\PSoC5/ErikaOS_cortex_mx_ee_irq_cng_cont.inc"
   1:Generated_Source\PSoC5/ErikaOS_cortex_mx_ee_irq_cng_cont.inc **** /* ###*B*###
   2:Generated_Source\PSoC5/ErikaOS_cortex_mx_ee_irq_cng_cont.inc ****  * ERIKA Enterprise - a tiny RTOS for small microcontrollers
   3:Generated_Source\PSoC5/ErikaOS_cortex_mx_ee_irq_cng_cont.inc ****  *
   4:Generated_Source\PSoC5/ErikaOS_cortex_mx_ee_irq_cng_cont.inc ****  * Copyright (C) 2002-2011  Evidence Srl
   5:Generated_Source\PSoC5/ErikaOS_cortex_mx_ee_irq_cng_cont.inc ****  *
   6:Generated_Source\PSoC5/ErikaOS_cortex_mx_ee_irq_cng_cont.inc ****  * This file is part of ERIKA Enterprise.
   7:Generated_Source\PSoC5/ErikaOS_cortex_mx_ee_irq_cng_cont.inc ****  *
   8:Generated_Source\PSoC5/ErikaOS_cortex_mx_ee_irq_cng_cont.inc ****  * ERIKA Enterprise is free software; you can redistribute it
   9:Generated_Source\PSoC5/ErikaOS_cortex_mx_ee_irq_cng_cont.inc ****  * and/or modify it under the terms of the GNU General Public License
  10:Generated_Source\PSoC5/ErikaOS_cortex_mx_ee_irq_cng_cont.inc ****  * version 2 as published by the Free Software Foundation, 
  11:Generated_Source\PSoC5/ErikaOS_cortex_mx_ee_irq_cng_cont.inc ****  * (with a special exception described below).
  12:Generated_Source\PSoC5/ErikaOS_cortex_mx_ee_irq_cng_cont.inc ****  *
  13:Generated_Source\PSoC5/ErikaOS_cortex_mx_ee_irq_cng_cont.inc ****  * Linking this code statically or dynamically with other modules is
  14:Generated_Source\PSoC5/ErikaOS_cortex_mx_ee_irq_cng_cont.inc ****  * making a combined work based on this code.  Thus, the terms and
  15:Generated_Source\PSoC5/ErikaOS_cortex_mx_ee_irq_cng_cont.inc ****  * conditions of the GNU General Public License cover the whole
  16:Generated_Source\PSoC5/ErikaOS_cortex_mx_ee_irq_cng_cont.inc ****  * combination.
  17:Generated_Source\PSoC5/ErikaOS_cortex_mx_ee_irq_cng_cont.inc ****  *
  18:Generated_Source\PSoC5/ErikaOS_cortex_mx_ee_irq_cng_cont.inc ****  * As a special exception, the copyright holders of this library give you
  19:Generated_Source\PSoC5/ErikaOS_cortex_mx_ee_irq_cng_cont.inc ****  * permission to link this code with independent modules to produce an
  20:Generated_Source\PSoC5/ErikaOS_cortex_mx_ee_irq_cng_cont.inc ****  * executable, regardless of the license terms of these independent
  21:Generated_Source\PSoC5/ErikaOS_cortex_mx_ee_irq_cng_cont.inc ****  * modules, and to copy and distribute the resulting executable under
  22:Generated_Source\PSoC5/ErikaOS_cortex_mx_ee_irq_cng_cont.inc ****  * terms of your choice, provided that you also meet, for each linked
  23:Generated_Source\PSoC5/ErikaOS_cortex_mx_ee_irq_cng_cont.inc ****  * independent module, the terms and conditions of the license of that
  24:Generated_Source\PSoC5/ErikaOS_cortex_mx_ee_irq_cng_cont.inc ****  * module.  An independent module is a module which is not derived from
  25:Generated_Source\PSoC5/ErikaOS_cortex_mx_ee_irq_cng_cont.inc ****  * or based on this library.  If you modify this code, you may extend
  26:Generated_Source\PSoC5/ErikaOS_cortex_mx_ee_irq_cng_cont.inc ****  * this exception to your version of the code, but you are not
ARM GAS  C:\Users\aditi\AppData\Local\Temp\ccxJli9U.s 			page 74


  27:Generated_Source\PSoC5/ErikaOS_cortex_mx_ee_irq_cng_cont.inc ****  * obligated to do so.  If you do not wish to do so, delete this
  28:Generated_Source\PSoC5/ErikaOS_cortex_mx_ee_irq_cng_cont.inc ****  * exception statement from your version.
  29:Generated_Source\PSoC5/ErikaOS_cortex_mx_ee_irq_cng_cont.inc ****  *
  30:Generated_Source\PSoC5/ErikaOS_cortex_mx_ee_irq_cng_cont.inc ****  * ERIKA Enterprise is distributed in the hope that it will be
  31:Generated_Source\PSoC5/ErikaOS_cortex_mx_ee_irq_cng_cont.inc ****  * useful, but WITHOUT ANY WARRANTY; without even the implied warranty
  32:Generated_Source\PSoC5/ErikaOS_cortex_mx_ee_irq_cng_cont.inc ****  * of MERCHANTABILITY or FITNESS FOR A PARTICULAR PURPOSE.  See the
  33:Generated_Source\PSoC5/ErikaOS_cortex_mx_ee_irq_cng_cont.inc ****  * GNU General Public License version 2 for more details.
  34:Generated_Source\PSoC5/ErikaOS_cortex_mx_ee_irq_cng_cont.inc ****  *
  35:Generated_Source\PSoC5/ErikaOS_cortex_mx_ee_irq_cng_cont.inc ****  * You should have received a copy of the GNU General Public License
  36:Generated_Source\PSoC5/ErikaOS_cortex_mx_ee_irq_cng_cont.inc ****  * version 2 along with ERIKA Enterprise; if not, write to the
  37:Generated_Source\PSoC5/ErikaOS_cortex_mx_ee_irq_cng_cont.inc ****  * Free Software Foundation, Inc., 51 Franklin Street, Fifth Floor,
  38:Generated_Source\PSoC5/ErikaOS_cortex_mx_ee_irq_cng_cont.inc ****  * Boston, MA 02110-1301 USA.
  39:Generated_Source\PSoC5/ErikaOS_cortex_mx_ee_irq_cng_cont.inc ****  * ###*E*### */
  40:Generated_Source\PSoC5/ErikaOS_cortex_mx_ee_irq_cng_cont.inc **** 
  41:Generated_Source\PSoC5/ErikaOS_cortex_mx_ee_irq_cng_cont.inc ****  /** 
  42:Generated_Source\PSoC5/ErikaOS_cortex_mx_ee_irq_cng_cont.inc **** 	
  43:Generated_Source\PSoC5/ErikaOS_cortex_mx_ee_irq_cng_cont.inc **** 	@file	ee_irq_cng_cont.h
  44:Generated_Source\PSoC5/ErikaOS_cortex_mx_ee_irq_cng_cont.inc **** 	@brief	Function active the context change interrupt
  45:Generated_Source\PSoC5/ErikaOS_cortex_mx_ee_irq_cng_cont.inc **** 	@author	Gianluca Franchino
  46:Generated_Source\PSoC5/ErikaOS_cortex_mx_ee_irq_cng_cont.inc **** 	@author	Giuseppe Serano
  47:Generated_Source\PSoC5/ErikaOS_cortex_mx_ee_irq_cng_cont.inc **** 	@date	2012
  48:Generated_Source\PSoC5/ErikaOS_cortex_mx_ee_irq_cng_cont.inc **** */ 
  49:Generated_Source\PSoC5/ErikaOS_cortex_mx_ee_irq_cng_cont.inc ****     
  50:Generated_Source\PSoC5/ErikaOS_cortex_mx_ee_irq_cng_cont.inc **** /*
  51:Generated_Source\PSoC5/ErikaOS_cortex_mx_ee_irq_cng_cont.inc ****  * PSoC Port and API Generation
  52:Generated_Source\PSoC5/ErikaOS_cortex_mx_ee_irq_cng_cont.inc ****  * Carlos Fernando Meier Martinez
  53:Generated_Source\PSoC5/ErikaOS_cortex_mx_ee_irq_cng_cont.inc ****  * Hochschule Darmstadt, Germany. 2017.
  54:Generated_Source\PSoC5/ErikaOS_cortex_mx_ee_irq_cng_cont.inc ****  */
  55:Generated_Source\PSoC5/ErikaOS_cortex_mx_ee_irq_cng_cont.inc **** 
  56:Generated_Source\PSoC5/ErikaOS_cortex_mx_ee_irq_cng_cont.inc **** #ifndef __INCLUDE_CORTEX_MX_IRQ_CNG_CONTEXT_H__
  57:Generated_Source\PSoC5/ErikaOS_cortex_mx_ee_irq_cng_cont.inc **** #define __INCLUDE_CORTEX_MX_IRQ_CNG_CONTEXT_H__
  58:Generated_Source\PSoC5/ErikaOS_cortex_mx_ee_irq_cng_cont.inc **** 
  59:Generated_Source\PSoC5/ErikaOS_cortex_mx_ee_irq_cng_cont.inc **** #ifdef __GNU__
  60:Generated_Source\PSoC5/ErikaOS_cortex_mx_ee_irq_cng_cont.inc **** #include "ErikaOS_common_ee_compiler_gcc.inc"
  61:Generated_Source\PSoC5/ErikaOS_cortex_mx_ee_irq_cng_cont.inc **** #endif
  62:Generated_Source\PSoC5/ErikaOS_cortex_mx_ee_irq_cng_cont.inc **** 
  63:Generated_Source\PSoC5/ErikaOS_cortex_mx_ee_irq_cng_cont.inc **** /* Implemented in ee_<compiler>_change_context_isr.s */
  64:Generated_Source\PSoC5/ErikaOS_cortex_mx_ee_irq_cng_cont.inc **** extern void EE_switch_context(void);
  65:Generated_Source\PSoC5/ErikaOS_cortex_mx_ee_irq_cng_cont.inc **** 
  66:Generated_Source\PSoC5/ErikaOS_cortex_mx_ee_irq_cng_cont.inc **** __INLINE__ void  EE_cortex_mx_IRQ_active_change_context(void)
  67:Generated_Source\PSoC5/ErikaOS_cortex_mx_ee_irq_cng_cont.inc **** {
  68:Generated_Source\PSoC5/ErikaOS_cortex_mx_ee_irq_cng_cont.inc **** 	EE_switch_context();
 1920              		.loc 7 68 0 is_stmt 1 discriminator 4
 1921 007c FFF7FEFF 		bl	EE_switch_context
 1922              	.LVL176:
 1923              	.L131:
 1924              	.LBE177:
 1925              	.LBE176:
 1926              	.LBB178:
 1927              	.LBB179:
 191:Generated_Source\PSoC5/ErikaOS_cortex_mx_ee_cpu.inc **** #endif	/* !__KEIL__ */
 1928              		.loc 5 191 0 discriminator 6
 1929              		.syntax unified
 1930              	@ 191 "Generated_Source\PSoC5/ErikaOS_cortex_mx_ee_cpu.inc" 1
 1931 0080 62B6     		cpsie i
 1932              	@ 0 "" 2
 1933              		.thumb
ARM GAS  C:\Users\aditi\AppData\Local\Temp\ccxJli9U.s 			page 75


 1934              		.syntax unified
 1935              	.LBE179:
 1936              	.LBE178:
 540:source\asw/swc_clock.c **** {
 1937              		.loc 1 540 0 discriminator 6
 1938 0082 BDE81940 		pop	{r0, r3, r4, lr}
 1939              		.cfi_restore 14
 1940              		.cfi_restore 4
 1941              		.cfi_restore 3
 1942              		.cfi_restore 0
 1943              		.cfi_def_cfa_offset 0
 1944 0086 8546     		mov	sp, r0
 1945 0088 7047     		bx	lr
 1946              	.L134:
 1947 008a 00BF     		.align	2
 1948              	.L133:
 1949 008c 04ED00E0 		.word	-536810236
 1950 0090 20ED00E0 		.word	-536810208
 1951 0094 00000000 		.word	EE_IRQ_nesting_level
 1952              		.cfi_endproc
 1953              	.LFE158:
 1954              		.size	isr_button, .-isr_button
 1955              		.global	CLOCK_Widget_Transitions_Size
 1956              		.global	CLOCK_Widget_Transitions
 1957              		.global	STATE_CLOCK_W_IS_AUTOINCREMENT_Transitions
 1958              		.global	STATE_CLOCK_W_IS_EDITING_Transitions
 1959              		.global	STATE_CLOCK_W_IS_DISPLAYING_Transitions
 1960              		.global	CLOCK_Container_Transitions_Size
 1961              		.global	CLOCK_Container_Transitions
 1962              		.section	.rodata
 1963              		.align	2
 1964              		.set	.LANCHOR0,. + 0
 1965              		.type	CLOCK_Widget_Transitions, %object
 1966              		.size	CLOCK_Widget_Transitions, 36
 1967              	CLOCK_Widget_Transitions:
 1968 0000 03       		.byte	3
 1969 0001 000000   		.space	3
 1970 0004 00000000 		.word	STATE_CLOCK_W_IS_DISPLAYING_Transitions
 1971 0008 0100     		.short	1
 1972 000a 0000     		.space	2
 1973 000c 04       		.byte	4
 1974 000d 000000   		.space	3
 1975 0010 00000000 		.word	STATE_CLOCK_W_IS_EDITING_Transitions
 1976 0014 0300     		.short	3
 1977 0016 0000     		.space	2
 1978 0018 05       		.byte	5
 1979 0019 000000   		.space	3
 1980 001c 00000000 		.word	STATE_CLOCK_W_IS_AUTOINCREMENT_Transitions
 1981 0020 0200     		.short	2
 1982 0022 0000     		.space	2
 1983              		.type	CLOCK_Container_Transitions, %object
 1984              		.size	CLOCK_Container_Transitions, 36
 1985              	CLOCK_Container_Transitions:
 1986 0024 00       		.byte	0
 1987 0025 000000   		.space	3
 1988 0028 F8000000 		.word	STATE_CLOCK_C_IS_DISPLAYING_Transitions
 1989 002c 0200     		.short	2
ARM GAS  C:\Users\aditi\AppData\Local\Temp\ccxJli9U.s 			page 76


 1990 002e 0000     		.space	2
 1991 0030 01       		.byte	1
 1992 0031 000000   		.space	3
 1993 0034 C8000000 		.word	STATE_CLOCK_C_IS_EDITINGHOURS_Transitions
 1994 0038 0400     		.short	4
 1995 003a 0000     		.space	2
 1996 003c 02       		.byte	2
 1997 003d 000000   		.space	3
 1998 0040 98000000 		.word	STATE_CLOCK_C_IS_EDITINGMINUTES_Transitions
 1999 0044 0400     		.short	4
 2000 0046 0000     		.space	2
 2001              		.type	CLOCK_Widget_Transitions_Size, %object
 2002              		.size	CLOCK_Widget_Transitions_Size, 2
 2003              	CLOCK_Widget_Transitions_Size:
 2004 0048 0300     		.short	3
 2005 004a 0000     		.space	2
